SF:/home/user/flexorama/src/agent.rs
FN:1303,_RNCNvMs_NtCsa6QFEuJDwzK_9flexorama5agentNtB6_5Agent22start_new_conversation0B8_
FN:369,_RNvMs_NtCsa6QFEuJDwzK_9flexorama5agentNtB4_5Agent16with_mcp_manager
FN:1303,_RNvMs_NtCsa6QFEuJDwzK_9flexorama5agentNtB4_5Agent22start_new_conversation
FN:241,_RNCNCNCNvMs_NtCsa6QFEuJDwzK_9flexorama5agentNtBa_5Agent18new_with_plan_mode000Bc_
FN:394,_RNCNCNvMs_NtCsa6QFEuJDwzK_9flexorama5agentNtB8_5Agent11list_skills00Ba_
FN:695,_RNCNCNvMs_NtCsa6QFEuJDwzK_9flexorama5agentNtB8_5Agent13set_plan_mode00Ba_
FN:447,_RNCNCNvMs_NtCsa6QFEuJDwzK_9flexorama5agentNtB8_5Agent14activate_skill00Ba_
FN:468,_RNCNCNvMs_NtCsa6QFEuJDwzK_9flexorama5agentNtB8_5Agent14activate_skill0s_0Ba_
FN:489,_RNCNCNvMs_NtCsa6QFEuJDwzK_9flexorama5agentNtB8_5Agent16deactivate_skill00Ba_
FN:590,_RNCNCNvMs_NtCsa6QFEuJDwzK_9flexorama5agentNtB8_5Agent17refresh_mcp_tools00Ba_
FN:617,_RNCNCNvMs_NtCsa6QFEuJDwzK_9flexorama5agentNtB8_5Agent17refresh_mcp_tools0s_0Ba_
FN:240,_RNCNCNvMs_NtCsa6QFEuJDwzK_9flexorama5agentNtB8_5Agent18new_with_plan_mode00Ba_
FN:1274,_RNCNCNvMs_NtCsa6QFEuJDwzK_9flexorama5agentNtB8_5Agent19resume_conversation00Ba_
FN:1279,_RNCNCNvMs_NtCsa6QFEuJDwzK_9flexorama5agentNtB8_5Agent19resume_conversation0s_0Ba_
FN:1466,_RNCNCNvMs_NtCsa6QFEuJDwzK_9flexorama5agentNtB8_5Agent21execute_tool_internal00Ba_
FN:1530,_RNCNCNvMs_NtCsa6QFEuJDwzK_9flexorama5agentNtB8_5Agent21execute_tool_internal0s0_0Ba_
FN:1496,_RNCNCNvMs_NtCsa6QFEuJDwzK_9flexorama5agentNtB8_5Agent21execute_tool_internal0s1_0Ba_
FN:1529,_RNCNCNvMs_NtCsa6QFEuJDwzK_9flexorama5agentNtB8_5Agent21execute_tool_internal0s_0Ba_
FN:346,_RNCNCNvMs_NtCsa6QFEuJDwzK_9flexorama5agentNtB8_5Agent23load_plan_for_execution00Ba_
FN:360,_RNCNCNvMs_NtCsa6QFEuJDwzK_9flexorama5agentNtB8_5Agent23load_plan_for_execution0s0_0Ba_
FN:352,_RNCNCNvMs_NtCsa6QFEuJDwzK_9flexorama5agentNtB8_5Agent23load_plan_for_execution0s_0Ba_
FN:271,_RNCNCNvMs_NtCsa6QFEuJDwzK_9flexorama5agentNtB8_5Agent25apply_plan_mode_filtering00Ba_
FN:1411,_RNCNCNvMs_NtCsa6QFEuJDwzK_9flexorama5agentNtB8_5Agent25execute_tool_with_display00Ba_
FN:1442,_RNCNCNvMs_NtCsa6QFEuJDwzK_9flexorama5agentNtB8_5Agent25execute_tool_with_display0s_0Ba_
FN:1261,_RNCNCNvMs_NtCsa6QFEuJDwzK_9flexorama5agentNtB8_5Agent25list_recent_conversations00Ba_
FN:843,_RNCNCNvMs_NtCsa6QFEuJDwzK_9flexorama5agentNtB8_5Agent27process_message_with_stream00Ba_
FN:956,_RNCNCNvMs_NtCsa6QFEuJDwzK_9flexorama5agentNtB8_5Agent27process_message_with_stream0s0_0Ba_
FN:879,_RNCNCNvMs_NtCsa6QFEuJDwzK_9flexorama5agentNtB8_5Agent27process_message_with_stream0s_0Ba_
FN:388,_RNCNvMs_NtCsa6QFEuJDwzK_9flexorama5agentNtB6_5Agent11list_skills0B8_
FN:402,_RNCNvMs_NtCsa6QFEuJDwzK_9flexorama5agentNtB6_5Agent12create_skill0B8_
FN:424,_RNCNvMs_NtCsa6QFEuJDwzK_9flexorama5agentNtB6_5Agent12delete_skill0B8_
FN:324,_RNCNvMs_NtCsa6QFEuJDwzK_9flexorama5agentNtB6_5Agent12persist_plan0B8_
FN:413,_RNCNvMs_NtCsa6QFEuJDwzK_9flexorama5agentNtB6_5Agent12update_skill0B8_
FN:1360,_RNCNvMs_NtCsa6QFEuJDwzK_9flexorama5agentNtB6_5Agent13exit_subagent0B8_
FN:1105,_RNCNvMs_NtCsa6QFEuJDwzK_9flexorama5agentNtB6_5Agent13get_todos_for0B8_
FN:683,_RNCNvMs_NtCsa6QFEuJDwzK_9flexorama5agentNtB6_5Agent13set_plan_mode0B8_
FN:440,_RNCNvMs_NtCsa6QFEuJDwzK_9flexorama5agentNtB6_5Agent14activate_skill0B8_
FN:741,_RNCNvMs_NtCsa6QFEuJDwzK_9flexorama5agentNtB6_5Agent15process_message0B8_
FN:723,_RNCNvMs_NtCsa6QFEuJDwzK_9flexorama5agentNtB6_5Agent16add_context_file0B8_
FN:479,_RNCNvMs_NtCsa6QFEuJDwzK_9flexorama5agentNtB6_5Agent16deactivate_skill0B8_
FN:305,_RNCNvMs_NtCsa6QFEuJDwzK_9flexorama5agentNtB6_5Agent17derive_plan_title0B8_
FN:568,_RNCNvMs_NtCsa6QFEuJDwzK_9flexorama5agentNtB6_5Agent17refresh_mcp_tools0B8_
FN:207,_RNCNvMs_NtCsa6QFEuJDwzK_9flexorama5agentNtB6_5Agent18new_with_plan_mode0B8_
FN:1312,_RNCNvMs_NtCsa6QFEuJDwzK_9flexorama5agentNtB6_5Agent18switch_to_subagent0B8_
FN:277,_RNCNvMs_NtCsa6QFEuJDwzK_9flexorama5agentNtB6_5Agent19fetch_ollama_models0B8_
FN:1182,_RNCNvMs_NtCsa6QFEuJDwzK_9flexorama5agentNtB6_5Agent19get_config_for_save0B8_
FN:1269,_RNCNvMs_NtCsa6QFEuJDwzK_9flexorama5agentNtB6_5Agent19resume_conversation0B8_
FN:300,_RNCNvMs_NtCsa6QFEuJDwzK_9flexorama5agentNtB6_5Agent20get_available_models0B8_
FN:1449,_RNCNvMs_NtCsa6QFEuJDwzK_9flexorama5agentNtB6_5Agent21execute_tool_internal0B8_
FN:128,_RNCNvMs_NtCsa6QFEuJDwzK_9flexorama5agentNtB6_5Agent21snapshot_conversation0B8_
FN:1217,_RNCNvMs_NtCsa6QFEuJDwzK_9flexorama5agentNtB6_5Agent21todo_conversation_key0B8_
FN:1219,_RNCNvMs_NtCsa6QFEuJDwzK_9flexorama5agentNtB6_5Agent21todo_conversation_keys0_0B8_
FN:1218,_RNCNvMs_NtCsa6QFEuJDwzK_9flexorama5agentNtB6_5Agent21todo_conversation_keys_0B8_
FN:1138,_RNCNvMs_NtCsa6QFEuJDwzK_9flexorama5agentNtB6_5Agent22set_permission_handler0B8_
FN:630,_RNCNvMs_NtCsa6QFEuJDwzK_9flexorama5agentNtB6_5Agent23force_refresh_mcp_tools0B8_
FN:341,_RNCNvMs_NtCsa6QFEuJDwzK_9flexorama5agentNtB6_5Agent23load_plan_for_execution0B8_
FN:265,_RNCNvMs_NtCsa6QFEuJDwzK_9flexorama5agentNtB6_5Agent25apply_plan_mode_filtering0B8_
FN:1405,_RNCNvMs_NtCsa6QFEuJDwzK_9flexorama5agentNtB6_5Agent25execute_tool_with_display0B8_
FN:1356,_RNCNvMs_NtCsa6QFEuJDwzK_9flexorama5agentNtB6_5Agent25filter_tools_for_subagent0B8_
FN:1256,_RNCNvMs_NtCsa6QFEuJDwzK_9flexorama5agentNtB6_5Agent25list_recent_conversations0B8_
FN:752,_RNCNvMs_NtCsa6QFEuJDwzK_9flexorama5agentNtB6_5Agent27process_message_with_stream0B8_
FN:1396,_RNCNvMs_NtCsa6QFEuJDwzK_9flexorama5agentNtB6_5Agent33clear_conversation_keep_agents_md0B8_
FN:1222,_RNCNvMs_NtCsa6QFEuJDwzK_9flexorama5agentNtB6_5Agent35sync_todos_for_current_conversation0B8_
FN:1235,_RNCNvMs_NtCsa6QFEuJDwzK_9flexorama5agentNtB6_5Agent36store_todos_for_current_conversation0B8_
FN:145,_RNCNvMs_NtCsa6QFEuJDwzK_9flexorama5agentNtB6_5Agent3new0B8_
FN:172,_RNCNvMs_NtCsa6QFEuJDwzK_9flexorama5agentNtB6_5Agent3news_0B8_
FN:1098,_RNCNvMs_NtCsa6QFEuJDwzK_9flexorama5agentNtB6_5Agent9get_todos0B8_
FN:1169,_RNCNvMs_NtCsa6QFEuJDwzK_9flexorama5agentNtB6_5Agent9set_model0B8_
FN:2118,_RNCNCNvNtNtCsa6QFEuJDwzK_9flexorama5agent5testss_40filter_tools_for_subagent_removes_denied00B9_
FN:2149,_RNCNCNvNtNtCsa6QFEuJDwzK_9flexorama5agent5testss_44filter_tools_for_subagent_keeps_only_allowed00B9_
FN:2265,_RNCNvNtNtCsa6QFEuJDwzK_9flexorama5agent5testss_30exit_subagent_restores_context0B7_
FN:2176,_RNCNvNtNtCsa6QFEuJDwzK_9flexorama5agent5testss_32switch_to_subagent_saves_context0B7_
FN:2241,_RNCNvNtNtCsa6QFEuJDwzK_9flexorama5agent5testss_32switch_to_subagent_updates_model0B7_
FN:2035,_RNCNvNtNtCsa6QFEuJDwzK_9flexorama5agent5testss_35set_plan_mode_to_same_value_is_noop0B7_
FN:2047,_RNCNvNtNtCsa6QFEuJDwzK_9flexorama5agent5testss_36set_plan_mode_enabling_filters_tools0B7_
FN:1676,_RNCNvNtNtCsa6QFEuJDwzK_9flexorama5agent5testss_37new_with_plan_mode_controls_bash_tool0B7_
FN:2367,_RNCNvNtNtCsa6QFEuJDwzK_9flexorama5agent5testss_38new_with_plan_mode_adds_use_skill_tool0B7_
FN:2069,_RNCNvNtNtCsa6QFEuJDwzK_9flexorama5agent5testss_38set_plan_mode_disabling_restores_tools0B7_
FN:2111,_RNCNvNtNtCsa6QFEuJDwzK_9flexorama5agent5testss_40filter_tools_for_subagent_removes_denied0B7_
FN:2211,_RNCNvNtNtCsa6QFEuJDwzK_9flexorama5agent5testss_40switch_to_subagent_updates_system_prompt0B7_
FN:2309,_RNCNvNtNtCsa6QFEuJDwzK_9flexorama5agent5testss_42exit_subagent_without_saved_context_resets0B7_
FN:2091,_RNCNvNtNtCsa6QFEuJDwzK_9flexorama5agent5testss_42set_plan_mode_restores_saved_system_prompt0B7_
FN:2142,_RNCNvNtNtCsa6QFEuJDwzK_9flexorama5agent5testss_44filter_tools_for_subagent_keeps_only_allowed0B7_
FN:80,_RNvMNtCsa6QFEuJDwzK_9flexorama5agentNtB2_10TokenUsage12total_tokens
FN:66,_RNvMNtCsa6QFEuJDwzK_9flexorama5agentNtB2_10TokenUsage3new
FN:84,_RNvMNtCsa6QFEuJDwzK_9flexorama5agentNtB2_10TokenUsage5reset
FN:74,_RNvMNtCsa6QFEuJDwzK_9flexorama5agentNtB2_10TokenUsage9add_usage
FN:388,_RNvMs_NtCsa6QFEuJDwzK_9flexorama5agentNtB4_5Agent11list_skills
FN:402,_RNvMs_NtCsa6QFEuJDwzK_9flexorama5agentNtB4_5Agent12create_skill
FN:424,_RNvMs_NtCsa6QFEuJDwzK_9flexorama5agentNtB4_5Agent12delete_skill
FN:320,_RNvMs_NtCsa6QFEuJDwzK_9flexorama5agentNtB4_5Agent12persist_plan
FN:1121,_RNvMs_NtCsa6QFEuJDwzK_9flexorama5agentNtB4_5Agent12todos_handle
FN:413,_RNvMs_NtCsa6QFEuJDwzK_9flexorama5agentNtB4_5Agent12update_skill
FN:733,_RNvMs_NtCsa6QFEuJDwzK_9flexorama5agentNtB4_5Agent13clean_message
FN:1360,_RNvMs_NtCsa6QFEuJDwzK_9flexorama5agentNtB4_5Agent13exit_subagent
FN:1102,_RNvMs_NtCsa6QFEuJDwzK_9flexorama5agentNtB4_5Agent13get_todos_for
FN:683,_RNvMs_NtCsa6QFEuJDwzK_9flexorama5agentNtB4_5Agent13set_plan_mode
FN:440,_RNvMs_NtCsa6QFEuJDwzK_9flexorama5agentNtB4_5Agent14activate_skill
FN:525,_RNvMs_NtCsa6QFEuJDwzK_9flexorama5agentNtB4_5Agent14add_core_tools
FN:1093,_RNvMs_NtCsa6QFEuJDwzK_9flexorama5agentNtB4_5Agent15display_context
FN:1084,_RNvMs_NtCsa6QFEuJDwzK_9flexorama5agentNtB4_5Agent15get_token_usage
FN:737,_RNvMs_NtCsa6QFEuJDwzK_9flexorama5agentNtB4_5Agent15process_message
FN:1176,_RNvMs_NtCsa6QFEuJDwzK_9flexorama5agentNtB4_5Agent15set_model_local
FN:723,_RNvMs_NtCsa6QFEuJDwzK_9flexorama5agentNtB4_5Agent16add_context_file
FN:1247,_RNvMs_NtCsa6QFEuJDwzK_9flexorama5agentNtB4_5Agent16conversation_len
FN:1206,_RNvMs_NtCsa6QFEuJDwzK_9flexorama5agentNtB4_5Agent16database_manager
FN:479,_RNvMs_NtCsa6QFEuJDwzK_9flexorama5agentNtB4_5Agent16deactivate_skill
FN:1146,_RNvMs_NtCsa6QFEuJDwzK_9flexorama5agentNtB4_5Agent16display_provider
FN:1382,_RNvMs_NtCsa6QFEuJDwzK_9flexorama5agentNtB4_5Agent16is_subagent_mode
FN:304,_RNvMs_NtCsa6QFEuJDwzK_9flexorama5agentNtB4_5Agent17derive_plan_title
FN:513,_RNvMs_NtCsa6QFEuJDwzK_9flexorama5agentNtB4_5Agent17get_active_skills
FN:1392,_RNvMs_NtCsa6QFEuJDwzK_9flexorama5agentNtB4_5Agent17get_system_prompt
FN:568,_RNvMs_NtCsa6QFEuJDwzK_9flexorama5agentNtB4_5Agent17refresh_mcp_tools
FN:1088,_RNvMs_NtCsa6QFEuJDwzK_9flexorama5agentNtB4_5Agent17reset_token_usage
FN:655,_RNvMs_NtCsa6QFEuJDwzK_9flexorama5agentNtB4_5Agent17set_system_prompt
FN:202,_RNvMs_NtCsa6QFEuJDwzK_9flexorama5agentNtB4_5Agent18new_with_plan_mode
FN:1309,_RNvMs_NtCsa6QFEuJDwzK_9flexorama5agentNtB4_5Agent18switch_to_subagent
FN:379,_RNvMs_NtCsa6QFEuJDwzK_9flexorama5agentNtB4_5Agent18with_skill_manager
FN:277,_RNvMs_NtCsa6QFEuJDwzK_9flexorama5agentNtB4_5Agent19fetch_ollama_models
FN:1182,_RNvMs_NtCsa6QFEuJDwzK_9flexorama5agentNtB4_5Agent19get_config_for_save
FN:1269,_RNvMs_NtCsa6QFEuJDwzK_9flexorama5agentNtB4_5Agent19resume_conversation
FN:1242,_RNvMs_NtCsa6QFEuJDwzK_9flexorama5agentNtB4_5Agent20active_subagent_name
FN:300,_RNvMs_NtCsa6QFEuJDwzK_9flexorama5agentNtB4_5Agent20get_available_models
FN:1449,_RNvMs_NtCsa6QFEuJDwzK_9flexorama5agentNtB4_5Agent21execute_tool_internal
FN:728,_RNvMs_NtCsa6QFEuJDwzK_9flexorama5agentNtB4_5Agent21extract_context_files
FN:122,_RNvMs_NtCsa6QFEuJDwzK_9flexorama5agentNtB4_5Agent21snapshot_conversation
FN:1215,_RNvMs_NtCsa6QFEuJDwzK_9flexorama5agentNtB4_5Agent21todo_conversation_key
FN:374,_RNvMs_NtCsa6QFEuJDwzK_9flexorama5agentNtB4_5Agent21with_database_manager
FN:660,_RNvMs_NtCsa6QFEuJDwzK_9flexorama5agentNtB4_5Agent22apply_plan_mode_prompt
FN:1135,_RNvMs_NtCsa6QFEuJDwzK_9flexorama5agentNtB4_5Agent22set_permission_handler
FN:1211,_RNvMs_NtCsa6QFEuJDwzK_9flexorama5agentNtB4_5Agent23current_conversation_id
FN:630,_RNvMs_NtCsa6QFEuJDwzK_9flexorama5agentNtB4_5Agent23force_refresh_mcp_tools
FN:341,_RNvMs_NtCsa6QFEuJDwzK_9flexorama5agentNtB4_5Agent23load_plan_for_execution
FN:265,_RNvMs_NtCsa6QFEuJDwzK_9flexorama5agentNtB4_5Agent25apply_plan_mode_filtering
FN:1405,_RNvMs_NtCsa6QFEuJDwzK_9flexorama5agentNtB4_5Agent25execute_tool_with_display
FN:1344,_RNvMs_NtCsa6QFEuJDwzK_9flexorama5agentNtB4_5Agent25filter_tools_for_subagent
FN:1126,_RNvMs_NtCsa6QFEuJDwzK_9flexorama5agentNtB4_5Agent25get_bash_security_manager
FN:1131,_RNvMs_NtCsa6QFEuJDwzK_9flexorama5agentNtB4_5Agent25get_file_security_manager
FN:1252,_RNvMs_NtCsa6QFEuJDwzK_9flexorama5agentNtB4_5Agent25list_recent_conversations
FN:746,_RNvMs_NtCsa6QFEuJDwzK_9flexorama5agentNtB4_5Agent27process_message_with_stream
FN:1396,_RNvMs_NtCsa6QFEuJDwzK_9flexorama5agentNtB4_5Agent33clear_conversation_keep_agents_md
FN:1222,_RNvMs_NtCsa6QFEuJDwzK_9flexorama5agentNtB4_5Agent35sync_todos_for_current_conversation
FN:1232,_RNvMs_NtCsa6QFEuJDwzK_9flexorama5agentNtB4_5Agent36store_todos_for_current_conversation
FN:140,_RNvMs_NtCsa6QFEuJDwzK_9flexorama5agentNtB4_5Agent3new
FN:1159,_RNvMs_NtCsa6QFEuJDwzK_9flexorama5agentNtB4_5Agent5model
FN:1154,_RNvMs_NtCsa6QFEuJDwzK_9flexorama5agentNtB4_5Agent8provider
FN:1098,_RNvMs_NtCsa6QFEuJDwzK_9flexorama5agentNtB4_5Agent9get_todos
FN:1164,_RNvMs_NtCsa6QFEuJDwzK_9flexorama5agentNtB4_5Agent9plan_mode
FN:1169,_RNvMs_NtCsa6QFEuJDwzK_9flexorama5agentNtB4_5Agent9set_model
FN:1644,_RNvNtCsa6QFEuJDwzK_9flexorama5agent12is_todo_tool
FN:2320,_RNvNtNtCsa6QFEuJDwzK_9flexorama5agent5testss_22snapshot_message_clone
FN:1749,_RNvNtNtCsa6QFEuJDwzK_9flexorama5agent5testss_24agent_new_with_yolo_mode
FN:1938,_RNvNtNtCsa6QFEuJDwzK_9flexorama5agent5testss_27model_returns_current_model
FN:2351,_RNvNtNtCsa6QFEuJDwzK_9flexorama5agent5testss_28stream_tool_event_serializes
FN:1866,_RNvNtNtCsa6QFEuJDwzK_9flexorama5agent5testss_29clean_message_with_only_files
FN:1653,_RNvNtNtCsa6QFEuJDwzK_9flexorama5agent5testss_29token_usage_tracks_and_resets
FN:2265,_RNvNtNtCsa6QFEuJDwzK_9flexorama5agent5testss_30exit_subagent_restores_context
FN:1930,_RNvNtNtCsa6QFEuJDwzK_9flexorama5agent5testss_30provider_returns_correct_value
FN:1946,_RNvNtNtCsa6QFEuJDwzK_9flexorama5agent5testss_31plan_mode_returns_current_state
FN:2332,_RNvNtNtCsa6QFEuJDwzK_9flexorama5agent5testss_32saved_conversation_context_clone
FN:2176,_RNvNtNtCsa6QFEuJDwzK_9flexorama5agent5testss_32switch_to_subagent_saves_context
FN:2241,_RNvNtNtCsa6QFEuJDwzK_9flexorama5agent5testss_32switch_to_subagent_updates_model
FN:1899,_RNvNtNtCsa6QFEuJDwzK_9flexorama5agent5testss_33get_token_usage_returns_reference
FN:1830,_RNvNtNtCsa6QFEuJDwzK_9flexorama5agent5testss_34extract_context_files_from_message
FN:1732,_RNvNtNtCsa6QFEuJDwzK_9flexorama5agent5testss_35agent_new_initializes_with_defaults
FN:2009,_RNvNtNtCsa6QFEuJDwzK_9flexorama5agent5testss_35get_system_prompt_returns_set_value
FN:1914,_RNvNtNtCsa6QFEuJDwzK_9flexorama5agent5testss_35reset_token_usage_clears_all_counts
FN:2035,_RNvNtNtCsa6QFEuJDwzK_9flexorama5agent5testss_35set_plan_mode_to_same_value_is_noop
FN:1854,_RNvNtNtCsa6QFEuJDwzK_9flexorama5agent5testss_36clean_message_removes_at_file_syntax
FN:1802,_RNvNtNtCsa6QFEuJDwzK_9flexorama5agent5testss_36derive_plan_title_from_first_heading
FN:2047,_RNvNtNtCsa6QFEuJDwzK_9flexorama5agent5testss_36set_plan_mode_enabling_filters_tools
FN:1788,_RNvNtNtCsa6QFEuJDwzK_9flexorama5agent5testss_37apply_plan_mode_prompt_saves_original
FN:1676,_RNvNtNtCsa6QFEuJDwzK_9flexorama5agent5testss_37new_with_plan_mode_controls_bash_tool
FN:1967,_RNvNtNtCsa6QFEuJDwzK_9flexorama5agent5testss_38conversation_len_returns_message_count
FN:1809,_RNvNtNtCsa6QFEuJDwzK_9flexorama5agent5testss_38derive_plan_title_from_multiple_hashes
FN:2367,_RNvNtNtCsa6QFEuJDwzK_9flexorama5agent5testss_38new_with_plan_mode_adds_use_skill_tool
FN:2069,_RNvNtNtCsa6QFEuJDwzK_9flexorama5agent5testss_38set_plan_mode_disabling_restores_tools
FN:1823,_RNvNtNtCsa6QFEuJDwzK_9flexorama5agent5testss_40derive_plan_title_ignores_empty_headings
FN:2111,_RNvNtNtCsa6QFEuJDwzK_9flexorama5agent5testss_40filter_tools_for_subagent_removes_denied
FN:2211,_RNvNtNtCsa6QFEuJDwzK_9flexorama5agent5testss_40switch_to_subagent_updates_system_prompt
FN:2027,_RNvNtNtCsa6QFEuJDwzK_9flexorama5agent5testss_41get_active_skills_returns_empty_initially
FN:1880,_RNvNtNtCsa6QFEuJDwzK_9flexorama5agent5testss_41token_usage_accumulates_multiple_requests
FN:2309,_RNvNtNtCsa6QFEuJDwzK_9flexorama5agent5testss_42exit_subagent_without_saved_context_resets
FN:2091,_RNvNtNtCsa6QFEuJDwzK_9flexorama5agent5testss_42set_plan_mode_restores_saved_system_prompt
FN:1992,_RNvNtNtCsa6QFEuJDwzK_9flexorama5agent5testss_43active_subagent_name_returns_none_initially
FN:2000,_RNvNtNtCsa6QFEuJDwzK_9flexorama5agent5testss_43get_system_prompt_returns_default_initially
FN:1691,_RNvNtNtCsa6QFEuJDwzK_9flexorama5agent5testss_43snapshot_conversation_includes_seeded_state
FN:2142,_RNvNtNtCsa6QFEuJDwzK_9flexorama5agent5testss_44filter_tools_for_subagent_keeps_only_allowed
FN:1816,_RNvNtNtCsa6QFEuJDwzK_9flexorama5agent5testss_45derive_plan_title_returns_none_for_no_heading
FN:1984,_RNvNtNtCsa6QFEuJDwzK_9flexorama5agent5testss_46current_conversation_id_returns_none_initially
FN:1758,_RNvNtNtCsa6QFEuJDwzK_9flexorama5agent5testss_46set_system_prompt_updates_conversation_manager
FN:1774,_RNvNtNtCsa6QFEuJDwzK_9flexorama5agent5testss_49apply_plan_mode_prompt_preserves_existing_context
FN:2019,_RNvNtNtCsa6QFEuJDwzK_9flexorama5agent5testss_49database_manager_returns_none_when_not_configured
FN:1843,_RNvNtNtCsa6QFEuJDwzK_9flexorama5agent5testss_49extract_context_files_handles_multiple_at_symbols
FN:1956,_RNvNtNtCsa6QFEuJDwzK_9flexorama5agent5testss_51set_model_local_updates_both_agent_and_conversation
FNDA:0,_RNCNvMs_NtCsa6QFEuJDwzK_9flexorama5agentNtB6_5Agent22start_new_conversation0B8_
FNDA:0,_RNvMs_NtCsa6QFEuJDwzK_9flexorama5agentNtB4_5Agent16with_mcp_manager
FNDA:0,_RNvMs_NtCsa6QFEuJDwzK_9flexorama5agentNtB4_5Agent22start_new_conversation
FNDA:0,_RNCNCNCNvMs_NtCsa6QFEuJDwzK_9flexorama5agentNtBa_5Agent18new_with_plan_mode000Bc_
FNDA:0,_RNCNCNvMs_NtCsa6QFEuJDwzK_9flexorama5agentNtB8_5Agent11list_skills00Ba_
FNDA:39,_RNCNCNvMs_NtCsa6QFEuJDwzK_9flexorama5agentNtB8_5Agent13set_plan_mode00Ba_
FNDA:0,_RNCNCNvMs_NtCsa6QFEuJDwzK_9flexorama5agentNtB8_5Agent14activate_skill00Ba_
FNDA:0,_RNCNCNvMs_NtCsa6QFEuJDwzK_9flexorama5agentNtB8_5Agent14activate_skill0s_0Ba_
FNDA:1,_RNCNCNvMs_NtCsa6QFEuJDwzK_9flexorama5agentNtB8_5Agent16deactivate_skill00Ba_
FNDA:0,_RNCNCNvMs_NtCsa6QFEuJDwzK_9flexorama5agentNtB8_5Agent17refresh_mcp_tools00Ba_
FNDA:0,_RNCNCNvMs_NtCsa6QFEuJDwzK_9flexorama5agentNtB8_5Agent17refresh_mcp_tools0s_0Ba_
FNDA:0,_RNCNCNvMs_NtCsa6QFEuJDwzK_9flexorama5agentNtB8_5Agent18new_with_plan_mode00Ba_
FNDA:0,_RNCNCNvMs_NtCsa6QFEuJDwzK_9flexorama5agentNtB8_5Agent19resume_conversation00Ba_
FNDA:0,_RNCNCNvMs_NtCsa6QFEuJDwzK_9flexorama5agentNtB8_5Agent19resume_conversation0s_0Ba_
FNDA:0,_RNCNCNvMs_NtCsa6QFEuJDwzK_9flexorama5agentNtB8_5Agent21execute_tool_internal00Ba_
FNDA:0,_RNCNCNvMs_NtCsa6QFEuJDwzK_9flexorama5agentNtB8_5Agent21execute_tool_internal0s0_0Ba_
FNDA:0,_RNCNCNvMs_NtCsa6QFEuJDwzK_9flexorama5agentNtB8_5Agent21execute_tool_internal0s1_0Ba_
FNDA:0,_RNCNCNvMs_NtCsa6QFEuJDwzK_9flexorama5agentNtB8_5Agent21execute_tool_internal0s_0Ba_
FNDA:0,_RNCNCNvMs_NtCsa6QFEuJDwzK_9flexorama5agentNtB8_5Agent23load_plan_for_execution00Ba_
FNDA:0,_RNCNCNvMs_NtCsa6QFEuJDwzK_9flexorama5agentNtB8_5Agent23load_plan_for_execution0s0_0Ba_
FNDA:0,_RNCNCNvMs_NtCsa6QFEuJDwzK_9flexorama5agentNtB8_5Agent23load_plan_for_execution0s_0Ba_
FNDA:39,_RNCNCNvMs_NtCsa6QFEuJDwzK_9flexorama5agentNtB8_5Agent25apply_plan_mode_filtering00Ba_
FNDA:0,_RNCNCNvMs_NtCsa6QFEuJDwzK_9flexorama5agentNtB8_5Agent25execute_tool_with_display00Ba_
FNDA:0,_RNCNCNvMs_NtCsa6QFEuJDwzK_9flexorama5agentNtB8_5Agent25execute_tool_with_display0s_0Ba_
FNDA:0,_RNCNCNvMs_NtCsa6QFEuJDwzK_9flexorama5agentNtB8_5Agent25list_recent_conversations00Ba_
FNDA:0,_RNCNCNvMs_NtCsa6QFEuJDwzK_9flexorama5agentNtB8_5Agent27process_message_with_stream00Ba_
FNDA:0,_RNCNCNvMs_NtCsa6QFEuJDwzK_9flexorama5agentNtB8_5Agent27process_message_with_stream0s0_0Ba_
FNDA:0,_RNCNCNvMs_NtCsa6QFEuJDwzK_9flexorama5agentNtB8_5Agent27process_message_with_stream0s_0Ba_
FNDA:0,_RNCNvMs_NtCsa6QFEuJDwzK_9flexorama5agentNtB6_5Agent11list_skills0B8_
FNDA:0,_RNCNvMs_NtCsa6QFEuJDwzK_9flexorama5agentNtB6_5Agent12create_skill0B8_
FNDA:0,_RNCNvMs_NtCsa6QFEuJDwzK_9flexorama5agentNtB6_5Agent12delete_skill0B8_
FNDA:0,_RNCNvMs_NtCsa6QFEuJDwzK_9flexorama5agentNtB6_5Agent12persist_plan0B8_
FNDA:0,_RNCNvMs_NtCsa6QFEuJDwzK_9flexorama5agentNtB6_5Agent12update_skill0B8_
FNDA:2,_RNCNvMs_NtCsa6QFEuJDwzK_9flexorama5agentNtB6_5Agent13exit_subagent0B8_
FNDA:0,_RNCNvMs_NtCsa6QFEuJDwzK_9flexorama5agentNtB6_5Agent13get_todos_for0B8_
FNDA:6,_RNCNvMs_NtCsa6QFEuJDwzK_9flexorama5agentNtB6_5Agent13set_plan_mode0B8_
FNDA:1,_RNCNvMs_NtCsa6QFEuJDwzK_9flexorama5agentNtB6_5Agent14activate_skill0B8_
FNDA:0,_RNCNvMs_NtCsa6QFEuJDwzK_9flexorama5agentNtB6_5Agent15process_message0B8_
FNDA:60,_RNCNvMs_NtCsa6QFEuJDwzK_9flexorama5agentNtB6_5Agent16add_context_file0B8_
FNDA:1,_RNCNvMs_NtCsa6QFEuJDwzK_9flexorama5agentNtB6_5Agent16deactivate_skill0B8_
FNDA:6,_RNCNvMs_NtCsa6QFEuJDwzK_9flexorama5agentNtB6_5Agent17derive_plan_title0B8_
FNDA:0,_RNCNvMs_NtCsa6QFEuJDwzK_9flexorama5agentNtB6_5Agent17refresh_mcp_tools0B8_
FNDA:81,_RNCNvMs_NtCsa6QFEuJDwzK_9flexorama5agentNtB6_5Agent18new_with_plan_mode0B8_
FNDA:4,_RNCNvMs_NtCsa6QFEuJDwzK_9flexorama5agentNtB6_5Agent18switch_to_subagent0B8_
FNDA:81,_RNCNvMs_NtCsa6QFEuJDwzK_9flexorama5agentNtB6_5Agent19fetch_ollama_models0B8_
FNDA:0,_RNCNvMs_NtCsa6QFEuJDwzK_9flexorama5agentNtB6_5Agent19get_config_for_save0B8_
FNDA:0,_RNCNvMs_NtCsa6QFEuJDwzK_9flexorama5agentNtB6_5Agent19resume_conversation0B8_
FNDA:0,_RNCNvMs_NtCsa6QFEuJDwzK_9flexorama5agentNtB6_5Agent20get_available_models0B8_
FNDA:0,_RNCNvMs_NtCsa6QFEuJDwzK_9flexorama5agentNtB6_5Agent21execute_tool_internal0B8_
FNDA:2,_RNCNvMs_NtCsa6QFEuJDwzK_9flexorama5agentNtB6_5Agent21snapshot_conversation0B8_
FNDA:0,_RNCNvMs_NtCsa6QFEuJDwzK_9flexorama5agentNtB6_5Agent21todo_conversation_key0B8_
FNDA:1,_RNCNvMs_NtCsa6QFEuJDwzK_9flexorama5agentNtB6_5Agent21todo_conversation_keys0_0B8_
FNDA:11,_RNCNvMs_NtCsa6QFEuJDwzK_9flexorama5agentNtB6_5Agent21todo_conversation_keys_0B8_
FNDA:0,_RNCNvMs_NtCsa6QFEuJDwzK_9flexorama5agentNtB6_5Agent22set_permission_handler0B8_
FNDA:5,_RNCNvMs_NtCsa6QFEuJDwzK_9flexorama5agentNtB6_5Agent23force_refresh_mcp_tools0B8_
FNDA:0,_RNCNvMs_NtCsa6QFEuJDwzK_9flexorama5agentNtB6_5Agent23load_plan_for_execution0B8_
FNDA:81,_RNCNvMs_NtCsa6QFEuJDwzK_9flexorama5agentNtB6_5Agent25apply_plan_mode_filtering0B8_
FNDA:0,_RNCNvMs_NtCsa6QFEuJDwzK_9flexorama5agentNtB6_5Agent25execute_tool_with_display0B8_
FNDA:12,_RNCNvMs_NtCsa6QFEuJDwzK_9flexorama5agentNtB6_5Agent25filter_tools_for_subagent0B8_
FNDA:0,_RNCNvMs_NtCsa6QFEuJDwzK_9flexorama5agentNtB6_5Agent25list_recent_conversations0B8_
FNDA:0,_RNCNvMs_NtCsa6QFEuJDwzK_9flexorama5agentNtB6_5Agent27process_message_with_stream0B8_
FNDA:1,_RNCNvMs_NtCsa6QFEuJDwzK_9flexorama5agentNtB6_5Agent33clear_conversation_keep_agents_md0B8_
FNDA:11,_RNCNvMs_NtCsa6QFEuJDwzK_9flexorama5agentNtB6_5Agent35sync_todos_for_current_conversation0B8_
FNDA:0,_RNCNvMs_NtCsa6QFEuJDwzK_9flexorama5agentNtB6_5Agent36store_todos_for_current_conversation0B8_
FNDA:1344,_RNCNvMs_NtCsa6QFEuJDwzK_9flexorama5agentNtB6_5Agent3new0B8_
FNDA:784,_RNCNvMs_NtCsa6QFEuJDwzK_9flexorama5agentNtB6_5Agent3news_0B8_
FNDA:0,_RNCNvMs_NtCsa6QFEuJDwzK_9flexorama5agentNtB6_5Agent9get_todos0B8_
FNDA:1,_RNCNvMs_NtCsa6QFEuJDwzK_9flexorama5agentNtB6_5Agent9set_model0B8_
FNDA:12,_RNCNCNvNtNtCsa6QFEuJDwzK_9flexorama5agent5testss_40filter_tools_for_subagent_removes_denied00B9_
FNDA:12,_RNCNCNvNtNtCsa6QFEuJDwzK_9flexorama5agent5testss_44filter_tools_for_subagent_keeps_only_allowed00B9_
FNDA:1,_RNCNvNtNtCsa6QFEuJDwzK_9flexorama5agent5testss_30exit_subagent_restores_context0B7_
FNDA:1,_RNCNvNtNtCsa6QFEuJDwzK_9flexorama5agent5testss_32switch_to_subagent_saves_context0B7_
FNDA:1,_RNCNvNtNtCsa6QFEuJDwzK_9flexorama5agent5testss_32switch_to_subagent_updates_model0B7_
FNDA:1,_RNCNvNtNtCsa6QFEuJDwzK_9flexorama5agent5testss_35set_plan_mode_to_same_value_is_noop0B7_
FNDA:1,_RNCNvNtNtCsa6QFEuJDwzK_9flexorama5agent5testss_36set_plan_mode_enabling_filters_tools0B7_
FNDA:1,_RNCNvNtNtCsa6QFEuJDwzK_9flexorama5agent5testss_37new_with_plan_mode_controls_bash_tool0B7_
FNDA:1,_RNCNvNtNtCsa6QFEuJDwzK_9flexorama5agent5testss_38new_with_plan_mode_adds_use_skill_tool0B7_
FNDA:1,_RNCNvNtNtCsa6QFEuJDwzK_9flexorama5agent5testss_38set_plan_mode_disabling_restores_tools0B7_
FNDA:1,_RNCNvNtNtCsa6QFEuJDwzK_9flexorama5agent5testss_40filter_tools_for_subagent_removes_denied0B7_
FNDA:1,_RNCNvNtNtCsa6QFEuJDwzK_9flexorama5agent5testss_40switch_to_subagent_updates_system_prompt0B7_
FNDA:1,_RNCNvNtNtCsa6QFEuJDwzK_9flexorama5agent5testss_42exit_subagent_without_saved_context_resets0B7_
FNDA:1,_RNCNvNtNtCsa6QFEuJDwzK_9flexorama5agent5testss_42set_plan_mode_restores_saved_system_prompt0B7_
FNDA:1,_RNCNvNtNtCsa6QFEuJDwzK_9flexorama5agent5testss_44filter_tools_for_subagent_keeps_only_allowed0B7_
FNDA:7,_RNvMNtCsa6QFEuJDwzK_9flexorama5agentNtB2_10TokenUsage12total_tokens
FNDA:114,_RNvMNtCsa6QFEuJDwzK_9flexorama5agentNtB2_10TokenUsage3new
FNDA:3,_RNvMNtCsa6QFEuJDwzK_9flexorama5agentNtB2_10TokenUsage5reset
FNDA:5,_RNvMNtCsa6QFEuJDwzK_9flexorama5agentNtB2_10TokenUsage9add_usage
FNDA:0,_RNvMs_NtCsa6QFEuJDwzK_9flexorama5agentNtB4_5Agent11list_skills
FNDA:0,_RNvMs_NtCsa6QFEuJDwzK_9flexorama5agentNtB4_5Agent12create_skill
FNDA:0,_RNvMs_NtCsa6QFEuJDwzK_9flexorama5agentNtB4_5Agent12delete_skill
FNDA:0,_RNvMs_NtCsa6QFEuJDwzK_9flexorama5agentNtB4_5Agent12persist_plan
FNDA:0,_RNvMs_NtCsa6QFEuJDwzK_9flexorama5agentNtB4_5Agent12todos_handle
FNDA:0,_RNvMs_NtCsa6QFEuJDwzK_9flexorama5agentNtB4_5Agent12update_skill
FNDA:2,_RNvMs_NtCsa6QFEuJDwzK_9flexorama5agentNtB4_5Agent13clean_message
FNDA:2,_RNvMs_NtCsa6QFEuJDwzK_9flexorama5agentNtB4_5Agent13exit_subagent
FNDA:0,_RNvMs_NtCsa6QFEuJDwzK_9flexorama5agentNtB4_5Agent13get_todos_for
FNDA:6,_RNvMs_NtCsa6QFEuJDwzK_9flexorama5agentNtB4_5Agent13set_plan_mode
FNDA:1,_RNvMs_NtCsa6QFEuJDwzK_9flexorama5agentNtB4_5Agent14activate_skill
FNDA:85,_RNvMs_NtCsa6QFEuJDwzK_9flexorama5agentNtB4_5Agent14add_core_tools
FNDA:1,_RNvMs_NtCsa6QFEuJDwzK_9flexorama5agentNtB4_5Agent15display_context
FNDA:6,_RNvMs_NtCsa6QFEuJDwzK_9flexorama5agentNtB4_5Agent15get_token_usage
FNDA:0,_RNvMs_NtCsa6QFEuJDwzK_9flexorama5agentNtB4_5Agent15process_message
FNDA:5,_RNvMs_NtCsa6QFEuJDwzK_9flexorama5agentNtB4_5Agent15set_model_local
FNDA:60,_RNvMs_NtCsa6QFEuJDwzK_9flexorama5agentNtB4_5Agent16add_context_file
FNDA:1,_RNvMs_NtCsa6QFEuJDwzK_9flexorama5agentNtB4_5Agent16conversation_len
FNDA:2,_RNvMs_NtCsa6QFEuJDwzK_9flexorama5agentNtB4_5Agent16database_manager
FNDA:1,_RNvMs_NtCsa6QFEuJDwzK_9flexorama5agentNtB4_5Agent16deactivate_skill
FNDA:0,_RNvMs_NtCsa6QFEuJDwzK_9flexorama5agentNtB4_5Agent16display_provider
FNDA:1,_RNvMs_NtCsa6QFEuJDwzK_9flexorama5agentNtB4_5Agent16is_subagent_mode
FNDA:4,_RNvMs_NtCsa6QFEuJDwzK_9flexorama5agentNtB4_5Agent17derive_plan_title
FNDA:5,_RNvMs_NtCsa6QFEuJDwzK_9flexorama5agentNtB4_5Agent17get_active_skills
FNDA:3,_RNvMs_NtCsa6QFEuJDwzK_9flexorama5agentNtB4_5Agent17get_system_prompt
FNDA:0,_RNvMs_NtCsa6QFEuJDwzK_9flexorama5agentNtB4_5Agent17refresh_mcp_tools
FNDA:2,_RNvMs_NtCsa6QFEuJDwzK_9flexorama5agentNtB4_5Agent17reset_token_usage
FNDA:7,_RNvMs_NtCsa6QFEuJDwzK_9flexorama5agentNtB4_5Agent17set_system_prompt
FNDA:81,_RNvMs_NtCsa6QFEuJDwzK_9flexorama5agentNtB4_5Agent18new_with_plan_mode
FNDA:4,_RNvMs_NtCsa6QFEuJDwzK_9flexorama5agentNtB4_5Agent18switch_to_subagent
FNDA:40,_RNvMs_NtCsa6QFEuJDwzK_9flexorama5agentNtB4_5Agent18with_skill_manager
FNDA:81,_RNvMs_NtCsa6QFEuJDwzK_9flexorama5agentNtB4_5Agent19fetch_ollama_models
FNDA:0,_RNvMs_NtCsa6QFEuJDwzK_9flexorama5agentNtB4_5Agent19get_config_for_save
FNDA:0,_RNvMs_NtCsa6QFEuJDwzK_9flexorama5agentNtB4_5Agent19resume_conversation
FNDA:6,_RNvMs_NtCsa6QFEuJDwzK_9flexorama5agentNtB4_5Agent20active_subagent_name
FNDA:0,_RNvMs_NtCsa6QFEuJDwzK_9flexorama5agentNtB4_5Agent20get_available_models
FNDA:0,_RNvMs_NtCsa6QFEuJDwzK_9flexorama5agentNtB4_5Agent21execute_tool_internal
FNDA:2,_RNvMs_NtCsa6QFEuJDwzK_9flexorama5agentNtB4_5Agent21extract_context_files
FNDA:3,_RNvMs_NtCsa6QFEuJDwzK_9flexorama5agentNtB4_5Agent21snapshot_conversation
FNDA:11,_RNvMs_NtCsa6QFEuJDwzK_9flexorama5agentNtB4_5Agent21todo_conversation_key
FNDA:40,_RNvMs_NtCsa6QFEuJDwzK_9flexorama5agentNtB4_5Agent21with_database_manager
FNDA:5,_RNvMs_NtCsa6QFEuJDwzK_9flexorama5agentNtB4_5Agent22apply_plan_mode_prompt
FNDA:0,_RNvMs_NtCsa6QFEuJDwzK_9flexorama5agentNtB4_5Agent22set_permission_handler
FNDA:1,_RNvMs_NtCsa6QFEuJDwzK_9flexorama5agentNtB4_5Agent23current_conversation_id
FNDA:5,_RNvMs_NtCsa6QFEuJDwzK_9flexorama5agentNtB4_5Agent23force_refresh_mcp_tools
FNDA:0,_RNvMs_NtCsa6QFEuJDwzK_9flexorama5agentNtB4_5Agent23load_plan_for_execution
FNDA:81,_RNvMs_NtCsa6QFEuJDwzK_9flexorama5agentNtB4_5Agent25apply_plan_mode_filtering
FNDA:0,_RNvMs_NtCsa6QFEuJDwzK_9flexorama5agentNtB4_5Agent25execute_tool_with_display
FNDA:6,_RNvMs_NtCsa6QFEuJDwzK_9flexorama5agentNtB4_5Agent25filter_tools_for_subagent
FNDA:1,_RNvMs_NtCsa6QFEuJDwzK_9flexorama5agentNtB4_5Agent25get_bash_security_manager
FNDA:1,_RNvMs_NtCsa6QFEuJDwzK_9flexorama5agentNtB4_5Agent25get_file_security_manager
FNDA:0,_RNvMs_NtCsa6QFEuJDwzK_9flexorama5agentNtB4_5Agent25list_recent_conversations
FNDA:0,_RNvMs_NtCsa6QFEuJDwzK_9flexorama5agentNtB4_5Agent27process_message_with_stream
FNDA:1,_RNvMs_NtCsa6QFEuJDwzK_9flexorama5agentNtB4_5Agent33clear_conversation_keep_agents_md
FNDA:11,_RNvMs_NtCsa6QFEuJDwzK_9flexorama5agentNtB4_5Agent35sync_todos_for_current_conversation
FNDA:0,_RNvMs_NtCsa6QFEuJDwzK_9flexorama5agentNtB4_5Agent36store_todos_for_current_conversation
FNDA:112,_RNvMs_NtCsa6QFEuJDwzK_9flexorama5agentNtB4_5Agent3new
FNDA:3,_RNvMs_NtCsa6QFEuJDwzK_9flexorama5agentNtB4_5Agent5model
FNDA:2,_RNvMs_NtCsa6QFEuJDwzK_9flexorama5agentNtB4_5Agent8provider
FNDA:0,_RNvMs_NtCsa6QFEuJDwzK_9flexorama5agentNtB4_5Agent9get_todos
FNDA:3,_RNvMs_NtCsa6QFEuJDwzK_9flexorama5agentNtB4_5Agent9plan_mode
FNDA:1,_RNvMs_NtCsa6QFEuJDwzK_9flexorama5agentNtB4_5Agent9set_model
FNDA:0,_RNvNtCsa6QFEuJDwzK_9flexorama5agent12is_todo_tool
FNDA:1,_RNvNtNtCsa6QFEuJDwzK_9flexorama5agent5testss_22snapshot_message_clone
FNDA:1,_RNvNtNtCsa6QFEuJDwzK_9flexorama5agent5testss_24agent_new_with_yolo_mode
FNDA:1,_RNvNtNtCsa6QFEuJDwzK_9flexorama5agent5testss_27model_returns_current_model
FNDA:1,_RNvNtNtCsa6QFEuJDwzK_9flexorama5agent5testss_28stream_tool_event_serializes
FNDA:1,_RNvNtNtCsa6QFEuJDwzK_9flexorama5agent5testss_29clean_message_with_only_files
FNDA:1,_RNvNtNtCsa6QFEuJDwzK_9flexorama5agent5testss_29token_usage_tracks_and_resets
FNDA:1,_RNvNtNtCsa6QFEuJDwzK_9flexorama5agent5testss_30exit_subagent_restores_context
FNDA:1,_RNvNtNtCsa6QFEuJDwzK_9flexorama5agent5testss_30provider_returns_correct_value
FNDA:1,_RNvNtNtCsa6QFEuJDwzK_9flexorama5agent5testss_31plan_mode_returns_current_state
FNDA:1,_RNvNtNtCsa6QFEuJDwzK_9flexorama5agent5testss_32saved_conversation_context_clone
FNDA:1,_RNvNtNtCsa6QFEuJDwzK_9flexorama5agent5testss_32switch_to_subagent_saves_context
FNDA:1,_RNvNtNtCsa6QFEuJDwzK_9flexorama5agent5testss_32switch_to_subagent_updates_model
FNDA:1,_RNvNtNtCsa6QFEuJDwzK_9flexorama5agent5testss_33get_token_usage_returns_reference
FNDA:1,_RNvNtNtCsa6QFEuJDwzK_9flexorama5agent5testss_34extract_context_files_from_message
FNDA:1,_RNvNtNtCsa6QFEuJDwzK_9flexorama5agent5testss_35agent_new_initializes_with_defaults
FNDA:1,_RNvNtNtCsa6QFEuJDwzK_9flexorama5agent5testss_35get_system_prompt_returns_set_value
FNDA:1,_RNvNtNtCsa6QFEuJDwzK_9flexorama5agent5testss_35reset_token_usage_clears_all_counts
FNDA:1,_RNvNtNtCsa6QFEuJDwzK_9flexorama5agent5testss_35set_plan_mode_to_same_value_is_noop
FNDA:1,_RNvNtNtCsa6QFEuJDwzK_9flexorama5agent5testss_36clean_message_removes_at_file_syntax
FNDA:1,_RNvNtNtCsa6QFEuJDwzK_9flexorama5agent5testss_36derive_plan_title_from_first_heading
FNDA:1,_RNvNtNtCsa6QFEuJDwzK_9flexorama5agent5testss_36set_plan_mode_enabling_filters_tools
FNDA:1,_RNvNtNtCsa6QFEuJDwzK_9flexorama5agent5testss_37apply_plan_mode_prompt_saves_original
FNDA:1,_RNvNtNtCsa6QFEuJDwzK_9flexorama5agent5testss_37new_with_plan_mode_controls_bash_tool
FNDA:1,_RNvNtNtCsa6QFEuJDwzK_9flexorama5agent5testss_38conversation_len_returns_message_count
FNDA:1,_RNvNtNtCsa6QFEuJDwzK_9flexorama5agent5testss_38derive_plan_title_from_multiple_hashes
FNDA:1,_RNvNtNtCsa6QFEuJDwzK_9flexorama5agent5testss_38new_with_plan_mode_adds_use_skill_tool
FNDA:1,_RNvNtNtCsa6QFEuJDwzK_9flexorama5agent5testss_38set_plan_mode_disabling_restores_tools
FNDA:1,_RNvNtNtCsa6QFEuJDwzK_9flexorama5agent5testss_40derive_plan_title_ignores_empty_headings
FNDA:1,_RNvNtNtCsa6QFEuJDwzK_9flexorama5agent5testss_40filter_tools_for_subagent_removes_denied
FNDA:1,_RNvNtNtCsa6QFEuJDwzK_9flexorama5agent5testss_40switch_to_subagent_updates_system_prompt
FNDA:1,_RNvNtNtCsa6QFEuJDwzK_9flexorama5agent5testss_41get_active_skills_returns_empty_initially
FNDA:1,_RNvNtNtCsa6QFEuJDwzK_9flexorama5agent5testss_41token_usage_accumulates_multiple_requests
FNDA:1,_RNvNtNtCsa6QFEuJDwzK_9flexorama5agent5testss_42exit_subagent_without_saved_context_resets
FNDA:1,_RNvNtNtCsa6QFEuJDwzK_9flexorama5agent5testss_42set_plan_mode_restores_saved_system_prompt
FNDA:1,_RNvNtNtCsa6QFEuJDwzK_9flexorama5agent5testss_43active_subagent_name_returns_none_initially
FNDA:1,_RNvNtNtCsa6QFEuJDwzK_9flexorama5agent5testss_43get_system_prompt_returns_default_initially
FNDA:1,_RNvNtNtCsa6QFEuJDwzK_9flexorama5agent5testss_43snapshot_conversation_includes_seeded_state
FNDA:1,_RNvNtNtCsa6QFEuJDwzK_9flexorama5agent5testss_44filter_tools_for_subagent_keeps_only_allowed
FNDA:1,_RNvNtNtCsa6QFEuJDwzK_9flexorama5agent5testss_45derive_plan_title_returns_none_for_no_heading
FNDA:1,_RNvNtNtCsa6QFEuJDwzK_9flexorama5agent5testss_46current_conversation_id_returns_none_initially
FNDA:1,_RNvNtNtCsa6QFEuJDwzK_9flexorama5agent5testss_46set_system_prompt_updates_conversation_manager
FNDA:1,_RNvNtNtCsa6QFEuJDwzK_9flexorama5agent5testss_49apply_plan_mode_prompt_preserves_existing_context
FNDA:1,_RNvNtNtCsa6QFEuJDwzK_9flexorama5agent5testss_49database_manager_returns_none_when_not_configured
FNDA:1,_RNvNtNtCsa6QFEuJDwzK_9flexorama5agent5testss_49extract_context_files_handles_multiple_at_symbols
FNDA:1,_RNvNtNtCsa6QFEuJDwzK_9flexorama5agent5testss_51set_model_local_updates_both_agent_and_conversation
FNF:195
FNH:128
DA:66,114
DA:67,114
DA:68,114
DA:69,114
DA:70,114
DA:71,114
DA:72,114
DA:74,5
DA:75,5
DA:76,5
DA:77,5
DA:78,5
DA:80,7
DA:81,7
DA:82,7
DA:84,3
DA:85,3
DA:86,3
DA:87,3
DA:88,3
DA:122,3
DA:123,3
DA:124,3
DA:125,3
DA:126,3
DA:127,3
DA:128,2
DA:129,2
DA:130,2
DA:131,3
DA:133,3
DA:134,3
DA:135,3
DA:136,3
DA:137,3
DA:138,3
DA:139,3
DA:140,112
DA:141,112
DA:142,112
DA:143,112
DA:144,112
DA:145,1344
DA:146,112
DA:149,112
DA:150,112
DA:154,112
DA:155,112
DA:159,112
DA:160,112
DA:163,112
DA:166,112
DA:167,112
DA:170,112
DA:171,112
DA:172,784
DA:173,112
DA:174,112
DA:176,112
DA:177,112
DA:178,112
DA:179,112
DA:180,112
DA:181,112
DA:182,112
DA:183,112
DA:184,112
DA:185,112
DA:186,112
DA:187,112
DA:188,112
DA:189,112
DA:190,112
DA:191,112
DA:192,112
DA:193,112
DA:194,112
DA:195,112
DA:196,112
DA:197,112
DA:198,112
DA:199,112
DA:202,81
DA:203,81
DA:204,81
DA:205,81
DA:206,81
DA:207,81
DA:208,81
DA:211,81
DA:212,78
DA:213,78
DA:214,78
DA:215,78
DA:216,78
DA:217,78
DA:220,3
DA:224,81
DA:225,81
DA:226,81
DA:228,81
DA:229,81
DA:230,81
DA:231,81
DA:232,81
DA:233,81
DA:234,81
DA:235,81
DA:238,81
DA:240,81
DA:241,0
DA:243,0
DA:244,0
DA:245,0
DA:246,0
DA:247,0
DA:248,0
DA:249,0
DA:250,81
DA:256,81
DA:259,81
DA:261,81
DA:262,81
DA:265,81
DA:266,81
DA:267,3
DA:268,3
DA:271,39
DA:272,78
DA:273,81
DA:274,81
DA:277,81
DA:278,81
DA:280,0
DA:281,0
DA:282,0
DA:285,0
DA:286,0
DA:287,0
DA:288,0
DA:289,0
DA:291,0
DA:292,0
DA:295,81
DA:296,81
DA:297,81
DA:300,0
DA:301,0
DA:302,0
DA:304,4
DA:305,6
DA:306,6
DA:307,6
DA:308,5
DA:309,5
DA:310,3
DA:312,2
DA:315,1
DA:317,6
DA:318,4
DA:320,0
DA:321,0
DA:322,0
DA:323,0
DA:324,0
DA:325,0
DA:326,0
DA:327,0
DA:328,0
DA:329,0
DA:331,0
DA:332,0
DA:334,0
DA:337,0
DA:338,0
DA:341,0
DA:342,0
DA:343,0
DA:344,0
DA:345,0
DA:346,0
DA:347,0
DA:349,0
DA:350,0
DA:351,0
DA:352,0
DA:355,0
DA:357,0
DA:358,0
DA:359,0
DA:360,0
DA:361,0
DA:362,0
DA:366,0
DA:367,0
DA:369,0
DA:370,0
DA:371,0
DA:372,0
DA:374,40
DA:375,40
DA:376,40
DA:377,40
DA:379,40
DA:380,40
DA:381,40
DA:382,40
DA:383,40
DA:384,40
DA:385,40
DA:388,0
DA:389,0
DA:390,0
DA:391,0
DA:392,0
DA:393,0
DA:394,0
DA:395,0
DA:397,0
DA:399,0
DA:402,0
DA:403,0
DA:404,0
DA:405,0
DA:406,0
DA:408,0
DA:410,0
DA:413,0
DA:414,0
DA:415,0
DA:416,0
DA:417,0
DA:419,0
DA:421,0
DA:424,0
DA:425,0
DA:426,0
DA:427,0
DA:428,0
DA:430,0
DA:431,0
DA:432,0
DA:433,0
DA:435,0
DA:437,0
DA:440,1
DA:441,1
DA:442,1
DA:445,1
DA:446,1
DA:447,1
DA:448,1
DA:451,1
DA:454,1
DA:455,1
DA:456,1
DA:459,1
DA:462,1
DA:463,0
DA:464,0
DA:467,1
DA:468,0
DA:469,1
DA:471,1
DA:472,1
DA:474,0
DA:476,1
DA:479,1
DA:480,1
DA:482,1
DA:485,1
DA:489,1
DA:492,1
DA:494,1
DA:495,1
DA:497,13
DA:498,12
DA:499,12
DA:503,1
DA:505,1
DA:506,1
DA:508,0
DA:510,1
DA:513,5
DA:514,5
DA:515,5
DA:525,85
DA:526,85
DA:527,85
DA:528,85
DA:529,85
DA:530,85
DA:531,85
DA:538,85
DA:539,80
DA:540,80
DA:541,80
DA:544,85
DA:545,80
DA:546,80
DA:547,80
DA:549,85
DA:550,80
DA:551,80
DA:552,80
DA:554,85
DA:555,80
DA:556,80
DA:557,80
DA:558,80
DA:560,85
DA:561,80
DA:562,80
DA:563,80
DA:564,80
DA:565,85
DA:568,0
DA:569,0
DA:570,0
DA:571,0
DA:572,0
DA:574,0
DA:576,0
DA:578,0
DA:579,0
DA:580,0
DA:581,0
DA:583,0
DA:584,0
DA:589,0
DA:590,0
DA:593,0
DA:594,0
DA:595,0
DA:596,0
DA:597,0
DA:602,0
DA:603,0
DA:604,0
DA:605,0
DA:606,0
DA:607,0
DA:608,0
DA:609,0
DA:610,0
DA:611,0
DA:612,0
DA:613,0
DA:614,0
DA:615,0
DA:616,0
DA:617,0
DA:618,0
DA:621,0
DA:622,0
DA:625,0
DA:626,0
DA:627,0
DA:630,5
DA:631,5
DA:632,0
DA:633,0
DA:634,5
DA:636,5
DA:638,0
DA:639,0
DA:642,5
DA:643,5
DA:644,5
DA:645,5
DA:646,5
DA:647,5
DA:650,5
DA:652,5
DA:655,7
DA:656,7
DA:657,7
DA:660,5
DA:661,5
DA:663,5
DA:664,5
DA:665,5
DA:666,5
DA:674,5
DA:675,5
DA:676,5
DA:677,5
DA:679,5
DA:680,5
DA:683,6
DA:684,6
DA:685,1
DA:686,5
DA:688,5
DA:691,5
DA:692,5
DA:694,3
DA:695,39
DA:696,2
DA:697,2
DA:698,2
DA:699,2
DA:700,2
DA:701,2
DA:702,2
DA:703,2
DA:704,2
DA:705,2
DA:708,5
DA:709,3
DA:710,3
DA:711,1
DA:712,1
DA:715,5
DA:716,2
DA:717,3
DA:719,5
DA:720,6
DA:723,60
DA:724,60
DA:725,60
DA:728,2
DA:729,2
DA:730,2
DA:733,2
DA:734,2
DA:735,2
DA:737,0
DA:738,0
DA:739,0
DA:740,0
DA:741,0
DA:742,0
DA:743,0
DA:744,0
DA:746,0
DA:747,0
DA:748,0
DA:749,0
DA:750,0
DA:751,0
DA:752,0
DA:754,0
DA:755,0
DA:756,0
DA:757,0
DA:761,0
DA:762,0
DA:763,0
DA:764,0
DA:765,0
DA:766,0
DA:767,0
DA:768,0
DA:776,0
DA:780,0
DA:781,0
DA:782,0
DA:783,0
DA:786,0
DA:787,0
DA:788,0
DA:789,0
DA:792,0
DA:793,0
DA:794,0
DA:795,0
DA:797,0
DA:798,0
DA:801,0
DA:802,0
DA:803,0
DA:804,0
DA:807,0
DA:808,0
DA:809,0
DA:811,0
DA:812,0
DA:813,0
DA:814,0
DA:815,0
DA:816,0
DA:817,0
DA:818,0
DA:819,0
DA:820,0
DA:821,0
DA:823,0
DA:824,0
DA:825,0
DA:826,0
DA:828,0
DA:829,0
DA:832,0
DA:833,0
DA:834,0
DA:838,0
DA:839,0
DA:840,0
DA:841,0
DA:842,0
DA:843,0
DA:844,0
DA:845,0
DA:849,0
DA:850,0
DA:851,0
DA:852,0
DA:853,0
DA:854,0
DA:855,0
DA:856,0
DA:857,0
DA:858,0
DA:859,0
DA:860,0
DA:861,0
DA:863,0
DA:864,0
DA:865,0
DA:866,0
DA:867,0
DA:868,0
DA:869,0
DA:870,0
DA:871,0
DA:872,0
DA:873,0
DA:876,0
DA:877,0
DA:878,0
DA:879,0
DA:880,0
DA:881,0
DA:882,0
DA:883,0
DA:884,0
DA:885,0
DA:891,0
DA:892,0
DA:893,0
DA:894,0
DA:895,0
DA:897,0
DA:899,0
DA:900,0
DA:901,0
DA:904,0
DA:905,0
DA:906,0
DA:907,0
DA:908,0
DA:909,0
DA:911,0
DA:912,0
DA:915,0
DA:917,0
DA:920,0
DA:921,0
DA:922,0
DA:923,0
DA:925,0
DA:926,0
DA:927,0
DA:928,0
DA:929,0
DA:930,0
DA:931,0
DA:932,0
DA:933,0
DA:936,0
DA:937,0
DA:938,0
DA:941,0
DA:942,0
DA:943,0
DA:945,0
DA:946,0
DA:947,0
DA:949,0
DA:951,0
DA:952,0
DA:953,0
DA:955,0
DA:956,0
DA:957,0
DA:958,0
DA:959,0
DA:961,0
DA:962,0
DA:963,0
DA:965,0
DA:966,0
DA:967,0
DA:968,0
DA:969,0
DA:970,0
DA:971,0
DA:972,0
DA:973,0
DA:974,0
DA:977,0
DA:978,0
DA:979,0
DA:980,0
DA:981,0
DA:984,0
DA:985,0
DA:986,0
DA:987,0
DA:988,0
DA:989,0
DA:990,0
DA:991,0
DA:994,0
DA:995,0
DA:996,0
DA:997,0
DA:999,0
DA:1000,0
DA:1001,0
DA:1003,0
DA:1004,0
DA:1005,0
DA:1006,0
DA:1007,0
DA:1008,0
DA:1009,0
DA:1010,0
DA:1011,0
DA:1012,0
DA:1013,0
DA:1014,0
DA:1015,0
DA:1016,0
DA:1018,0
DA:1020,0
DA:1023,0
DA:1025,0
DA:1026,0
DA:1027,0
DA:1028,0
DA:1031,0
DA:1032,0
DA:1033,0
DA:1034,0
DA:1035,0
DA:1036,0
DA:1038,0
DA:1040,0
DA:1041,0
DA:1044,0
DA:1045,0
DA:1046,0
DA:1047,0
DA:1048,0
DA:1049,0
DA:1050,0
DA:1051,0
DA:1052,0
DA:1053,0
DA:1056,0
DA:1057,0
DA:1058,0
DA:1061,0
DA:1062,0
DA:1063,0
DA:1064,0
DA:1065,0
DA:1068,0
DA:1069,0
DA:1070,0
DA:1071,0
DA:1072,0
DA:1073,0
DA:1075,0
DA:1077,0
DA:1078,0
DA:1079,0
DA:1080,0
DA:1081,0
DA:1082,0
DA:1084,6
DA:1085,6
DA:1086,6
DA:1088,2
DA:1089,2
DA:1090,2
DA:1093,1
DA:1094,1
DA:1095,1
DA:1098,0
DA:1099,0
DA:1100,0
DA:1102,0
DA:1103,0
DA:1104,0
DA:1105,0
DA:1106,0
DA:1107,0
DA:1108,0
DA:1109,0
DA:1110,0
DA:1111,0
DA:1112,0
DA:1113,0
DA:1115,0
DA:1116,0
DA:1117,0
DA:1118,0
DA:1119,0
DA:1121,0
DA:1122,0
DA:1123,0
DA:1126,1
DA:1127,1
DA:1128,1
DA:1131,1
DA:1132,1
DA:1133,1
DA:1135,0
DA:1136,0
DA:1137,0
DA:1138,0
DA:1139,0
DA:1140,0
DA:1141,0
DA:1142,0
DA:1143,0
DA:1146,0
DA:1147,0
DA:1148,0
DA:1149,0
DA:1150,0
DA:1151,0
DA:1154,2
DA:1155,2
DA:1156,2
DA:1159,3
DA:1160,3
DA:1161,3
DA:1164,3
DA:1165,3
DA:1166,3
DA:1169,1
DA:1170,1
DA:1171,1
DA:1172,1
DA:1173,1
DA:1174,1
DA:1176,5
DA:1177,5
DA:1178,5
DA:1179,5
DA:1182,0
DA:1186,0
DA:1187,0
DA:1190,0
DA:1191,0
DA:1192,0
DA:1193,0
DA:1194,0
DA:1195,0
DA:1196,0
DA:1197,0
DA:1198,0
DA:1199,0
DA:1200,0
DA:1201,0
DA:1202,0
DA:1203,0
DA:1206,2
DA:1207,2
DA:1208,2
DA:1211,1
DA:1212,1
DA:1213,1
DA:1215,11
DA:1216,11
DA:1217,11
DA:1218,11
DA:1219,11
DA:1220,11
DA:1222,11
DA:1223,11
DA:1224,11
DA:1225,11
DA:1226,11
DA:1228,11
DA:1229,11
DA:1230,11
DA:1232,0
DA:1233,0
DA:1234,0
DA:1235,0
DA:1236,0
DA:1237,0
DA:1238,0
DA:1239,0
DA:1242,6
DA:1243,6
DA:1244,6
DA:1247,1
DA:1248,1
DA:1249,1
DA:1252,0
DA:1253,0
DA:1254,0
DA:1255,0
DA:1256,0
DA:1257,0
DA:1258,0
DA:1259,0
DA:1260,0
DA:1261,0
DA:1263,0
DA:1264,0
DA:1265,0
DA:1266,0
DA:1269,0
DA:1270,0
DA:1271,0
DA:1272,0
DA:1273,0
DA:1274,0
DA:1276,0
DA:1277,0
DA:1278,0
DA:1279,0
DA:1281,0
DA:1282,0
DA:1283,0
DA:1284,0
DA:1285,0
DA:1286,0
DA:1288,0
DA:1289,0
DA:1290,0
DA:1291,0
DA:1292,0
DA:1293,0
DA:1294,0
DA:1295,0
DA:1297,0
DA:1299,0
DA:1300,0
DA:1303,0
DA:1304,0
DA:1305,0
DA:1306,0
DA:1307,0
DA:1309,4
DA:1310,4
DA:1311,4
DA:1312,4
DA:1314,4
DA:1315,4
DA:1316,4
DA:1317,4
DA:1318,4
DA:1319,4
DA:1322,4
DA:1325,4
DA:1328,4
DA:1329,3
DA:1330,3
DA:1333,4
DA:1334,4
DA:1335,4
DA:1338,4
DA:1339,4
DA:1341,4
DA:1342,4
DA:1344,6
DA:1345,6
DA:1346,6
DA:1347,6
DA:1348,6
DA:1350,7
DA:1351,1
DA:1352,1
DA:1355,6
DA:1356,12
DA:1357,5
DA:1358,6
DA:1360,2
DA:1362,2
DA:1365,2
DA:1366,1
DA:1367,1
DA:1368,1
DA:1369,1
DA:1370,1
DA:1371,1
DA:1372,1
DA:1373,1
DA:1374,1
DA:1375,2
DA:1378,2
DA:1379,2
DA:1380,2
DA:1382,1
DA:1383,1
DA:1384,1
DA:1385,1
DA:1386,1
DA:1387,1
DA:1388,1
DA:1389,1
DA:1390,1
DA:1392,3
DA:1393,3
DA:1394,3
DA:1396,1
DA:1397,1
DA:1398,1
DA:1399,1
DA:1400,1
DA:1401,1
DA:1402,1
DA:1405,0
DA:1406,0
DA:1407,0
DA:1408,0
DA:1409,0
DA:1410,0
DA:1411,0
DA:1412,0
DA:1414,0
DA:1415,0
DA:1418,0
DA:1419,0
DA:1422,0
DA:1425,0
DA:1428,0
DA:1429,0
DA:1430,0
DA:1431,0
DA:1432,0
DA:1433,0
DA:1434,0
DA:1436,0
DA:1437,0
DA:1438,0
DA:1441,0
DA:1442,0
DA:1443,0
DA:1445,0
DA:1446,0
DA:1449,0
DA:1451,0
DA:1452,0
DA:1454,0
DA:1455,0
DA:1456,0
DA:1457,0
DA:1459,0
DA:1460,0
DA:1461,0
DA:1463,0
DA:1464,0
DA:1465,0
DA:1466,0
DA:1468,0
DA:1469,0
DA:1470,0
DA:1471,0
DA:1472,0
DA:1474,0
DA:1475,0
DA:1476,0
DA:1477,0
DA:1482,0
DA:1483,0
DA:1484,0
DA:1485,0
DA:1486,0
DA:1487,0
DA:1488,0
DA:1489,0
DA:1490,0
DA:1491,0
DA:1495,0
DA:1496,0
DA:1500,0
DA:1501,0
DA:1502,0
DA:1503,0
DA:1504,0
DA:1508,0
DA:1509,0
DA:1510,0
DA:1511,0
DA:1512,0
DA:1513,0
DA:1516,0
DA:1517,0
DA:1518,0
DA:1519,0
DA:1520,0
DA:1521,0
DA:1523,0
DA:1525,0
DA:1526,0
DA:1527,0
DA:1528,0
DA:1529,0
DA:1530,0
DA:1532,0
DA:1533,0
DA:1534,0
DA:1535,0
DA:1536,0
DA:1537,0
DA:1538,0
DA:1539,0
DA:1540,0
DA:1542,0
DA:1543,0
DA:1544,0
DA:1545,0
DA:1546,0
DA:1547,0
DA:1548,0
DA:1552,0
DA:1553,0
DA:1554,0
DA:1555,0
DA:1556,0
DA:1558,0
DA:1560,0
DA:1561,0
DA:1564,0
DA:1565,0
DA:1566,0
DA:1567,0
DA:1568,0
DA:1570,0
DA:1571,0
DA:1573,0
DA:1574,0
DA:1575,0
DA:1576,0
DA:1577,0
DA:1579,0
DA:1580,0
DA:1582,0
DA:1583,0
DA:1584,0
DA:1585,0
DA:1586,0
DA:1588,0
DA:1589,0
DA:1591,0
DA:1592,0
DA:1593,0
DA:1594,0
DA:1595,0
DA:1597,0
DA:1598,0
DA:1600,0
DA:1601,0
DA:1602,0
DA:1603,0
DA:1604,0
DA:1606,0
DA:1607,0
DA:1609,0
DA:1610,0
DA:1611,0
DA:1612,0
DA:1613,0
DA:1614,0
DA:1615,0
DA:1617,0
DA:1618,0
DA:1619,0
DA:1620,0
DA:1621,0
DA:1622,0
DA:1623,0
DA:1625,0
DA:1626,0
DA:1627,0
DA:1628,0
DA:1629,0
DA:1632,0
DA:1634,0
DA:1635,0
DA:1636,0
DA:1637,0
DA:1638,0
DA:1639,0
DA:1641,0
DA:1644,0
DA:1645,0
DA:1646,0
DA:1653,1
DA:1654,1
DA:1655,1
DA:1656,1
DA:1657,1
DA:1658,1
DA:1660,1
DA:1662,1
DA:1663,1
DA:1664,1
DA:1665,1
DA:1667,1
DA:1669,1
DA:1670,1
DA:1671,1
DA:1672,1
DA:1673,1
DA:1676,1
DA:1677,1
DA:1679,1
DA:1680,1
DA:1681,1
DA:1682,1
DA:1684,1
DA:1685,1
DA:1686,1
DA:1687,1
DA:1688,1
DA:1691,1
DA:1692,1
DA:1693,1
DA:1694,1
DA:1699,1
DA:1700,1
DA:1701,1
DA:1702,1
DA:1703,1
DA:1704,1
DA:1705,1
DA:1706,1
DA:1707,1
DA:1709,1
DA:1710,1
DA:1711,1
DA:1713,1
DA:1715,1
DA:1716,1
DA:1717,1
DA:1718,1
DA:1719,1
DA:1720,1
DA:1721,1
DA:1724,1
DA:1725,1
DA:1726,1
DA:1729,1
DA:1732,1
DA:1733,1
DA:1734,1
DA:1736,1
DA:1737,1
DA:1738,1
DA:1739,1
DA:1740,1
DA:1741,1
DA:1742,1
DA:1743,1
DA:1744,1
DA:1745,1
DA:1746,1
DA:1749,1
DA:1750,1
DA:1751,1
DA:1753,1
DA:1754,1
DA:1755,1
DA:1758,1
DA:1759,1
DA:1760,1
DA:1763,1
DA:1765,1
DA:1767,1
DA:1768,1
DA:1771,1
DA:1774,1
DA:1775,1
DA:1776,1
DA:1778,1
DA:1779,1
DA:1781,1
DA:1782,1
DA:1783,1
DA:1784,1
DA:1785,1
DA:1788,1
DA:1789,1
DA:1790,1
DA:1792,1
DA:1793,1
DA:1795,1
DA:1797,1
DA:1799,1
DA:1802,1
DA:1803,1
DA:1804,1
DA:1805,1
DA:1806,1
DA:1809,1
DA:1810,1
DA:1811,1
DA:1812,1
DA:1813,1
DA:1816,1
DA:1817,1
DA:1818,1
DA:1819,1
DA:1820,1
DA:1823,1
DA:1824,1
DA:1825,1
DA:1826,1
DA:1827,1
DA:1830,1
DA:1831,1
DA:1832,1
DA:1834,1
DA:1835,1
DA:1837,1
DA:1838,1
DA:1839,1
DA:1840,1
DA:1843,1
DA:1844,1
DA:1845,1
DA:1847,1
DA:1848,1
DA:1850,1
DA:1851,1
DA:1854,1
DA:1855,1
DA:1856,1
DA:1858,1
DA:1859,1
DA:1861,1
DA:1862,1
DA:1863,1
DA:1866,1
DA:1867,1
DA:1868,1
DA:1870,1
DA:1871,1
DA:1875,1
DA:1876,1
DA:1877,1
DA:1880,1
DA:1881,1
DA:1883,1
DA:1884,1
DA:1885,1
DA:1886,1
DA:1887,1
DA:1888,1
DA:1889,1
DA:1890,1
DA:1892,1
DA:1893,1
DA:1894,1
DA:1895,1
DA:1896,1
DA:1899,1
DA:1900,1
DA:1901,1
DA:1903,1
DA:1904,1
DA:1905,1
DA:1906,1
DA:1908,1
DA:1909,1
DA:1910,1
DA:1911,1
DA:1914,1
DA:1915,1
DA:1916,1
DA:1918,1
DA:1919,1
DA:1920,1
DA:1921,1
DA:1922,1
DA:1924,1
DA:1925,1
DA:1926,1
DA:1927,1
DA:1930,1
DA:1931,1
DA:1932,1
DA:1934,1
DA:1935,1
DA:1938,1
DA:1939,1
DA:1940,1
DA:1942,1
DA:1943,1
DA:1946,1
DA:1947,1
DA:1948,1
DA:1949,1
DA:1951,1
DA:1952,1
DA:1953,1
DA:1956,1
DA:1957,1
DA:1958,1
DA:1960,1
DA:1962,1
DA:1963,1
DA:1964,1
DA:1967,1
DA:1968,1
DA:1969,1
DA:1971,1
DA:1972,1
DA:1973,1
DA:1974,1
DA:1975,1
DA:1976,1
DA:1977,1
DA:1978,1
DA:1980,1
DA:1981,1
DA:1984,1
DA:1985,1
DA:1986,1
DA:1988,1
DA:1989,1
DA:1992,1
DA:1993,1
DA:1994,1
DA:1996,1
DA:1997,1
DA:2000,1
DA:2001,1
DA:2002,1
DA:2005,1
DA:2006,1
DA:2009,1
DA:2010,1
DA:2011,1
DA:2013,1
DA:2015,1
DA:2016,1
DA:2019,1
DA:2020,1
DA:2021,1
DA:2023,1
DA:2024,1
DA:2027,1
DA:2028,1
DA:2029,1
DA:2031,1
DA:2032,1
DA:2035,1
DA:2036,1
DA:2037,1
DA:2038,1
DA:2040,1
DA:2042,1
DA:2043,1
DA:2044,1
DA:2047,1
DA:2048,1
DA:2049,1
DA:2050,1
DA:2052,1
DA:2053,1
DA:2054,1
DA:2056,1
DA:2058,1
DA:2060,1
DA:2061,1
DA:2062,1
DA:2064,1
DA:2065,1
DA:2066,1
DA:2069,1
DA:2070,1
DA:2071,1
DA:2072,1
DA:2074,1
DA:2075,1
DA:2076,1
DA:2078,1
DA:2080,1
DA:2082,1
DA:2083,1
DA:2084,1
DA:2086,1
DA:2087,1
DA:2088,1
DA:2091,1
DA:2092,1
DA:2093,1
DA:2094,1
DA:2096,1
DA:2097,1
DA:2099,1
DA:2100,1
DA:2102,1
DA:2104,1
DA:2105,1
DA:2106,1
DA:2107,1
DA:2108,1
DA:2111,1
DA:2113,1
DA:2114,1
DA:2116,1
DA:2117,1
DA:2118,12
DA:2119,1
DA:2121,1
DA:2122,1
DA:2124,1
DA:2125,1
DA:2126,1
DA:2127,1
DA:2128,1
DA:2129,1
DA:2130,1
DA:2131,1
DA:2132,1
DA:2133,1
DA:2134,1
DA:2136,1
DA:2138,1
DA:2139,1
DA:2142,1
DA:2144,1
DA:2145,1
DA:2147,1
DA:2148,1
DA:2149,12
DA:2150,1
DA:2152,1
DA:2153,1
DA:2154,1
DA:2156,1
DA:2157,1
DA:2158,1
DA:2159,1
DA:2160,1
DA:2161,1
DA:2162,1
DA:2163,1
DA:2164,1
DA:2165,1
DA:2166,1
DA:2168,1
DA:2170,1
DA:2171,1
DA:2172,1
DA:2173,1
DA:2176,1
DA:2178,1
DA:2179,1
DA:2181,1
DA:2182,1
DA:2183,1
DA:2184,1
DA:2185,1
DA:2186,1
DA:2188,1
DA:2189,1
DA:2190,1
DA:2191,1
DA:2192,1
DA:2193,1
DA:2194,1
DA:2195,1
DA:2196,1
DA:2197,1
DA:2198,1
DA:2200,1
DA:2202,1
DA:2203,1
DA:2204,1
DA:2205,1
DA:2206,1
DA:2207,1
DA:2208,1
DA:2211,1
DA:2213,1
DA:2214,1
DA:2216,1
DA:2217,1
DA:2218,1
DA:2219,1
DA:2220,1
DA:2221,1
DA:2222,1
DA:2223,1
DA:2224,1
DA:2225,1
DA:2226,1
DA:2228,1
DA:2230,1
DA:2231,1
DA:2234,1
DA:2235,1
DA:2236,1
DA:2237,1
DA:2238,1
DA:2241,1
DA:2243,1
DA:2244,1
DA:2246,1
DA:2247,1
DA:2248,1
DA:2249,1
DA:2250,1
DA:2251,1
DA:2252,1
DA:2253,1
DA:2254,1
DA:2255,1
DA:2256,1
DA:2258,1
DA:2260,1
DA:2261,1
DA:2262,1
DA:2265,1
DA:2267,1
DA:2268,1
DA:2270,1
DA:2271,1
DA:2272,1
DA:2273,1
DA:2274,1
DA:2275,1
DA:2277,1
DA:2278,1
DA:2279,1
DA:2280,1
DA:2281,1
DA:2282,1
DA:2283,1
DA:2284,1
DA:2285,1
DA:2286,1
DA:2287,1
DA:2289,1
DA:2290,1
DA:2292,1
DA:2293,1
DA:2294,1
DA:2297,1
DA:2298,1
DA:2299,1
DA:2300,1
DA:2301,1
DA:2304,1
DA:2305,1
DA:2306,1
DA:2309,1
DA:2310,1
DA:2311,1
DA:2313,1
DA:2315,1
DA:2316,1
DA:2317,1
DA:2320,1
DA:2321,1
DA:2322,1
DA:2323,1
DA:2324,1
DA:2326,1
DA:2327,1
DA:2328,1
DA:2329,1
DA:2332,1
DA:2333,1
DA:2334,1
DA:2335,1
DA:2336,1
DA:2337,1
DA:2338,1
DA:2339,1
DA:2340,1
DA:2341,1
DA:2343,1
DA:2344,1
DA:2345,1
DA:2346,1
DA:2347,1
DA:2348,1
DA:2351,1
DA:2352,1
DA:2353,1
DA:2354,1
DA:2355,1
DA:2356,1
DA:2357,1
DA:2358,1
DA:2359,1
DA:2361,1
DA:2362,1
DA:2363,1
DA:2364,1
DA:2367,1
DA:2368,1
DA:2369,1
DA:2371,1
DA:2372,1
DA:2373,1
BRF:0
BRH:0
LF:1703
LH:975
end_of_record
SF:/home/user/flexorama/src/anthropic.rs
FN:69,_RNvMNtCsa6QFEuJDwzK_9flexorama9anthropicNtB2_12ContentBlock11tool_result
FN:41,_RNvMNtCsa6QFEuJDwzK_9flexorama9anthropicNtB2_12ContentBlock4text
FN:55,_RNvMNtCsa6QFEuJDwzK_9flexorama9anthropicNtB2_12ContentBlock8tool_use
FN:271,_RNvMs_NtCsa6QFEuJDwzK_9flexorama9anthropicNtB4_15AnthropicClient12try_endpoint
FN:162,_RNvMs_NtCsa6QFEuJDwzK_9flexorama9anthropicNtB4_15AnthropicClient14create_message
FN:148,_RNvMs_NtCsa6QFEuJDwzK_9flexorama9anthropicNtB4_15AnthropicClient19endpoint_candidates
FN:387,_RNvMs_NtCsa6QFEuJDwzK_9flexorama9anthropicNtB4_15AnthropicClient19try_endpoint_stream
FN:215,_RNvMs_NtCsa6QFEuJDwzK_9flexorama9anthropicNtB4_15AnthropicClient21create_message_stream
FN:140,_RNvMs_NtCsa6QFEuJDwzK_9flexorama9anthropicNtB4_15AnthropicClient3new
FN:289,_RNCNCNvMs_NtCsa6QFEuJDwzK_9flexorama9anthropicNtB8_15AnthropicClient12try_endpoint00Ba_
FN:368,_RNCNCNvMs_NtCsa6QFEuJDwzK_9flexorama9anthropicNtB8_15AnthropicClient12try_endpoint0s0_0Ba_
FN:369,_RNCNCNvMs_NtCsa6QFEuJDwzK_9flexorama9anthropicNtB8_15AnthropicClient12try_endpoint0s1_0Ba_
FN:367,_RNCNCNvMs_NtCsa6QFEuJDwzK_9flexorama9anthropicNtB8_15AnthropicClient12try_endpoint0s_0Ba_
FN:406,_RNCNCNvMs_NtCsa6QFEuJDwzK_9flexorama9anthropicNtB8_15AnthropicClient19try_endpoint_stream00Ba_
FN:281,_RNCNvMs_NtCsa6QFEuJDwzK_9flexorama9anthropicNtB6_15AnthropicClient12try_endpoint0B8_
FN:171,_RNCNvMs_NtCsa6QFEuJDwzK_9flexorama9anthropicNtB6_15AnthropicClient14create_message0B8_
FN:398,_RNCNvMs_NtCsa6QFEuJDwzK_9flexorama9anthropicNtB6_15AnthropicClient19try_endpoint_stream0B8_
FN:225,_RNCNvMs_NtCsa6QFEuJDwzK_9flexorama9anthropicNtB6_15AnthropicClient21create_message_stream0B8_
FNDA:4,_RNvMNtCsa6QFEuJDwzK_9flexorama9anthropicNtB2_12ContentBlock11tool_result
FNDA:91,_RNvMNtCsa6QFEuJDwzK_9flexorama9anthropicNtB2_12ContentBlock4text
FNDA:5,_RNvMNtCsa6QFEuJDwzK_9flexorama9anthropicNtB2_12ContentBlock8tool_use
FNDA:2,_RNvMs_NtCsa6QFEuJDwzK_9flexorama9anthropicNtB4_15AnthropicClient12try_endpoint
FNDA:2,_RNvMs_NtCsa6QFEuJDwzK_9flexorama9anthropicNtB4_15AnthropicClient14create_message
FNDA:4,_RNvMs_NtCsa6QFEuJDwzK_9flexorama9anthropicNtB4_15AnthropicClient19endpoint_candidates
FNDA:2,_RNvMs_NtCsa6QFEuJDwzK_9flexorama9anthropicNtB4_15AnthropicClient19try_endpoint_stream
FNDA:2,_RNvMs_NtCsa6QFEuJDwzK_9flexorama9anthropicNtB4_15AnthropicClient21create_message_stream
FNDA:116,_RNvMs_NtCsa6QFEuJDwzK_9flexorama9anthropicNtB4_15AnthropicClient3new
FNDA:0,_RNCNCNvMs_NtCsa6QFEuJDwzK_9flexorama9anthropicNtB8_15AnthropicClient12try_endpoint00Ba_
FNDA:0,_RNCNCNvMs_NtCsa6QFEuJDwzK_9flexorama9anthropicNtB8_15AnthropicClient12try_endpoint0s0_0Ba_
FNDA:0,_RNCNCNvMs_NtCsa6QFEuJDwzK_9flexorama9anthropicNtB8_15AnthropicClient12try_endpoint0s1_0Ba_
FNDA:0,_RNCNCNvMs_NtCsa6QFEuJDwzK_9flexorama9anthropicNtB8_15AnthropicClient12try_endpoint0s_0Ba_
FNDA:0,_RNCNCNvMs_NtCsa6QFEuJDwzK_9flexorama9anthropicNtB8_15AnthropicClient19try_endpoint_stream00Ba_
FNDA:2,_RNCNvMs_NtCsa6QFEuJDwzK_9flexorama9anthropicNtB6_15AnthropicClient12try_endpoint0B8_
FNDA:2,_RNCNvMs_NtCsa6QFEuJDwzK_9flexorama9anthropicNtB6_15AnthropicClient14create_message0B8_
FNDA:2,_RNCNvMs_NtCsa6QFEuJDwzK_9flexorama9anthropicNtB6_15AnthropicClient19try_endpoint_stream0B8_
FNDA:2,_RNCNvMs_NtCsa6QFEuJDwzK_9flexorama9anthropicNtB6_15AnthropicClient21create_message_stream0B8_
FNF:18
FNH:13
DA:41,91
DA:42,91
DA:43,91
DA:44,91
DA:45,91
DA:46,91
DA:47,91
DA:48,91
DA:49,91
DA:50,91
DA:51,91
DA:52,91
DA:53,91
DA:55,5
DA:56,5
DA:57,5
DA:58,5
DA:59,5
DA:60,5
DA:61,5
DA:62,5
DA:63,5
DA:64,5
DA:65,5
DA:66,5
DA:67,5
DA:69,4
DA:70,4
DA:71,4
DA:72,4
DA:73,4
DA:74,4
DA:75,4
DA:76,4
DA:77,4
DA:78,4
DA:79,4
DA:80,4
DA:81,4
DA:140,116
DA:141,116
DA:142,116
DA:143,116
DA:144,116
DA:145,116
DA:146,116
DA:148,4
DA:149,4
DA:150,4
DA:152,4
DA:153,0
DA:154,4
DA:155,4
DA:156,4
DA:158,4
DA:159,4
DA:160,4
DA:162,2
DA:163,2
DA:164,2
DA:165,2
DA:166,2
DA:167,2
DA:168,2
DA:169,2
DA:170,2
DA:171,2
DA:173,2
DA:175,2
DA:176,2
DA:177,2
DA:178,2
DA:179,2
DA:180,2
DA:181,2
DA:182,2
DA:183,2
DA:184,2
DA:185,2
DA:187,2
DA:189,2
DA:190,2
DA:194,0
DA:200,0
DA:201,0
DA:202,0
DA:203,0
DA:204,0
DA:205,0
DA:206,0
DA:207,0
DA:208,0
DA:209,0
DA:210,0
DA:211,0
DA:212,0
DA:213,2
DA:215,2
DA:216,2
DA:217,2
DA:218,2
DA:219,2
DA:220,2
DA:221,2
DA:222,2
DA:223,2
DA:224,2
DA:225,2
DA:227,2
DA:229,2
DA:230,2
DA:231,2
DA:232,2
DA:233,2
DA:234,2
DA:235,2
DA:236,2
DA:237,2
DA:238,2
DA:239,2
DA:240,2
DA:242,2
DA:244,2
DA:245,2
DA:249,0
DA:255,0
DA:256,0
DA:257,0
DA:258,0
DA:259,0
DA:260,0
DA:261,0
DA:262,0
DA:263,0
DA:264,0
DA:265,0
DA:266,0
DA:267,0
DA:268,0
DA:269,2
DA:271,2
DA:272,2
DA:273,2
DA:274,2
DA:275,2
DA:276,2
DA:277,2
DA:278,2
DA:279,2
DA:280,2
DA:281,2
DA:282,2
DA:283,2
DA:286,0
DA:287,0
DA:288,0
DA:289,0
DA:290,0
DA:291,0
DA:292,0
DA:293,0
DA:297,2
DA:298,2
DA:299,2
DA:300,2
DA:301,2
DA:302,2
DA:303,2
DA:304,2
DA:305,2
DA:308,2
DA:309,2
DA:310,2
DA:311,2
DA:312,0
DA:313,2
DA:316,2
DA:317,0
DA:318,2
DA:320,2
DA:321,2
DA:322,2
DA:323,2
DA:324,2
DA:325,2
DA:326,2
DA:327,2
DA:328,2
DA:330,2
DA:331,2
DA:332,0
DA:333,0
DA:334,0
DA:335,0
DA:336,0
DA:337,0
DA:338,0
DA:339,0
DA:340,2
DA:343,2
DA:346,2
DA:347,2
DA:350,2
DA:351,2
DA:352,2
DA:353,2
DA:354,0
DA:355,0
DA:358,2
DA:359,2
DA:361,0
DA:363,0
DA:364,0
DA:366,0
DA:367,0
DA:368,0
DA:369,0
DA:371,0
DA:372,0
DA:373,0
DA:374,0
DA:376,0
DA:377,0
DA:378,0
DA:379,0
DA:381,0
DA:385,2
DA:387,2
DA:388,2
DA:389,2
DA:390,2
DA:391,2
DA:392,2
DA:393,2
DA:394,2
DA:395,2
DA:396,2
DA:397,2
DA:398,2
DA:399,2
DA:400,2
DA:403,0
DA:404,0
DA:405,0
DA:406,0
DA:407,0
DA:408,0
DA:409,0
DA:410,0
DA:414,2
DA:415,2
DA:416,2
DA:417,2
DA:418,2
DA:419,2
DA:420,2
DA:421,2
DA:422,2
DA:425,2
DA:426,2
DA:427,2
DA:428,0
DA:429,2
DA:432,2
DA:433,0
DA:434,2
DA:436,2
DA:437,2
DA:438,2
DA:439,2
DA:440,2
DA:441,2
DA:442,2
DA:443,2
DA:444,2
DA:446,2
DA:447,2
DA:448,0
DA:449,0
DA:450,0
DA:451,0
DA:452,0
DA:453,0
DA:454,0
DA:455,0
DA:456,2
DA:459,2
DA:460,2
DA:461,2
DA:462,2
DA:463,2
DA:465,2
DA:467,4
DA:469,2
DA:470,0
DA:471,2
DA:473,2
DA:474,2
DA:475,2
DA:476,2
DA:477,2
DA:480,10
DA:481,10
DA:482,10
DA:483,10
DA:485,10
DA:487,10
DA:488,2
DA:489,8
DA:491,8
DA:492,8
DA:493,0
DA:496,8
DA:497,8
DA:498,2
DA:499,2
DA:500,2
DA:501,0
DA:504,2
DA:505,2
DA:506,2
DA:507,2
DA:508,0
DA:509,0
DA:510,0
DA:513,0
DA:516,0
DA:517,0
DA:522,0
DA:524,0
DA:525,0
DA:526,0
DA:527,0
DA:528,0
DA:529,0
DA:530,0
DA:531,0
DA:532,0
DA:533,0
DA:534,0
DA:535,0
DA:536,0
DA:537,0
DA:538,0
DA:539,0
DA:540,0
DA:541,0
DA:544,0
DA:545,0
DA:550,0
DA:551,0
DA:553,6
DA:554,2
DA:555,2
DA:556,2
DA:558,0
DA:559,2
DA:560,2
DA:561,2
DA:562,2
DA:563,2
DA:564,0
DA:565,0
DA:568,0
DA:569,0
DA:572,0
DA:573,0
DA:575,0
DA:576,0
DA:579,0
DA:580,0
DA:581,0
DA:584,0
DA:585,0
DA:588,0
DA:589,0
DA:592,0
DA:593,0
DA:595,0
DA:596,0
DA:597,0
DA:599,4
DA:600,2
DA:602,0
DA:605,0
DA:606,0
DA:608,0
DA:609,0
DA:610,0
DA:611,0
DA:612,0
DA:615,0
DA:617,0
DA:618,0
DA:622,0
DA:623,0
DA:624,0
DA:625,2
DA:626,2
DA:627,2
DA:628,2
DA:629,2
DA:630,2
DA:632,2
DA:633,2
DA:636,0
DA:640,8
DA:641,0
DA:642,8
DA:643,0
DA:645,8
DA:647,0
DA:650,0
DA:652,0
DA:653,0
DA:659,2
DA:660,2
DA:661,2
DA:662,2
DA:663,2
BRF:0
BRH:0
LF:427
LH:266
end_of_record
SF:/home/user/flexorama/src/autocomplete.rs
FN:99,_RNvNtNtCsa6QFEuJDwzK_9flexorama12autocomplete5testss_23test_at_command_ignored
FN:61,_RNvNtNtCsa6QFEuJDwzK_9flexorama12autocomplete5testss_24test_multiple_at_symbols
FN:51,_RNvNtNtCsa6QFEuJDwzK_9flexorama12autocomplete5testss_29test_no_completion_without_at
FN:110,_RNvNtNtCsa6QFEuJDwzK_9flexorama12autocomplete5testss_29test_parent_traversal_blocked
FN:12,_RNvNtNtCsa6QFEuJDwzK_9flexorama12autocomplete5testss_30test_file_completion_in_middle
FN:39,_RNvNtNtCsa6QFEuJDwzK_9flexorama12autocomplete5testss_33test_file_completion_at_beginning
FN:76,_RNvNtNtCsa6QFEuJDwzK_9flexorama12autocomplete5testss_35test_command_completion_still_works
FN:25,_RNvNtNtCsa6QFEuJDwzK_9flexorama12autocomplete5testss_36test_file_completion_with_text_after
FN:88,_RNvNtNtCsa6QFEuJDwzK_9flexorama12autocomplete5testss_36test_no_command_completion_in_middle
FN:289,_RNCNvNtCsa6QFEuJDwzK_9flexorama12autocomplete18complete_file_path0B5_
FN:295,_RNCNvNtCsa6QFEuJDwzK_9flexorama12autocomplete18complete_file_paths0_0B5_
FN:290,_RNCNvNtCsa6QFEuJDwzK_9flexorama12autocomplete18complete_file_paths_0B5_
FN:120,_RNvNtCsa6QFEuJDwzK_9flexorama12autocomplete14get_completion
FN:276,_RNvNtCsa6QFEuJDwzK_9flexorama12autocomplete18complete_file_path
FN:335,_RNvNtCsa6QFEuJDwzK_9flexorama12autocomplete18find_common_prefix
FN:270,_RNvNtCsa6QFEuJDwzK_9flexorama12autocomplete18resolve_search_dir
FN:228,_RNvNtCsa6QFEuJDwzK_9flexorama12autocomplete21check_file_completion
FN:354,_RNvNtCsa6QFEuJDwzK_9flexorama12autocomplete21handle_tab_completion
FNDA:1,_RNvNtNtCsa6QFEuJDwzK_9flexorama12autocomplete5testss_23test_at_command_ignored
FNDA:1,_RNvNtNtCsa6QFEuJDwzK_9flexorama12autocomplete5testss_24test_multiple_at_symbols
FNDA:1,_RNvNtNtCsa6QFEuJDwzK_9flexorama12autocomplete5testss_29test_no_completion_without_at
FNDA:1,_RNvNtNtCsa6QFEuJDwzK_9flexorama12autocomplete5testss_29test_parent_traversal_blocked
FNDA:1,_RNvNtNtCsa6QFEuJDwzK_9flexorama12autocomplete5testss_30test_file_completion_in_middle
FNDA:1,_RNvNtNtCsa6QFEuJDwzK_9flexorama12autocomplete5testss_33test_file_completion_at_beginning
FNDA:1,_RNvNtNtCsa6QFEuJDwzK_9flexorama12autocomplete5testss_35test_command_completion_still_works
FNDA:1,_RNvNtNtCsa6QFEuJDwzK_9flexorama12autocomplete5testss_36test_file_completion_with_text_after
FNDA:1,_RNvNtNtCsa6QFEuJDwzK_9flexorama12autocomplete5testss_36test_no_command_completion_in_middle
FNDA:60,_RNCNvNtCsa6QFEuJDwzK_9flexorama12autocomplete18complete_file_path0B5_
FNDA:4,_RNCNvNtCsa6QFEuJDwzK_9flexorama12autocomplete18complete_file_paths0_0B5_
FNDA:60,_RNCNvNtCsa6QFEuJDwzK_9flexorama12autocomplete18complete_file_paths_0B5_
FNDA:9,_RNvNtCsa6QFEuJDwzK_9flexorama12autocomplete14get_completion
FNDA:5,_RNvNtCsa6QFEuJDwzK_9flexorama12autocomplete18complete_file_path
FNDA:0,_RNvNtCsa6QFEuJDwzK_9flexorama12autocomplete18find_common_prefix
FNDA:5,_RNvNtCsa6QFEuJDwzK_9flexorama12autocomplete18resolve_search_dir
FNDA:9,_RNvNtCsa6QFEuJDwzK_9flexorama12autocomplete21check_file_completion
FNDA:0,_RNvNtCsa6QFEuJDwzK_9flexorama12autocomplete21handle_tab_completion
FNF:18
FNH:16
DA:12,1
DA:14,1
DA:15,1
DA:16,1
DA:19,1
DA:20,1
DA:21,1
DA:22,1
DA:25,1
DA:27,1
DA:28,1
DA:29,1
DA:32,1
DA:33,1
DA:34,1
DA:35,1
DA:36,1
DA:39,1
DA:41,1
DA:42,1
DA:43,1
DA:45,1
DA:46,1
DA:47,1
DA:48,1
DA:51,1
DA:53,1
DA:54,1
DA:55,1
DA:57,1
DA:58,1
DA:61,1
DA:63,1
DA:64,1
DA:65,1
DA:68,1
DA:69,1
DA:70,1
DA:72,1
DA:73,1
DA:76,1
DA:78,1
DA:79,1
DA:80,1
DA:82,1
DA:83,1
DA:84,1
DA:85,1
DA:88,1
DA:90,1
DA:91,1
DA:92,1
DA:95,1
DA:96,1
DA:99,1
DA:101,1
DA:102,1
DA:103,1
DA:106,1
DA:107,1
DA:110,1
DA:111,1
DA:112,1
DA:113,1
DA:115,1
DA:116,1
DA:120,9
DA:121,9
DA:124,9
DA:126,9
DA:127,9
DA:128,9
DA:129,9
DA:130,9
DA:131,9
DA:132,9
DA:133,9
DA:134,9
DA:135,9
DA:136,9
DA:137,9
DA:141,9
DA:142,4
DA:143,5
DA:146,5
DA:147,1
DA:148,1
DA:149,1
DA:150,0
DA:154,0
DA:155,0
DA:156,0
DA:158,0
DA:159,0
DA:160,0
DA:161,0
DA:162,0
DA:163,0
DA:164,0
DA:165,0
DA:166,0
DA:167,0
DA:170,0
DA:171,0
DA:172,0
DA:173,0
DA:175,0
DA:178,0
DA:179,0
DA:180,0
DA:182,0
DA:183,0
DA:184,0
DA:185,0
DA:186,0
DA:187,0
DA:188,0
DA:189,0
DA:190,0
DA:191,0
DA:192,0
DA:195,0
DA:196,0
DA:197,0
DA:198,0
DA:200,0
DA:202,0
DA:203,0
DA:204,0
DA:206,0
DA:207,0
DA:208,0
DA:209,0
DA:210,0
DA:211,0
DA:212,0
DA:213,0
DA:216,0
DA:217,0
DA:218,0
DA:219,0
DA:221,0
DA:222,4
DA:224,4
DA:225,9
DA:228,9
DA:230,9
DA:232,9
DA:234,6
DA:235,6
DA:236,5
DA:238,1
DA:239,5
DA:242,5
DA:245,5
DA:246,5
DA:247,5
DA:248,5
DA:251,5
DA:253,4
DA:254,4
DA:255,4
DA:258,4
DA:259,4
DA:260,4
DA:261,4
DA:263,1
DA:266,3
DA:268,9
DA:270,5
DA:271,5
DA:272,5
DA:273,5
DA:276,5
DA:277,5
DA:278,1
DA:279,4
DA:280,0
DA:282,4
DA:285,5
DA:287,4
DA:288,4
DA:289,60
DA:290,60
DA:291,60
DA:292,60
DA:293,60
DA:294,60
DA:295,4
DA:296,4
DA:297,4
DA:298,4
DA:300,0
DA:302,4
DA:303,4
DA:305,4
DA:307,4
DA:308,4
DA:310,4
DA:311,4
DA:313,0
DA:315,4
DA:318,0
DA:319,0
DA:320,0
DA:322,0
DA:324,0
DA:327,0
DA:330,0
DA:332,5
DA:335,0
DA:336,0
DA:337,0
DA:338,0
DA:340,0
DA:341,0
DA:343,0
DA:344,0
DA:345,0
DA:346,0
DA:347,0
DA:350,0
DA:351,0
DA:354,0
DA:355,0
DA:357,0
DA:358,0
DA:359,0
DA:360,0
DA:361,0
DA:362,0
DA:363,0
DA:364,0
DA:365,0
DA:366,0
DA:367,0
DA:369,0
DA:371,0
DA:373,0
BRF:0
BRH:0
LF:242
LH:149
end_of_record
SF:/home/user/flexorama/src/cli.rs
FN:117,_RNvNtNtCsa6QFEuJDwzK_9flexorama3cli5testss_14test_cli_flags
FN:134,_RNvNtNtCsa6QFEuJDwzK_9flexorama3cli5testss_17test_cli_web_mode
FN:154,_RNvNtNtCsa6QFEuJDwzK_9flexorama3cli5testss_19test_cli_verify_app
FN:148,_RNvNtNtCsa6QFEuJDwzK_9flexorama3cli5testss_19test_cli_with_model
FN:92,_RNvNtNtCsa6QFEuJDwzK_9flexorama3cli5testss_21test_cli_with_api_key
FN:86,_RNvNtNtCsa6QFEuJDwzK_9flexorama3cli5testss_21test_cli_with_message
FN:67,_RNvNtNtCsa6QFEuJDwzK_9flexorama3cli5testss_23test_cli_default_values
FN:142,_RNvNtNtCsa6QFEuJDwzK_9flexorama3cli5testss_25test_cli_with_config_file
FN:98,_RNvNtNtCsa6QFEuJDwzK_9flexorama3cli5testss_27test_cli_with_context_files
FN:107,_RNvNtNtCsa6QFEuJDwzK_9flexorama3cli5testss_27test_cli_with_system_prompt
FN:160,_RNvNtNtCsa6QFEuJDwzK_9flexorama3cli5testss_29test_cli_long_and_short_flags
FNDA:1,_RNvNtNtCsa6QFEuJDwzK_9flexorama3cli5testss_14test_cli_flags
FNDA:1,_RNvNtNtCsa6QFEuJDwzK_9flexorama3cli5testss_17test_cli_web_mode
FNDA:1,_RNvNtNtCsa6QFEuJDwzK_9flexorama3cli5testss_19test_cli_verify_app
FNDA:1,_RNvNtNtCsa6QFEuJDwzK_9flexorama3cli5testss_19test_cli_with_model
FNDA:1,_RNvNtNtCsa6QFEuJDwzK_9flexorama3cli5testss_21test_cli_with_api_key
FNDA:1,_RNvNtNtCsa6QFEuJDwzK_9flexorama3cli5testss_21test_cli_with_message
FNDA:1,_RNvNtNtCsa6QFEuJDwzK_9flexorama3cli5testss_23test_cli_default_values
FNDA:1,_RNvNtNtCsa6QFEuJDwzK_9flexorama3cli5testss_25test_cli_with_config_file
FNDA:1,_RNvNtNtCsa6QFEuJDwzK_9flexorama3cli5testss_27test_cli_with_context_files
FNDA:1,_RNvNtNtCsa6QFEuJDwzK_9flexorama3cli5testss_27test_cli_with_system_prompt
FNDA:1,_RNvNtNtCsa6QFEuJDwzK_9flexorama3cli5testss_29test_cli_long_and_short_flags
FNF:11
FNH:11
DA:67,1
DA:68,1
DA:70,1
DA:71,1
DA:72,1
DA:73,1
DA:74,1
DA:75,1
DA:76,1
DA:77,1
DA:78,1
DA:79,1
DA:80,1
DA:81,1
DA:82,1
DA:83,1
DA:86,1
DA:87,1
DA:88,1
DA:89,1
DA:92,1
DA:93,1
DA:94,1
DA:95,1
DA:98,1
DA:99,1
DA:100,1
DA:101,1
DA:102,1
DA:103,1
DA:104,1
DA:107,1
DA:108,1
DA:109,1
DA:110,1
DA:112,1
DA:114,1
DA:117,1
DA:118,1
DA:120,1
DA:121,1
DA:122,1
DA:123,1
DA:125,1
DA:127,1
DA:128,1
DA:129,1
DA:130,1
DA:131,1
DA:134,1
DA:135,1
DA:137,1
DA:138,1
DA:139,1
DA:142,1
DA:143,1
DA:144,1
DA:145,1
DA:148,1
DA:149,1
DA:150,1
DA:151,1
DA:154,1
DA:156,1
DA:157,1
DA:160,1
DA:161,1
DA:163,1
DA:164,1
DA:165,1
DA:166,1
DA:167,1
DA:168,1
DA:169,1
DA:170,1
DA:171,1
DA:172,1
DA:174,1
DA:176,1
DA:178,1
DA:179,1
DA:180,1
DA:181,1
DA:182,1
DA:183,1
DA:184,1
DA:185,1
DA:186,1
DA:187,1
DA:189,1
DA:191,1
DA:192,1
DA:193,1
DA:194,1
DA:195,1
DA:196,1
BRF:0
BRH:0
LF:96
LH:96
end_of_record
SF:/home/user/flexorama/src/commands.rs
FN:2429,_RNvNtNtCsa6QFEuJDwzK_9flexorama8commands5testss_19test_create_spinner
FN:2435,_RNvNtNtCsa6QFEuJDwzK_9flexorama8commands5testss_22test_print_usage_stats
FN:2058,_RNvNtNtCsa6QFEuJDwzK_9flexorama8commands5testss_24test_truncate_line_empty
FN:2072,_RNvNtNtCsa6QFEuJDwzK_9flexorama8commands5testss_25test_format_resume_option
FN:2113,_RNvNtNtCsa6QFEuJDwzK_9flexorama8commands5testss_26test_truncate_line_unicode
FN:2299,_RNvNtNtCsa6QFEuJDwzK_9flexorama8commands5testss_28test_handle_mcp_command_list
FN:2043,_RNvNtNtCsa6QFEuJDwzK_9flexorama8commands5testss_28test_truncate_line_long_line
FN:2307,_RNvNtNtCsa6QFEuJDwzK_9flexorama8commands5testss_29test_handle_mcp_command_tools
FN:2036,_RNvNtNtCsa6QFEuJDwzK_9flexorama8commands5testss_29test_truncate_line_short_line
FN:2166,_RNvNtNtCsa6QFEuJDwzK_9flexorama8commands5testss_30test_handle_agent_command_list
FN:2276,_RNvNtNtCsa6QFEuJDwzK_9flexorama8commands5testss_30test_handle_skill_command_list
FN:2178,_RNvNtNtCsa6QFEuJDwzK_9flexorama8commands5testss_30test_handle_slash_command_help
FN:2122,_RNvNtNtCsa6QFEuJDwzK_9flexorama8commands5testss_30test_truncate_line_single_char
FN:2315,_RNvNtNtCsa6QFEuJDwzK_9flexorama8commands5testss_31test_handle_mcp_command_no_args
FN:2129,_RNvNtNtCsa6QFEuJDwzK_9flexorama8commands5testss_31test_handle_shell_command_empty
FN:2241,_RNvNtNtCsa6QFEuJDwzK_9flexorama8commands5testss_31test_handle_slash_command_clear
FN:2192,_RNvNtNtCsa6QFEuJDwzK_9flexorama8commands5testss_31test_handle_slash_command_stats
FN:2206,_RNvNtNtCsa6QFEuJDwzK_9flexorama8commands5testss_31test_handle_slash_command_usage
FN:2051,_RNvNtNtCsa6QFEuJDwzK_9flexorama8commands5testss_31test_truncate_line_exact_length
FN:2065,_RNvNtNtCsa6QFEuJDwzK_9flexorama8commands5testss_32test_build_message_preview_empty
FN:2379,_RNvNtNtCsa6QFEuJDwzK_9flexorama8commands5testss_32test_truncate_line_with_newlines
FN:2153,_RNvNtNtCsa6QFEuJDwzK_9flexorama8commands5testss_33test_handle_agent_command_no_args
FN:2287,_RNvNtNtCsa6QFEuJDwzK_9flexorama8commands5testss_33test_handle_skill_command_no_args
FN:2220,_RNvNtNtCsa6QFEuJDwzK_9flexorama8commands5testss_33test_handle_slash_command_context
FN:2348,_RNvNtNtCsa6QFEuJDwzK_9flexorama8commands5testss_34test_handle_search_command_no_args
FN:2415,_RNvNtNtCsa6QFEuJDwzK_9flexorama8commands5testss_36test_build_message_preview_multiline
FN:2255,_RNvNtNtCsa6QFEuJDwzK_9flexorama8commands5testss_37test_handle_slash_command_reset_stats
FN:2386,_RNvNtNtCsa6QFEuJDwzK_9flexorama8commands5testss_37test_truncate_line_boundary_condition
FN:2452,_RNvNtNtCsa6QFEuJDwzK_9flexorama8commands5testss_37test_truncate_line_special_characters
FN:2141,_RNvNtNtCsa6QFEuJDwzK_9flexorama8commands5testss_38test_handle_shell_command_with_command
FN:2459,_RNvNtNtCsa6QFEuJDwzK_9flexorama8commands5testss_38test_truncate_line_mixed_unicode_ascii
FN:2360,_RNvNtNtCsa6QFEuJDwzK_9flexorama8commands5testss_39test_format_resume_option_with_subagent
FN:2324,_RNvNtNtCsa6QFEuJDwzK_9flexorama8commands5testss_39test_handle_permissions_command_no_args
FN:2091,_RNvNtNtCsa6QFEuJDwzK_9flexorama8commands5testss_40test_build_message_preview_with_messages
FN:2395,_RNvNtNtCsa6QFEuJDwzK_9flexorama8commands5testss_42test_build_message_preview_whitespace_only
FN:2336,_RNvNtNtCsa6QFEuJDwzK_9flexorama8commands5testss_44test_handle_file_permissions_command_no_args
FN:2438,_RNCNvNtNtCsa6QFEuJDwzK_9flexorama8commands5testss_22test_print_usage_stats0B7_
FN:2299,_RNCNvNtNtCsa6QFEuJDwzK_9flexorama8commands5testss_28test_handle_mcp_command_list0B7_
FN:2307,_RNCNvNtNtCsa6QFEuJDwzK_9flexorama8commands5testss_29test_handle_mcp_command_tools0B7_
FN:2166,_RNCNvNtNtCsa6QFEuJDwzK_9flexorama8commands5testss_30test_handle_agent_command_list0B7_
FN:2276,_RNCNvNtNtCsa6QFEuJDwzK_9flexorama8commands5testss_30test_handle_skill_command_list0B7_
FN:2178,_RNCNvNtNtCsa6QFEuJDwzK_9flexorama8commands5testss_30test_handle_slash_command_help0B7_
FN:2315,_RNCNvNtNtCsa6QFEuJDwzK_9flexorama8commands5testss_31test_handle_mcp_command_no_args0B7_
FN:2129,_RNCNvNtNtCsa6QFEuJDwzK_9flexorama8commands5testss_31test_handle_shell_command_empty0B7_
FN:2241,_RNCNvNtNtCsa6QFEuJDwzK_9flexorama8commands5testss_31test_handle_slash_command_clear0B7_
FN:2192,_RNCNvNtNtCsa6QFEuJDwzK_9flexorama8commands5testss_31test_handle_slash_command_stats0B7_
FN:2206,_RNCNvNtNtCsa6QFEuJDwzK_9flexorama8commands5testss_31test_handle_slash_command_usage0B7_
FN:2153,_RNCNvNtNtCsa6QFEuJDwzK_9flexorama8commands5testss_33test_handle_agent_command_no_args0B7_
FN:2287,_RNCNvNtNtCsa6QFEuJDwzK_9flexorama8commands5testss_33test_handle_skill_command_no_args0B7_
FN:2220,_RNCNvNtNtCsa6QFEuJDwzK_9flexorama8commands5testss_33test_handle_slash_command_context0B7_
FN:2348,_RNCNvNtNtCsa6QFEuJDwzK_9flexorama8commands5testss_34test_handle_search_command_no_args0B7_
FN:2255,_RNCNvNtNtCsa6QFEuJDwzK_9flexorama8commands5testss_37test_handle_slash_command_reset_stats0B7_
FN:2141,_RNCNvNtNtCsa6QFEuJDwzK_9flexorama8commands5testss_38test_handle_shell_command_with_command0B7_
FN:2324,_RNCNvNtNtCsa6QFEuJDwzK_9flexorama8commands5testss_39test_handle_permissions_command_no_args0B7_
FN:2336,_RNCNvNtNtCsa6QFEuJDwzK_9flexorama8commands5testss_44test_handle_file_permissions_command_no_args0B7_
FN:391,_RNvNtCsa6QFEuJDwzK_9flexorama8commands13truncate_line
FN:1572,_RNvNtCsa6QFEuJDwzK_9flexorama8commands14create_spinner
FN:1545,_RNvNtCsa6QFEuJDwzK_9flexorama8commands17print_usage_stats
FN:1114,_RNvNtCsa6QFEuJDwzK_9flexorama8commands18handle_mcp_command
FN:417,_RNvNtCsa6QFEuJDwzK_9flexorama8commands20format_resume_option
FN:27,_RNvNtCsa6QFEuJDwzK_9flexorama8commands20handle_agent_command
FN:278,_RNvNtCsa6QFEuJDwzK_9flexorama8commands20handle_shell_command
FN:986,_RNvNtCsa6QFEuJDwzK_9flexorama8commands20handle_skill_command
FN:701,_RNvNtCsa6QFEuJDwzK_9flexorama8commands20handle_slash_command
FN:400,_RNvNtCsa6QFEuJDwzK_9flexorama8commands21build_message_preview
FN:565,_RNvNtCsa6QFEuJDwzK_9flexorama8commands21handle_resume_command
FN:630,_RNvNtCsa6QFEuJDwzK_9flexorama8commands21handle_search_command
FN:516,_RNvNtCsa6QFEuJDwzK_9flexorama8commands21select_index_with_tui
FN:468,_RNvNtCsa6QFEuJDwzK_9flexorama8commands25select_conversation_index
FN:1589,_RNvNtCsa6QFEuJDwzK_9flexorama8commands26handle_permissions_command
FN:1819,_RNvNtCsa6QFEuJDwzK_9flexorama8commands26save_permissions_to_config
FN:444,_RNvNtCsa6QFEuJDwzK_9flexorama8commands27build_conversation_previews
FN:323,_RNvNtCsa6QFEuJDwzK_9flexorama8commands29execute_bash_command_directly
FN:1845,_RNvNtCsa6QFEuJDwzK_9flexorama8commands31handle_file_permissions_command
FN:2004,_RNvNtCsa6QFEuJDwzK_9flexorama8commands31save_file_permissions_to_config
FN:1155,_RNCNCNvNtCsa6QFEuJDwzK_9flexorama8commands18handle_mcp_command00B7_
FN:1338,_RNCNCNvNtCsa6QFEuJDwzK_9flexorama8commands18handle_mcp_command0s0_0B7_
FN:1192,_RNCNCNvNtCsa6QFEuJDwzK_9flexorama8commands18handle_mcp_command0s_0B7_
FN:68,_RNCNCNvNtCsa6QFEuJDwzK_9flexorama8commands20handle_agent_command00B7_
FN:88,_RNCNCNvNtCsa6QFEuJDwzK_9flexorama8commands20handle_agent_command0s0_0B7_
FN:115,_RNCNCNvNtCsa6QFEuJDwzK_9flexorama8commands20handle_agent_command0s2_0B7_
FN:226,_RNCNCNvNtCsa6QFEuJDwzK_9flexorama8commands20handle_agent_command0s3_0B7_
FN:177,_RNCNCNvNtCsa6QFEuJDwzK_9flexorama8commands20handle_agent_command0s4_0B7_
FN:83,_RNCNCNvNtCsa6QFEuJDwzK_9flexorama8commands20handle_agent_command0s_0B7_
FN:306,_RNCNCNvNtCsa6QFEuJDwzK_9flexorama8commands20handle_shell_command00B7_
FN:314,_RNCNCNvNtCsa6QFEuJDwzK_9flexorama8commands20handle_shell_command0s_0B7_
FN:1009,_RNCNCNvNtCsa6QFEuJDwzK_9flexorama8commands20handle_skill_command00B7_
FN:732,_RNCNCNvNtCsa6QFEuJDwzK_9flexorama8commands20handle_slash_command00B7_
FN:770,_RNCNCNvNtCsa6QFEuJDwzK_9flexorama8commands20handle_slash_command0s_0B7_
FN:580,_RNCNCNvNtCsa6QFEuJDwzK_9flexorama8commands21handle_resume_command00B7_
FN:604,_RNCNCNvNtCsa6QFEuJDwzK_9flexorama8commands21handle_resume_command0s_0B7_
FN:655,_RNCNCNvNtCsa6QFEuJDwzK_9flexorama8commands21handle_search_command00B7_
FN:679,_RNCNCNvNtCsa6QFEuJDwzK_9flexorama8commands21handle_search_command0s_0B7_
FN:482,_RNCNCNvNtCsa6QFEuJDwzK_9flexorama8commands25select_conversation_index00B7_
FN:450,_RNCNCNvNtCsa6QFEuJDwzK_9flexorama8commands27build_conversation_previews00B7_
FN:327,_RNCNCNvNtCsa6QFEuJDwzK_9flexorama8commands29execute_bash_command_directly00B7_
FN:337,_RNCNCNvNtCsa6QFEuJDwzK_9flexorama8commands29execute_bash_command_directly0s0_0B7_
FN:328,_RNCNCNvNtCsa6QFEuJDwzK_9flexorama8commands29execute_bash_command_directly0s_0B7_
FN:1114,_RNCNvNtCsa6QFEuJDwzK_9flexorama8commands18handle_mcp_command0B5_
FN:32,_RNCNvNtCsa6QFEuJDwzK_9flexorama8commands20handle_agent_command0B5_
FN:278,_RNCNvNtCsa6QFEuJDwzK_9flexorama8commands20handle_shell_command0B5_
FN:986,_RNCNvNtCsa6QFEuJDwzK_9flexorama8commands20handle_skill_command0B5_
FN:708,_RNCNvNtCsa6QFEuJDwzK_9flexorama8commands20handle_slash_command0B5_
FN:408,_RNCNvNtCsa6QFEuJDwzK_9flexorama8commands21build_message_preview0B5_
FN:565,_RNCNvNtCsa6QFEuJDwzK_9flexorama8commands21handle_resume_command0B5_
FN:634,_RNCNvNtCsa6QFEuJDwzK_9flexorama8commands21handle_search_command0B5_
FN:521,_RNCNvNtCsa6QFEuJDwzK_9flexorama8commands21select_index_with_tui0B5_
FN:473,_RNCNvNtCsa6QFEuJDwzK_9flexorama8commands25select_conversation_index0B5_
FN:1589,_RNCNvNtCsa6QFEuJDwzK_9flexorama8commands26handle_permissions_command0B5_
FN:1819,_RNCNvNtCsa6QFEuJDwzK_9flexorama8commands26save_permissions_to_config0B5_
FN:447,_RNCNvNtCsa6QFEuJDwzK_9flexorama8commands27build_conversation_previews0B5_
FN:323,_RNCNvNtCsa6QFEuJDwzK_9flexorama8commands29execute_bash_command_directly0B5_
FN:1845,_RNCNvNtCsa6QFEuJDwzK_9flexorama8commands31handle_file_permissions_command0B5_
FN:2004,_RNCNvNtCsa6QFEuJDwzK_9flexorama8commands31save_file_permissions_to_config0B5_
FNDA:1,_RNvNtNtCsa6QFEuJDwzK_9flexorama8commands5testss_19test_create_spinner
FNDA:1,_RNvNtNtCsa6QFEuJDwzK_9flexorama8commands5testss_22test_print_usage_stats
FNDA:1,_RNvNtNtCsa6QFEuJDwzK_9flexorama8commands5testss_24test_truncate_line_empty
FNDA:1,_RNvNtNtCsa6QFEuJDwzK_9flexorama8commands5testss_25test_format_resume_option
FNDA:1,_RNvNtNtCsa6QFEuJDwzK_9flexorama8commands5testss_26test_truncate_line_unicode
FNDA:1,_RNvNtNtCsa6QFEuJDwzK_9flexorama8commands5testss_28test_handle_mcp_command_list
FNDA:1,_RNvNtNtCsa6QFEuJDwzK_9flexorama8commands5testss_28test_truncate_line_long_line
FNDA:1,_RNvNtNtCsa6QFEuJDwzK_9flexorama8commands5testss_29test_handle_mcp_command_tools
FNDA:1,_RNvNtNtCsa6QFEuJDwzK_9flexorama8commands5testss_29test_truncate_line_short_line
FNDA:1,_RNvNtNtCsa6QFEuJDwzK_9flexorama8commands5testss_30test_handle_agent_command_list
FNDA:1,_RNvNtNtCsa6QFEuJDwzK_9flexorama8commands5testss_30test_handle_skill_command_list
FNDA:1,_RNvNtNtCsa6QFEuJDwzK_9flexorama8commands5testss_30test_handle_slash_command_help
FNDA:1,_RNvNtNtCsa6QFEuJDwzK_9flexorama8commands5testss_30test_truncate_line_single_char
FNDA:1,_RNvNtNtCsa6QFEuJDwzK_9flexorama8commands5testss_31test_handle_mcp_command_no_args
FNDA:1,_RNvNtNtCsa6QFEuJDwzK_9flexorama8commands5testss_31test_handle_shell_command_empty
FNDA:1,_RNvNtNtCsa6QFEuJDwzK_9flexorama8commands5testss_31test_handle_slash_command_clear
FNDA:1,_RNvNtNtCsa6QFEuJDwzK_9flexorama8commands5testss_31test_handle_slash_command_stats
FNDA:1,_RNvNtNtCsa6QFEuJDwzK_9flexorama8commands5testss_31test_handle_slash_command_usage
FNDA:1,_RNvNtNtCsa6QFEuJDwzK_9flexorama8commands5testss_31test_truncate_line_exact_length
FNDA:1,_RNvNtNtCsa6QFEuJDwzK_9flexorama8commands5testss_32test_build_message_preview_empty
FNDA:1,_RNvNtNtCsa6QFEuJDwzK_9flexorama8commands5testss_32test_truncate_line_with_newlines
FNDA:1,_RNvNtNtCsa6QFEuJDwzK_9flexorama8commands5testss_33test_handle_agent_command_no_args
FNDA:1,_RNvNtNtCsa6QFEuJDwzK_9flexorama8commands5testss_33test_handle_skill_command_no_args
FNDA:1,_RNvNtNtCsa6QFEuJDwzK_9flexorama8commands5testss_33test_handle_slash_command_context
FNDA:1,_RNvNtNtCsa6QFEuJDwzK_9flexorama8commands5testss_34test_handle_search_command_no_args
FNDA:1,_RNvNtNtCsa6QFEuJDwzK_9flexorama8commands5testss_36test_build_message_preview_multiline
FNDA:1,_RNvNtNtCsa6QFEuJDwzK_9flexorama8commands5testss_37test_handle_slash_command_reset_stats
FNDA:1,_RNvNtNtCsa6QFEuJDwzK_9flexorama8commands5testss_37test_truncate_line_boundary_condition
FNDA:1,_RNvNtNtCsa6QFEuJDwzK_9flexorama8commands5testss_37test_truncate_line_special_characters
FNDA:1,_RNvNtNtCsa6QFEuJDwzK_9flexorama8commands5testss_38test_handle_shell_command_with_command
FNDA:1,_RNvNtNtCsa6QFEuJDwzK_9flexorama8commands5testss_38test_truncate_line_mixed_unicode_ascii
FNDA:1,_RNvNtNtCsa6QFEuJDwzK_9flexorama8commands5testss_39test_format_resume_option_with_subagent
FNDA:1,_RNvNtNtCsa6QFEuJDwzK_9flexorama8commands5testss_39test_handle_permissions_command_no_args
FNDA:1,_RNvNtNtCsa6QFEuJDwzK_9flexorama8commands5testss_40test_build_message_preview_with_messages
FNDA:1,_RNvNtNtCsa6QFEuJDwzK_9flexorama8commands5testss_42test_build_message_preview_whitespace_only
FNDA:1,_RNvNtNtCsa6QFEuJDwzK_9flexorama8commands5testss_44test_handle_file_permissions_command_no_args
FNDA:1,_RNCNvNtNtCsa6QFEuJDwzK_9flexorama8commands5testss_22test_print_usage_stats0B7_
FNDA:1,_RNCNvNtNtCsa6QFEuJDwzK_9flexorama8commands5testss_28test_handle_mcp_command_list0B7_
FNDA:1,_RNCNvNtNtCsa6QFEuJDwzK_9flexorama8commands5testss_29test_handle_mcp_command_tools0B7_
FNDA:1,_RNCNvNtNtCsa6QFEuJDwzK_9flexorama8commands5testss_30test_handle_agent_command_list0B7_
FNDA:1,_RNCNvNtNtCsa6QFEuJDwzK_9flexorama8commands5testss_30test_handle_skill_command_list0B7_
FNDA:1,_RNCNvNtNtCsa6QFEuJDwzK_9flexorama8commands5testss_30test_handle_slash_command_help0B7_
FNDA:1,_RNCNvNtNtCsa6QFEuJDwzK_9flexorama8commands5testss_31test_handle_mcp_command_no_args0B7_
FNDA:1,_RNCNvNtNtCsa6QFEuJDwzK_9flexorama8commands5testss_31test_handle_shell_command_empty0B7_
FNDA:1,_RNCNvNtNtCsa6QFEuJDwzK_9flexorama8commands5testss_31test_handle_slash_command_clear0B7_
FNDA:1,_RNCNvNtNtCsa6QFEuJDwzK_9flexorama8commands5testss_31test_handle_slash_command_stats0B7_
FNDA:1,_RNCNvNtNtCsa6QFEuJDwzK_9flexorama8commands5testss_31test_handle_slash_command_usage0B7_
FNDA:1,_RNCNvNtNtCsa6QFEuJDwzK_9flexorama8commands5testss_33test_handle_agent_command_no_args0B7_
FNDA:1,_RNCNvNtNtCsa6QFEuJDwzK_9flexorama8commands5testss_33test_handle_skill_command_no_args0B7_
FNDA:1,_RNCNvNtNtCsa6QFEuJDwzK_9flexorama8commands5testss_33test_handle_slash_command_context0B7_
FNDA:1,_RNCNvNtNtCsa6QFEuJDwzK_9flexorama8commands5testss_34test_handle_search_command_no_args0B7_
FNDA:1,_RNCNvNtNtCsa6QFEuJDwzK_9flexorama8commands5testss_37test_handle_slash_command_reset_stats0B7_
FNDA:1,_RNCNvNtNtCsa6QFEuJDwzK_9flexorama8commands5testss_38test_handle_shell_command_with_command0B7_
FNDA:1,_RNCNvNtNtCsa6QFEuJDwzK_9flexorama8commands5testss_39test_handle_permissions_command_no_args0B7_
FNDA:1,_RNCNvNtNtCsa6QFEuJDwzK_9flexorama8commands5testss_44test_handle_file_permissions_command_no_args0B7_
FNDA:13,_RNvNtCsa6QFEuJDwzK_9flexorama8commands13truncate_line
FNDA:1,_RNvNtCsa6QFEuJDwzK_9flexorama8commands14create_spinner
FNDA:3,_RNvNtCsa6QFEuJDwzK_9flexorama8commands17print_usage_stats
FNDA:3,_RNvNtCsa6QFEuJDwzK_9flexorama8commands18handle_mcp_command
FNDA:2,_RNvNtCsa6QFEuJDwzK_9flexorama8commands20format_resume_option
FNDA:2,_RNvNtCsa6QFEuJDwzK_9flexorama8commands20handle_agent_command
FNDA:2,_RNvNtCsa6QFEuJDwzK_9flexorama8commands20handle_shell_command
FNDA:2,_RNvNtCsa6QFEuJDwzK_9flexorama8commands20handle_skill_command
FNDA:6,_RNvNtCsa6QFEuJDwzK_9flexorama8commands20handle_slash_command
FNDA:4,_RNvNtCsa6QFEuJDwzK_9flexorama8commands21build_message_preview
FNDA:0,_RNvNtCsa6QFEuJDwzK_9flexorama8commands21handle_resume_command
FNDA:1,_RNvNtCsa6QFEuJDwzK_9flexorama8commands21handle_search_command
FNDA:0,_RNvNtCsa6QFEuJDwzK_9flexorama8commands21select_index_with_tui
FNDA:0,_RNvNtCsa6QFEuJDwzK_9flexorama8commands25select_conversation_index
FNDA:1,_RNvNtCsa6QFEuJDwzK_9flexorama8commands26handle_permissions_command
FNDA:0,_RNvNtCsa6QFEuJDwzK_9flexorama8commands26save_permissions_to_config
FNDA:0,_RNvNtCsa6QFEuJDwzK_9flexorama8commands27build_conversation_previews
FNDA:1,_RNvNtCsa6QFEuJDwzK_9flexorama8commands29execute_bash_command_directly
FNDA:1,_RNvNtCsa6QFEuJDwzK_9flexorama8commands31handle_file_permissions_command
FNDA:0,_RNvNtCsa6QFEuJDwzK_9flexorama8commands31save_file_permissions_to_config
FNDA:0,_RNCNCNvNtCsa6QFEuJDwzK_9flexorama8commands18handle_mcp_command00B7_
FNDA:0,_RNCNCNvNtCsa6QFEuJDwzK_9flexorama8commands18handle_mcp_command0s0_0B7_
FNDA:0,_RNCNCNvNtCsa6QFEuJDwzK_9flexorama8commands18handle_mcp_command0s_0B7_
FNDA:0,_RNCNCNvNtCsa6QFEuJDwzK_9flexorama8commands20handle_agent_command00B7_
FNDA:0,_RNCNCNvNtCsa6QFEuJDwzK_9flexorama8commands20handle_agent_command0s0_0B7_
FNDA:0,_RNCNCNvNtCsa6QFEuJDwzK_9flexorama8commands20handle_agent_command0s2_0B7_
FNDA:0,_RNCNCNvNtCsa6QFEuJDwzK_9flexorama8commands20handle_agent_command0s3_0B7_
FNDA:0,_RNCNCNvNtCsa6QFEuJDwzK_9flexorama8commands20handle_agent_command0s4_0B7_
FNDA:0,_RNCNCNvNtCsa6QFEuJDwzK_9flexorama8commands20handle_agent_command0s_0B7_
FNDA:1,_RNCNCNvNtCsa6QFEuJDwzK_9flexorama8commands20handle_shell_command00B7_
FNDA:0,_RNCNCNvNtCsa6QFEuJDwzK_9flexorama8commands20handle_shell_command0s_0B7_
FNDA:0,_RNCNCNvNtCsa6QFEuJDwzK_9flexorama8commands20handle_skill_command00B7_
FNDA:0,_RNCNCNvNtCsa6QFEuJDwzK_9flexorama8commands20handle_slash_command00B7_
FNDA:0,_RNCNCNvNtCsa6QFEuJDwzK_9flexorama8commands20handle_slash_command0s_0B7_
FNDA:0,_RNCNCNvNtCsa6QFEuJDwzK_9flexorama8commands21handle_resume_command00B7_
FNDA:0,_RNCNCNvNtCsa6QFEuJDwzK_9flexorama8commands21handle_resume_command0s_0B7_
FNDA:0,_RNCNCNvNtCsa6QFEuJDwzK_9flexorama8commands21handle_search_command00B7_
FNDA:0,_RNCNCNvNtCsa6QFEuJDwzK_9flexorama8commands21handle_search_command0s_0B7_
FNDA:0,_RNCNCNvNtCsa6QFEuJDwzK_9flexorama8commands25select_conversation_index00B7_
FNDA:0,_RNCNCNvNtCsa6QFEuJDwzK_9flexorama8commands27build_conversation_previews00B7_
FNDA:1,_RNCNCNvNtCsa6QFEuJDwzK_9flexorama8commands29execute_bash_command_directly00B7_
FNDA:1,_RNCNCNvNtCsa6QFEuJDwzK_9flexorama8commands29execute_bash_command_directly0s0_0B7_
FNDA:0,_RNCNCNvNtCsa6QFEuJDwzK_9flexorama8commands29execute_bash_command_directly0s_0B7_
FNDA:3,_RNCNvNtCsa6QFEuJDwzK_9flexorama8commands18handle_mcp_command0B5_
FNDA:2,_RNCNvNtCsa6QFEuJDwzK_9flexorama8commands20handle_agent_command0B5_
FNDA:2,_RNCNvNtCsa6QFEuJDwzK_9flexorama8commands20handle_shell_command0B5_
FNDA:2,_RNCNvNtCsa6QFEuJDwzK_9flexorama8commands20handle_skill_command0B5_
FNDA:6,_RNCNvNtCsa6QFEuJDwzK_9flexorama8commands20handle_slash_command0B5_
FNDA:4,_RNCNvNtCsa6QFEuJDwzK_9flexorama8commands21build_message_preview0B5_
FNDA:0,_RNCNvNtCsa6QFEuJDwzK_9flexorama8commands21handle_resume_command0B5_
FNDA:1,_RNCNvNtCsa6QFEuJDwzK_9flexorama8commands21handle_search_command0B5_
FNDA:0,_RNCNvNtCsa6QFEuJDwzK_9flexorama8commands21select_index_with_tui0B5_
FNDA:0,_RNCNvNtCsa6QFEuJDwzK_9flexorama8commands25select_conversation_index0B5_
FNDA:1,_RNCNvNtCsa6QFEuJDwzK_9flexorama8commands26handle_permissions_command0B5_
FNDA:0,_RNCNvNtCsa6QFEuJDwzK_9flexorama8commands26save_permissions_to_config0B5_
FNDA:0,_RNCNvNtCsa6QFEuJDwzK_9flexorama8commands27build_conversation_previews0B5_
FNDA:1,_RNCNvNtCsa6QFEuJDwzK_9flexorama8commands29execute_bash_command_directly0B5_
FNDA:1,_RNCNvNtCsa6QFEuJDwzK_9flexorama8commands31handle_file_permissions_command0B5_
FNDA:0,_RNCNvNtCsa6QFEuJDwzK_9flexorama8commands31save_file_permissions_to_config0B5_
FNF:114
FNH:82
DA:27,2
DA:28,2
DA:29,2
DA:30,2
DA:31,2
DA:32,2
DA:33,2
DA:34,2
DA:36,2
DA:38,1
DA:39,1
DA:40,1
DA:41,1
DA:42,1
DA:43,0
DA:44,0
DA:45,0
DA:46,1
DA:47,1
DA:48,1
DA:49,1
DA:51,1
DA:52,1
DA:53,1
DA:54,1
DA:55,1
DA:56,1
DA:57,1
DA:59,1
DA:60,0
DA:62,0
DA:63,0
DA:64,0
DA:65,0
DA:66,0
DA:67,0
DA:68,0
DA:70,0
DA:72,0
DA:75,0
DA:76,0
DA:77,0
DA:78,0
DA:81,0
DA:82,0
DA:83,0
DA:84,0
DA:85,0
DA:86,0
DA:87,0
DA:88,0
DA:89,0
DA:90,0
DA:91,0
DA:94,0
DA:95,0
DA:96,0
DA:97,0
DA:98,0
DA:100,0
DA:101,0
DA:102,0
DA:104,0
DA:105,0
DA:107,0
DA:108,0
DA:111,0
DA:112,0
DA:113,0
DA:114,0
DA:115,0
DA:116,0
DA:118,0
DA:119,0
DA:120,0
DA:122,0
DA:123,0
DA:124,0
DA:125,0
DA:126,0
DA:127,0
DA:128,0
DA:131,0
DA:132,0
DA:133,0
DA:134,0
DA:135,0
DA:137,0
DA:138,0
DA:139,0
DA:142,0
DA:143,0
DA:144,0
DA:145,0
DA:146,0
DA:147,0
DA:148,0
DA:149,0
DA:150,0
DA:151,0
DA:152,0
DA:153,0
DA:154,0
DA:155,0
DA:156,0
DA:157,0
DA:158,0
DA:159,0
DA:160,0
DA:161,0
DA:162,0
DA:165,0
DA:166,0
DA:167,0
DA:170,0
DA:171,0
DA:172,0
DA:173,0
DA:174,0
DA:175,0
DA:176,0
DA:177,0
DA:178,0
DA:179,0
DA:183,0
DA:184,0
DA:185,0
DA:186,0
DA:187,0
DA:188,0
DA:189,0
DA:190,0
DA:192,0
DA:193,0
DA:194,0
DA:195,0
DA:196,0
DA:198,0
DA:199,0
DA:200,0
DA:201,0
DA:204,0
DA:205,0
DA:207,0
DA:208,0
DA:209,0
DA:210,0
DA:211,0
DA:212,0
DA:213,0
DA:214,0
DA:216,0
DA:218,0
DA:219,0
DA:220,0
DA:221,0
DA:222,0
DA:224,0
DA:225,0
DA:226,0
DA:227,0
DA:228,0
DA:229,0
DA:231,0
DA:232,0
DA:233,0
DA:234,0
DA:235,0
DA:246,0
DA:247,0
DA:248,0
DA:249,0
DA:250,0
DA:253,0
DA:254,0
DA:255,0
DA:258,0
DA:259,0
DA:260,0
DA:262,0
DA:263,0
DA:264,0
DA:266,0
DA:267,0
DA:268,0
DA:269,0
DA:270,0
DA:271,0
DA:272,0
DA:275,0
DA:276,2
DA:278,2
DA:280,2
DA:282,2
DA:283,1
DA:284,1
DA:285,1
DA:287,1
DA:288,1
DA:289,1
DA:291,1
DA:294,1
DA:295,1
DA:296,1
DA:297,1
DA:298,1
DA:299,1
DA:300,1
DA:304,1
DA:305,1
DA:306,1
DA:307,1
DA:308,0
DA:309,0
DA:310,1
DA:311,1
DA:312,1
DA:313,1
DA:314,1
DA:315,0
DA:316,0
DA:317,0
DA:319,1
DA:320,2
DA:323,1
DA:324,1
DA:325,1
DA:326,1
DA:327,1
DA:328,1
DA:329,1
DA:331,1
DA:333,1
DA:336,1
DA:337,1
DA:346,1
DA:347,1
DA:348,1
DA:350,1
DA:351,1
DA:353,1
DA:354,1
DA:355,1
DA:357,1
DA:358,0
DA:359,0
DA:360,0
DA:365,1
DA:366,1
DA:367,1
DA:372,1
DA:373,1
DA:374,1
DA:375,1
DA:376,1
DA:378,0
DA:379,0
DA:380,0
DA:381,0
DA:382,0
DA:383,0
DA:384,0
DA:385,0
DA:386,0
DA:387,0
DA:389,1
DA:391,13
DA:392,13
DA:393,13
DA:394,3
DA:396,10
DA:398,13
DA:400,4
DA:401,4
DA:402,1
DA:403,3
DA:406,3
DA:407,3
DA:408,4
DA:409,3
DA:411,3
DA:412,3
DA:414,3
DA:415,4
DA:417,2
DA:418,2
DA:419,2
DA:420,2
DA:421,2
DA:422,2
DA:424,2
DA:425,2
DA:426,1
DA:428,1
DA:431,2
DA:432,2
DA:441,2
DA:442,2
DA:444,0
DA:445,0
DA:446,0
DA:447,0
DA:448,0
DA:449,0
DA:450,0
DA:452,0
DA:454,0
DA:455,0
DA:456,0
DA:457,0
DA:458,0
DA:459,0
DA:460,0
DA:461,0
DA:462,0
DA:465,0
DA:466,0
DA:468,0
DA:469,0
DA:470,0
DA:471,0
DA:472,0
DA:473,0
DA:474,0
DA:475,0
DA:476,0
DA:478,0
DA:479,0
DA:480,0
DA:481,0
DA:482,0
DA:483,0
DA:484,0
DA:485,0
DA:486,0
DA:487,0
DA:488,0
DA:490,0
DA:492,0
DA:493,0
DA:495,0
DA:496,0
DA:498,0
DA:499,0
DA:500,0
DA:502,0
DA:503,0
DA:504,0
DA:507,0
DA:508,0
DA:509,0
DA:511,0
DA:514,0
DA:516,0
DA:517,0
DA:518,0
DA:519,0
DA:520,0
DA:521,0
DA:522,0
DA:523,0
DA:524,0
DA:525,0
DA:526,0
DA:527,0
DA:528,0
DA:532,0
DA:533,0
DA:534,0
DA:535,0
DA:536,0
DA:537,0
DA:538,0
DA:539,0
DA:540,0
DA:541,0
DA:542,0
DA:543,0
DA:544,0
DA:545,0
DA:546,0
DA:550,0
DA:551,0
DA:554,0
DA:555,0
DA:557,0
DA:558,0
DA:559,0
DA:563,0
DA:565,0
DA:566,0
DA:567,0
DA:568,0
DA:569,0
DA:571,0
DA:572,0
DA:574,0
DA:577,0
DA:578,0
DA:579,0
DA:580,0
DA:581,0
DA:582,0
DA:584,0
DA:585,0
DA:586,0
DA:587,0
DA:589,0
DA:590,0
DA:592,0
DA:594,0
DA:595,0
DA:596,0
DA:597,0
DA:599,0
DA:600,0
DA:602,0
DA:603,0
DA:604,0
DA:605,0
DA:607,0
DA:608,0
DA:609,0
DA:610,0
DA:611,0
DA:612,0
DA:613,0
DA:615,0
DA:616,0
DA:617,0
DA:618,0
DA:619,0
DA:620,0
DA:622,0
DA:624,0
DA:625,0
DA:627,0
DA:628,0
DA:630,1
DA:631,1
DA:632,1
DA:633,1
DA:634,1
DA:635,1
DA:636,1
DA:637,1
DA:638,1
DA:640,1
DA:641,0
DA:643,0
DA:644,0
DA:645,0
DA:646,0
DA:647,0
DA:649,0
DA:650,0
DA:651,0
DA:652,0
DA:653,0
DA:654,0
DA:655,0
DA:656,0
DA:658,0
DA:659,0
DA:660,0
DA:661,0
DA:664,0
DA:665,0
DA:667,0
DA:669,0
DA:670,0
DA:671,0
DA:672,0
DA:674,0
DA:675,0
DA:677,0
DA:678,0
DA:679,0
DA:680,0
DA:682,0
DA:683,0
DA:684,0
DA:686,0
DA:687,0
DA:688,0
DA:689,0
DA:690,0
DA:691,0
DA:693,0
DA:695,0
DA:696,0
DA:698,0
DA:699,1
DA:701,6
DA:702,6
DA:703,6
DA:704,6
DA:705,6
DA:706,6
DA:707,6
DA:708,6
DA:709,6
DA:710,6
DA:712,6
DA:713,6
DA:714,1
DA:715,1
DA:717,5
DA:718,2
DA:719,2
DA:721,3
DA:722,1
DA:723,1
DA:725,2
DA:726,0
DA:727,0
DA:729,2
DA:730,0
DA:731,0
DA:732,0
DA:733,0
DA:734,0
DA:735,0
DA:736,0
DA:737,0
DA:738,0
DA:739,0
DA:740,0
DA:741,0
DA:742,0
DA:743,0
DA:744,0
DA:745,0
DA:747,0
DA:748,0
DA:749,0
DA:750,0
DA:751,0
DA:752,0
DA:753,0
DA:754,0
DA:755,0
DA:756,0
DA:759,0
DA:760,0
DA:761,0
DA:762,0
DA:763,0
DA:766,0
DA:767,0
DA:768,0
DA:769,0
DA:770,0
DA:771,0
DA:772,0
DA:773,0
DA:774,0
DA:775,0
DA:777,0
DA:779,0
DA:780,0
DA:781,0
DA:782,0
DA:784,0
DA:785,0
DA:786,0
DA:787,0
DA:788,0
DA:789,0
DA:790,0
DA:791,0
DA:792,0
DA:793,0
DA:797,0
DA:798,0
DA:799,0
DA:800,0
DA:801,0
DA:802,0
DA:803,0
DA:806,0
DA:808,2
DA:809,0
DA:810,0
DA:811,0
DA:813,2
DA:814,0
DA:815,0
DA:817,2
DA:818,1
DA:819,1
DA:820,1
DA:821,1
DA:822,1
DA:823,1
DA:824,1
DA:825,1
DA:826,0
DA:827,0
DA:828,0
DA:830,1
DA:832,1
DA:833,1
DA:834,1
DA:835,1
DA:837,0
DA:838,0
DA:840,0
DA:841,0
DA:842,0
DA:843,0
DA:845,0
DA:846,0
DA:847,0
DA:849,0
DA:850,0
DA:851,0
DA:853,0
DA:855,0
DA:856,0
DA:857,0
DA:858,0
DA:859,0
DA:860,0
DA:861,0
DA:862,0
DA:863,0
DA:866,0
DA:867,0
DA:868,0
DA:869,0
DA:870,0
DA:873,0
DA:874,0
DA:875,0
DA:876,0
DA:877,0
DA:878,0
DA:879,0
DA:880,0
DA:881,0
DA:882,0
DA:883,0
DA:884,0
DA:887,0
DA:888,0
DA:889,0
DA:890,0
DA:891,0
DA:892,0
DA:893,0
DA:894,0
DA:895,0
DA:896,0
DA:897,0
DA:898,0
DA:899,0
DA:900,0
DA:901,0
DA:902,0
DA:903,0
DA:904,0
DA:906,0
DA:907,0
DA:908,0
DA:909,0
DA:912,0
DA:913,0
DA:914,0
DA:915,0
DA:916,0
DA:917,0
DA:919,0
DA:921,0
DA:922,0
DA:923,0
DA:925,0
DA:926,0
DA:927,0
DA:929,0
DA:931,0
DA:932,0
DA:933,0
DA:936,0
DA:937,0
DA:938,0
DA:939,0
DA:940,0
DA:941,0
DA:942,0
DA:943,0
DA:944,0
DA:945,0
DA:946,0
DA:947,0
DA:948,0
DA:949,0
DA:950,0
DA:951,0
DA:952,0
DA:953,0
DA:954,0
DA:955,0
DA:956,0
DA:957,0
DA:958,0
DA:960,0
DA:961,0
DA:962,0
DA:963,0
DA:964,0
DA:965,0
DA:967,0
DA:970,0
DA:971,0
DA:972,0
DA:975,0
DA:977,0
DA:978,0
DA:979,0
DA:984,6
DA:986,2
DA:987,2
DA:988,2
DA:989,2
DA:990,2
DA:992,2
DA:993,2
DA:994,2
DA:995,0
DA:997,0
DA:998,0
DA:999,0
DA:1000,0
DA:1001,0
DA:1002,0
DA:1003,0
DA:1005,0
DA:1006,0
DA:1007,0
DA:1008,0
DA:1009,0
DA:1010,0
DA:1011,0
DA:1012,0
DA:1014,0
DA:1016,0
DA:1017,0
DA:1018,0
DA:1019,0
DA:1020,0
DA:1021,0
DA:1022,0
DA:1023,0
DA:1026,0
DA:1027,0
DA:1028,0
DA:1029,0
DA:1030,0
DA:1032,0
DA:1033,0
DA:1035,0
DA:1036,0
DA:1037,0
DA:1038,0
DA:1039,0
DA:1040,0
DA:1041,0
DA:1043,0
DA:1044,0
DA:1046,0
DA:1047,0
DA:1048,0
DA:1049,0
DA:1050,0
DA:1051,0
DA:1052,0
DA:1053,0
DA:1054,0
DA:1055,0
DA:1056,0
DA:1057,0
DA:1058,0
DA:1059,0
DA:1060,0
DA:1062,0
DA:1063,0
DA:1064,0
DA:1065,0
DA:1066,0
DA:1068,0
DA:1069,0
DA:1070,0
DA:1071,0
DA:1072,0
DA:1074,0
DA:1075,0
DA:1076,0
DA:1078,0
DA:1081,0
DA:1082,0
DA:1083,0
DA:1084,0
DA:1085,0
DA:1087,0
DA:1088,0
DA:1089,0
DA:1090,0
DA:1091,0
DA:1092,0
DA:1093,0
DA:1095,0
DA:1096,0
DA:1097,0
DA:1098,0
DA:1099,0
DA:1100,0
DA:1102,0
DA:1103,0
DA:1104,0
DA:1105,0
DA:1106,0
DA:1107,0
DA:1110,0
DA:1111,2
DA:1114,3
DA:1115,3
DA:1116,1
DA:1117,1
DA:1118,2
DA:1120,2
DA:1121,2
DA:1122,1
DA:1123,1
DA:1124,1
DA:1125,1
DA:1126,1
DA:1127,1
DA:1128,0
DA:1130,0
DA:1131,0
DA:1132,0
DA:1133,0
DA:1134,0
DA:1136,0
DA:1139,0
DA:1141,0
DA:1142,0
DA:1143,0
DA:1144,0
DA:1145,0
DA:1146,0
DA:1147,0
DA:1148,0
DA:1149,0
DA:1151,0
DA:1152,0
DA:1153,0
DA:1154,0
DA:1155,0
DA:1156,0
DA:1157,0
DA:1158,0
DA:1159,0
DA:1160,0
DA:1163,0
DA:1164,0
DA:1165,0
DA:1167,1
DA:1168,0
DA:1169,0
DA:1170,0
DA:1171,0
DA:1173,0
DA:1174,0
DA:1175,0
DA:1176,0
DA:1179,0
DA:1181,0
DA:1182,0
DA:1183,0
DA:1184,0
DA:1188,0
DA:1189,0
DA:1190,0
DA:1191,0
DA:1192,0
DA:1193,0
DA:1194,0
DA:1195,0
DA:1196,0
DA:1197,0
DA:1198,0
DA:1200,0
DA:1201,0
DA:1202,0
DA:1203,0
DA:1204,0
DA:1205,0
DA:1206,0
DA:1207,0
DA:1208,0
DA:1209,0
DA:1210,0
DA:1212,0
DA:1213,0
DA:1214,0
DA:1217,0
DA:1218,0
DA:1219,0
DA:1220,0
DA:1221,0
DA:1222,0
DA:1223,0
DA:1224,0
DA:1225,0
DA:1226,0
DA:1227,0
DA:1228,0
DA:1229,0
DA:1230,0
DA:1233,1
DA:1234,0
DA:1235,0
DA:1236,0
DA:1237,0
DA:1239,0
DA:1240,0
DA:1241,0
DA:1242,0
DA:1243,0
DA:1244,0
DA:1245,0
DA:1246,0
DA:1247,0
DA:1248,0
DA:1249,0
DA:1250,0
DA:1251,0
DA:1252,0
DA:1253,0
DA:1254,0
DA:1257,1
DA:1258,0
DA:1259,0
DA:1260,0
DA:1261,0
DA:1263,0
DA:1264,0
DA:1265,0
DA:1266,0
DA:1267,0
DA:1268,0
DA:1269,0
DA:1270,0
DA:1271,0
DA:1272,0
DA:1273,0
DA:1274,0
DA:1275,0
DA:1276,0
DA:1277,0
DA:1278,0
DA:1281,1
DA:1282,1
DA:1283,1
DA:1284,1
DA:1286,1
DA:1287,1
DA:1288,1
DA:1289,1
DA:1291,1
DA:1292,0
DA:1294,0
DA:1295,0
DA:1296,0
DA:1297,0
DA:1298,0
DA:1299,0
DA:1300,0
DA:1302,0
DA:1303,0
DA:1304,0
DA:1305,0
DA:1306,0
DA:1307,0
DA:1308,0
DA:1310,0
DA:1313,0
DA:1314,0
DA:1315,0
DA:1317,0
DA:1318,0
DA:1319,0
DA:1320,0
DA:1321,0
DA:1323,0
DA:1324,0
DA:1325,0
DA:1326,0
DA:1327,0
DA:1329,0
DA:1330,0
DA:1331,0
DA:1333,0
DA:1334,0
DA:1336,0
DA:1337,0
DA:1338,0
DA:1341,0
DA:1342,0
DA:1343,0
DA:1344,0
DA:1346,0
DA:1347,0
DA:1348,0
DA:1349,0
DA:1350,0
DA:1352,0
DA:1354,0
DA:1355,0
DA:1359,0
DA:1360,0
DA:1361,0
DA:1362,0
DA:1363,0
DA:1365,0
DA:1366,0
DA:1367,0
DA:1368,0
DA:1369,0
DA:1370,0
DA:1371,0
DA:1372,0
DA:1373,0
DA:1374,0
DA:1375,0
DA:1376,0
DA:1377,0
DA:1378,0
DA:1379,0
DA:1380,0
DA:1381,0
DA:1382,0
DA:1383,0
DA:1384,0
DA:1385,0
DA:1387,0
DA:1388,0
DA:1391,0
DA:1392,0
DA:1393,0
DA:1394,0
DA:1396,0
DA:1397,0
DA:1398,0
DA:1399,0
DA:1400,0
DA:1401,0
DA:1402,0
DA:1403,0
DA:1405,0
DA:1406,0
DA:1408,0
DA:1409,0
DA:1410,0
DA:1411,0
DA:1412,0
DA:1413,0
DA:1414,0
DA:1415,0
DA:1416,0
DA:1417,0
DA:1418,0
DA:1419,0
DA:1420,0
DA:1421,0
DA:1422,0
DA:1423,0
DA:1425,0
DA:1426,0
DA:1427,0
DA:1428,0
DA:1429,0
DA:1430,0
DA:1432,0
DA:1433,0
DA:1434,0
DA:1435,0
DA:1436,0
DA:1438,0
DA:1439,0
DA:1440,0
DA:1441,0
DA:1442,0
DA:1443,0
DA:1444,0
DA:1445,0
DA:1446,0
DA:1447,0
DA:1448,0
DA:1449,0
DA:1452,0
DA:1453,0
DA:1454,0
DA:1455,0
DA:1456,0
DA:1457,0
DA:1458,0
DA:1459,0
DA:1460,0
DA:1461,0
DA:1463,0
DA:1464,0
DA:1465,0
DA:1466,0
DA:1467,0
DA:1468,0
DA:1470,0
DA:1471,0
DA:1473,0
DA:1474,0
DA:1477,0
DA:1478,0
DA:1480,0
DA:1483,0
DA:1484,0
DA:1485,0
DA:1486,0
DA:1488,0
DA:1489,0
DA:1490,0
DA:1491,0
DA:1492,0
DA:1495,0
DA:1496,0
DA:1497,0
DA:1498,0
DA:1500,0
DA:1501,0
DA:1502,0
DA:1505,0
DA:1506,0
DA:1507,0
DA:1508,0
DA:1511,0
DA:1512,0
DA:1513,0
DA:1514,0
DA:1515,0
DA:1516,0
DA:1517,0
DA:1518,0
DA:1519,0
DA:1520,0
DA:1521,0
DA:1522,0
DA:1525,0
DA:1526,0
DA:1527,0
DA:1528,0
DA:1529,0
DA:1530,0
DA:1531,0
DA:1533,0
DA:1534,0
DA:1535,0
DA:1536,0
DA:1539,0
DA:1540,3
DA:1545,3
DA:1546,3
DA:1547,3
DA:1548,3
DA:1549,3
DA:1550,3
DA:1551,3
DA:1552,3
DA:1553,3
DA:1554,3
DA:1555,3
DA:1556,3
DA:1558,3
DA:1559,0
DA:1560,0
DA:1561,0
DA:1562,0
DA:1563,0
DA:1564,0
DA:1565,0
DA:1566,0
DA:1567,0
DA:1568,3
DA:1569,3
DA:1572,1
DA:1573,1
DA:1574,0
DA:1575,1
DA:1576,1
DA:1577,1
DA:1578,1
DA:1579,1
DA:1580,1
DA:1581,1
DA:1583,1
DA:1584,1
DA:1585,1
DA:1586,1
DA:1589,1
DA:1592,1
DA:1594,1
DA:1595,1
DA:1596,1
DA:1597,1
DA:1598,0
DA:1600,0
DA:1601,0
DA:1602,0
DA:1603,0
DA:1604,0
DA:1606,0
DA:1607,0
DA:1608,0
DA:1609,0
DA:1610,0
DA:1612,0
DA:1613,0
DA:1614,0
DA:1616,0
DA:1617,0
DA:1618,0
DA:1619,0
DA:1620,0
DA:1621,0
DA:1622,0
DA:1623,0
DA:1624,0
DA:1625,0
DA:1626,0
DA:1627,0
DA:1628,0
DA:1629,0
DA:1632,0
DA:1633,0
DA:1634,0
DA:1635,0
DA:1636,0
DA:1638,0
DA:1639,0
DA:1640,0
DA:1641,0
DA:1642,0
DA:1643,0
DA:1645,0
DA:1646,0
DA:1647,0
DA:1649,0
DA:1650,0
DA:1653,0
DA:1654,0
DA:1655,0
DA:1657,0
DA:1658,0
DA:1659,0
DA:1660,0
DA:1661,0
DA:1663,0
DA:1664,0
DA:1665,0
DA:1666,0
DA:1667,0
DA:1668,0
DA:1670,0
DA:1671,0
DA:1672,0
DA:1674,0
DA:1675,0
DA:1678,0
DA:1679,0
DA:1680,0
DA:1682,0
DA:1683,0
DA:1684,0
DA:1685,0
DA:1686,0
DA:1688,0
DA:1689,0
DA:1691,0
DA:1692,0
DA:1693,0
DA:1695,0
DA:1696,0
DA:1699,0
DA:1700,0
DA:1701,0
DA:1702,0
DA:1703,0
DA:1704,0
DA:1705,0
DA:1706,0
DA:1707,0
DA:1708,0
DA:1710,0
DA:1711,0
DA:1712,0
DA:1713,0
DA:1714,0
DA:1716,0
DA:1717,0
DA:1719,0
DA:1720,0
DA:1721,0
DA:1723,0
DA:1724,0
DA:1727,0
DA:1728,0
DA:1729,0
DA:1730,0
DA:1731,0
DA:1732,0
DA:1733,0
DA:1734,0
DA:1735,0
DA:1736,0
DA:1738,0
DA:1739,0
DA:1740,0
DA:1741,0
DA:1742,0
DA:1743,0
DA:1744,0
DA:1747,0
DA:1748,0
DA:1749,0
DA:1751,0
DA:1752,0
DA:1753,0
DA:1754,0
DA:1755,0
DA:1756,0
DA:1757,0
DA:1758,0
DA:1759,0
DA:1760,0
DA:1764,0
DA:1765,0
DA:1766,0
DA:1768,0
DA:1769,0
DA:1770,0
DA:1771,0
DA:1772,0
DA:1773,0
DA:1774,0
DA:1777,0
DA:1778,0
DA:1779,0
DA:1781,0
DA:1782,0
DA:1783,0
DA:1784,0
DA:1785,0
DA:1786,0
DA:1787,0
DA:1788,0
DA:1791,0
DA:1792,0
DA:1793,0
DA:1795,0
DA:1796,0
DA:1797,0
DA:1798,0
DA:1799,0
DA:1800,0
DA:1801,0
DA:1802,0
DA:1803,0
DA:1804,0
DA:1805,0
DA:1806,0
DA:1807,0
DA:1808,0
DA:1809,0
DA:1810,0
DA:1811,0
DA:1812,0
DA:1815,0
DA:1816,1
DA:1819,0
DA:1823,0
DA:1826,0
DA:1829,0
DA:1832,0
DA:1833,0
DA:1834,0
DA:1835,0
DA:1836,0
DA:1837,0
DA:1838,0
DA:1841,0
DA:1842,0
DA:1845,1
DA:1848,1
DA:1850,1
DA:1851,1
DA:1852,1
DA:1853,1
DA:1854,0
DA:1856,0
DA:1857,0
DA:1858,0
DA:1859,0
DA:1860,0
DA:1862,0
DA:1863,0
DA:1864,0
DA:1865,0
DA:1866,0
DA:1868,0
DA:1869,0
DA:1870,0
DA:1872,0
DA:1873,0
DA:1875,0
DA:1876,0
DA:1877,0
DA:1878,0
DA:1880,0
DA:1881,0
DA:1882,0
DA:1883,0
DA:1884,0
DA:1885,0
DA:1886,0
DA:1887,0
DA:1888,0
DA:1889,0
DA:1890,0
DA:1891,0
DA:1892,0
DA:1893,0
DA:1894,0
DA:1895,0
DA:1896,0
DA:1897,0
DA:1898,0
DA:1899,0
DA:1900,0
DA:1901,0
DA:1902,0
DA:1903,0
DA:1904,0
DA:1907,0
DA:1908,0
DA:1909,0
DA:1910,0
DA:1911,0
DA:1912,0
DA:1913,0
DA:1916,0
DA:1917,0
DA:1918,0
DA:1920,0
DA:1921,0
DA:1922,0
DA:1923,0
DA:1924,0
DA:1925,0
DA:1926,0
DA:1927,0
DA:1928,0
DA:1929,0
DA:1933,0
DA:1934,0
DA:1935,0
DA:1937,0
DA:1938,0
DA:1939,0
DA:1940,0
DA:1941,0
DA:1942,0
DA:1943,0
DA:1946,0
DA:1947,0
DA:1948,0
DA:1950,0
DA:1951,0
DA:1952,0
DA:1953,0
DA:1954,0
DA:1955,0
DA:1956,0
DA:1957,0
DA:1958,0
DA:1959,0
DA:1963,0
DA:1964,0
DA:1965,0
DA:1967,0
DA:1968,0
DA:1969,0
DA:1970,0
DA:1971,0
DA:1972,0
DA:1973,0
DA:1974,0
DA:1977,0
DA:1978,0
DA:1979,0
DA:1980,0
DA:1981,0
DA:1982,0
DA:1983,0
DA:1984,0
DA:1985,0
DA:1986,0
DA:1987,0
DA:1988,0
DA:1989,0
DA:1990,0
DA:1991,0
DA:1992,0
DA:1993,0
DA:1994,0
DA:1995,0
DA:1996,0
DA:1997,0
DA:2000,0
DA:2001,1
DA:2004,0
DA:2008,0
DA:2011,0
DA:2012,0
DA:2013,0
DA:2016,0
DA:2019,0
DA:2020,0
DA:2021,0
DA:2022,0
DA:2023,0
DA:2024,0
DA:2025,0
DA:2028,0
DA:2029,0
DA:2036,1
DA:2037,1
DA:2038,1
DA:2039,1
DA:2040,1
DA:2043,1
DA:2044,1
DA:2045,1
DA:2046,1
DA:2047,1
DA:2048,1
DA:2051,1
DA:2052,1
DA:2053,1
DA:2054,1
DA:2055,1
DA:2058,1
DA:2059,1
DA:2060,1
DA:2061,1
DA:2062,1
DA:2065,1
DA:2066,1
DA:2067,1
DA:2068,1
DA:2069,1
DA:2072,1
DA:2073,1
DA:2074,1
DA:2075,1
DA:2076,1
DA:2077,1
DA:2078,1
DA:2079,1
DA:2080,1
DA:2081,1
DA:2082,1
DA:2083,1
DA:2084,1
DA:2086,1
DA:2087,1
DA:2088,1
DA:2091,1
DA:2092,1
DA:2093,1
DA:2094,1
DA:2095,1
DA:2096,1
DA:2097,1
DA:2098,1
DA:2099,1
DA:2100,1
DA:2101,1
DA:2102,1
DA:2103,1
DA:2104,1
DA:2107,1
DA:2109,1
DA:2110,1
DA:2113,1
DA:2114,1
DA:2115,1
DA:2117,1
DA:2118,1
DA:2119,1
DA:2122,1
DA:2123,1
DA:2124,1
DA:2125,1
DA:2126,1
DA:2129,1
DA:2130,1
DA:2131,1
DA:2132,1
DA:2133,1
DA:2136,1
DA:2137,1
DA:2138,1
DA:2141,1
DA:2142,1
DA:2143,1
DA:2144,1
DA:2145,1
DA:2148,1
DA:2149,1
DA:2150,1
DA:2153,1
DA:2154,1
DA:2155,1
DA:2156,1
DA:2157,1
DA:2158,1
DA:2161,1
DA:2162,1
DA:2163,1
DA:2166,1
DA:2167,1
DA:2168,1
DA:2169,1
DA:2170,1
DA:2171,1
DA:2173,1
DA:2174,1
DA:2175,1
DA:2178,1
DA:2179,1
DA:2180,1
DA:2181,1
DA:2182,1
DA:2183,1
DA:2184,1
DA:2186,1
DA:2187,1
DA:2188,1
DA:2189,1
DA:2192,1
DA:2193,1
DA:2194,1
DA:2195,1
DA:2196,1
DA:2197,1
DA:2198,1
DA:2200,1
DA:2201,1
DA:2202,1
DA:2203,1
DA:2206,1
DA:2207,1
DA:2208,1
DA:2209,1
DA:2210,1
DA:2211,1
DA:2212,1
DA:2214,1
DA:2215,1
DA:2216,1
DA:2217,1
DA:2220,1
DA:2221,1
DA:2222,1
DA:2223,1
DA:2224,1
DA:2225,1
DA:2226,1
DA:2228,1
DA:2229,1
DA:2230,1
DA:2231,1
DA:2232,1
DA:2233,1
DA:2234,1
DA:2235,1
DA:2236,1
DA:2237,1
DA:2238,1
DA:2241,1
DA:2242,1
DA:2243,1
DA:2244,1
DA:2245,1
DA:2246,1
DA:2247,1
DA:2249,1
DA:2250,1
DA:2251,1
DA:2252,1
DA:2255,1
DA:2256,1
DA:2257,1
DA:2258,1
DA:2259,1
DA:2260,1
DA:2261,1
DA:2263,1
DA:2264,1
DA:2265,1
DA:2266,1
DA:2267,1
DA:2268,1
DA:2269,1
DA:2270,1
DA:2271,1
DA:2272,1
DA:2273,1
DA:2276,1
DA:2277,1
DA:2278,1
DA:2279,1
DA:2280,1
DA:2282,1
DA:2283,1
DA:2284,1
DA:2287,1
DA:2288,1
DA:2289,1
DA:2290,1
DA:2291,1
DA:2294,1
DA:2295,1
DA:2296,1
DA:2299,1
DA:2300,1
DA:2302,1
DA:2303,1
DA:2304,1
DA:2307,1
DA:2308,1
DA:2310,1
DA:2311,1
DA:2312,1
DA:2315,1
DA:2316,1
DA:2319,1
DA:2320,1
DA:2321,1
DA:2324,1
DA:2325,1
DA:2326,1
DA:2327,1
DA:2328,1
DA:2331,1
DA:2332,1
DA:2333,1
DA:2336,1
DA:2337,1
DA:2338,1
DA:2339,1
DA:2340,1
DA:2343,1
DA:2344,1
DA:2345,1
DA:2348,1
DA:2349,1
DA:2350,1
DA:2351,1
DA:2352,1
DA:2355,1
DA:2356,1
DA:2357,1
DA:2360,1
DA:2361,1
DA:2362,1
DA:2363,1
DA:2364,1
DA:2365,1
DA:2366,1
DA:2367,1
DA:2368,1
DA:2369,1
DA:2370,1
DA:2371,1
DA:2372,1
DA:2374,1
DA:2375,1
DA:2376,1
DA:2379,1
DA:2380,1
DA:2381,1
DA:2382,1
DA:2383,1
DA:2386,1
DA:2387,1
DA:2388,1
DA:2389,1
DA:2390,1
DA:2391,1
DA:2395,1
DA:2396,1
DA:2397,1
DA:2398,1
DA:2399,1
DA:2400,1
DA:2401,1
DA:2402,1
DA:2403,1
DA:2404,1
DA:2405,1
DA:2406,1
DA:2407,1
DA:2408,1
DA:2410,1
DA:2411,1
DA:2412,1
DA:2415,1
DA:2416,1
DA:2417,1
DA:2418,1
DA:2419,1
DA:2420,1
DA:2421,1
DA:2422,1
DA:2424,1
DA:2425,1
DA:2426,1
DA:2429,1
DA:2430,1
DA:2431,1
DA:2432,1
DA:2435,1
DA:2436,1
DA:2437,1
DA:2438,1
DA:2439,1
DA:2440,1
DA:2441,1
DA:2442,1
DA:2443,1
DA:2444,1
DA:2445,1
DA:2446,1
DA:2448,1
DA:2449,1
DA:2452,1
DA:2453,1
DA:2454,1
DA:2455,1
DA:2456,1
DA:2459,1
DA:2460,1
DA:2461,1
DA:2462,1
DA:2463,1
BRF:0
BRH:0
LF:1943
LH:615
end_of_record
SF:/home/user/flexorama/src/config.rs
FN:321,_RNvMs4_NtCsa6QFEuJDwzK_9flexorama6configNtB5_6Config12set_provider
FN:252,_RNCNvMs4_NtCsa6QFEuJDwzK_9flexorama6configNtB7_6Config19default_config_path0B9_
FN:258,_RNCNvMs4_NtCsa6QFEuJDwzK_9flexorama6configNtB7_6Config4load0B9_
FN:297,_RNCNvMs4_NtCsa6QFEuJDwzK_9flexorama6configNtB7_6Config4save0B9_
FN:134,_RNCNvNtCsa6QFEuJDwzK_9flexorama6config24provider_default_api_key0B5_
FN:146,_RNCNvNtCsa6QFEuJDwzK_9flexorama6config25provider_default_base_url0B5_
FN:150,_RNCNvNtCsa6QFEuJDwzK_9flexorama6config25provider_default_base_urls0_0B5_
FN:152,_RNCNvNtCsa6QFEuJDwzK_9flexorama6config25provider_default_base_urls1_0B5_
FN:154,_RNCNvNtCsa6QFEuJDwzK_9flexorama6config25provider_default_base_urls2_0B5_
FN:156,_RNCNvNtCsa6QFEuJDwzK_9flexorama6config25provider_default_base_urls3_0B5_
FN:148,_RNCNvNtCsa6QFEuJDwzK_9flexorama6config25provider_default_base_urls_0B5_
FN:250,_RNvMs4_NtCsa6QFEuJDwzK_9flexorama6configNtB5_6Config19default_config_path
FN:258,_RNvMs4_NtCsa6QFEuJDwzK_9flexorama6configNtB5_6Config4load
FN:297,_RNvMs4_NtCsa6QFEuJDwzK_9flexorama6configNtB5_6Config4save
FN:171,_RNvNtCsa6QFEuJDwzK_9flexorama6config15provider_models
FN:160,_RNvNtCsa6QFEuJDwzK_9flexorama6config22provider_default_model
FN:130,_RNvNtCsa6QFEuJDwzK_9flexorama6config24provider_default_api_key
FN:143,_RNvNtCsa6QFEuJDwzK_9flexorama6config25provider_default_base_url
FN:22,_RNvXNtCsa6QFEuJDwzK_9flexorama6configNtB2_8ProviderNtNtCs3XFJfFEDSOQ_4core7default7Default7default
FN:44,_RNvXs0_NtCsa6QFEuJDwzK_9flexorama6configNtB5_8ProviderNtNtCs3XFJfFEDSOQ_4core3fmt7Display3fmt
FN:72,_RNvXs1_NtCsa6QFEuJDwzK_9flexorama6configNtB5_9McpConfigNtNtCs3XFJfFEDSOQ_4core7default7Default7default
FN:88,_RNvXs2_NtCsa6QFEuJDwzK_9flexorama6configNtB5_11SkillConfigNtNtCs3XFJfFEDSOQ_4core7default7Default7default
FN:231,_RNvXs3_NtCsa6QFEuJDwzK_9flexorama6configNtB5_6ConfigNtNtCs3XFJfFEDSOQ_4core7default7Default7default
FN:30,_RNvXs_NtCsa6QFEuJDwzK_9flexorama6configNtB4_8ProviderNtNtNtCs3XFJfFEDSOQ_4core3str6traits7FromStr8from_str
FNDA:0,_RNvMs4_NtCsa6QFEuJDwzK_9flexorama6configNtB5_6Config12set_provider
FNDA:0,_RNCNvMs4_NtCsa6QFEuJDwzK_9flexorama6configNtB7_6Config19default_config_path0B9_
FNDA:4,_RNCNvMs4_NtCsa6QFEuJDwzK_9flexorama6configNtB7_6Config4load0B9_
FNDA:16,_RNCNvMs4_NtCsa6QFEuJDwzK_9flexorama6configNtB7_6Config4save0B9_
FNDA:0,_RNCNvNtCsa6QFEuJDwzK_9flexorama6config24provider_default_api_key0B5_
FNDA:0,_RNCNvNtCsa6QFEuJDwzK_9flexorama6config25provider_default_base_url0B5_
FNDA:0,_RNCNvNtCsa6QFEuJDwzK_9flexorama6config25provider_default_base_urls0_0B5_
FNDA:0,_RNCNvNtCsa6QFEuJDwzK_9flexorama6config25provider_default_base_urls1_0B5_
FNDA:0,_RNCNvNtCsa6QFEuJDwzK_9flexorama6config25provider_default_base_urls2_0B5_
FNDA:0,_RNCNvNtCsa6QFEuJDwzK_9flexorama6config25provider_default_base_urls3_0B5_
FNDA:0,_RNCNvNtCsa6QFEuJDwzK_9flexorama6config25provider_default_base_urls_0B5_
FNDA:62,_RNvMs4_NtCsa6QFEuJDwzK_9flexorama6configNtB5_6Config19default_config_path
FNDA:4,_RNvMs4_NtCsa6QFEuJDwzK_9flexorama6configNtB5_6Config4load
FNDA:16,_RNvMs4_NtCsa6QFEuJDwzK_9flexorama6configNtB5_6Config4save
FNDA:113,_RNvNtCsa6QFEuJDwzK_9flexorama6config15provider_models
FNDA:135,_RNvNtCsa6QFEuJDwzK_9flexorama6config22provider_default_model
FNDA:139,_RNvNtCsa6QFEuJDwzK_9flexorama6config24provider_default_api_key
FNDA:135,_RNvNtCsa6QFEuJDwzK_9flexorama6config25provider_default_base_url
FNDA:135,_RNvXNtCsa6QFEuJDwzK_9flexorama6configNtB2_8ProviderNtNtCs3XFJfFEDSOQ_4core7default7Default7default
FNDA:1,_RNvXs0_NtCsa6QFEuJDwzK_9flexorama6configNtB5_8ProviderNtNtCs3XFJfFEDSOQ_4core3fmt7Display3fmt
FNDA:210,_RNvXs1_NtCsa6QFEuJDwzK_9flexorama6configNtB5_9McpConfigNtNtCs3XFJfFEDSOQ_4core7default7Default7default
FNDA:135,_RNvXs2_NtCsa6QFEuJDwzK_9flexorama6configNtB5_11SkillConfigNtNtCs3XFJfFEDSOQ_4core7default7Default7default
FNDA:135,_RNvXs3_NtCsa6QFEuJDwzK_9flexorama6configNtB5_6ConfigNtNtCs3XFJfFEDSOQ_4core7default7Default7default
FNDA:0,_RNvXs_NtCsa6QFEuJDwzK_9flexorama6configNtB4_8ProviderNtNtNtCs3XFJfFEDSOQ_4core3str6traits7FromStr8from_str
FNF:24
FNH:14
DA:22,135
DA:23,135
DA:24,135
DA:30,0
DA:31,0
DA:32,0
DA:33,0
DA:34,0
DA:35,0
DA:36,0
DA:37,0
DA:38,0
DA:40,0
DA:44,1
DA:45,1
DA:46,1
DA:47,0
DA:48,0
DA:49,0
DA:50,0
DA:51,0
DA:53,1
DA:72,210
DA:73,210
DA:74,210
DA:75,210
DA:76,210
DA:88,135
DA:89,135
DA:90,135
DA:91,135
DA:92,135
DA:93,135
DA:130,139
DA:131,139
DA:132,139
DA:133,0
DA:134,0
DA:135,0
DA:136,0
DA:137,0
DA:138,0
DA:139,0
DA:141,139
DA:143,135
DA:144,135
DA:145,135
DA:146,135
DA:147,0
DA:148,0
DA:149,0
DA:150,0
DA:151,0
DA:152,0
DA:153,0
DA:154,0
DA:155,0
DA:156,0
DA:158,135
DA:160,135
DA:161,135
DA:162,135
DA:163,0
DA:164,0
DA:165,0
DA:166,0
DA:167,0
DA:169,135
DA:171,113
DA:172,113
DA:173,113
DA:174,113
DA:175,113
DA:176,113
DA:177,113
DA:178,113
DA:179,113
DA:180,113
DA:181,113
DA:182,0
DA:183,0
DA:184,0
DA:185,0
DA:186,0
DA:187,0
DA:188,0
DA:189,0
DA:190,0
DA:191,0
DA:192,0
DA:193,0
DA:194,0
DA:195,0
DA:196,0
DA:197,0
DA:198,0
DA:199,0
DA:200,0
DA:201,0
DA:202,0
DA:203,0
DA:204,0
DA:205,0
DA:206,0
DA:207,0
DA:208,0
DA:209,0
DA:210,0
DA:211,0
DA:212,0
DA:213,0
DA:214,0
DA:215,0
DA:216,0
DA:217,0
DA:218,0
DA:219,0
DA:220,0
DA:221,0
DA:222,0
DA:223,0
DA:224,0
DA:225,0
DA:226,0
DA:228,113
DA:231,135
DA:232,135
DA:233,135
DA:234,135
DA:235,135
DA:236,135
DA:237,135
DA:238,135
DA:239,135
DA:240,135
DA:241,135
DA:242,135
DA:243,135
DA:244,135
DA:245,135
DA:246,135
DA:250,62
DA:251,62
DA:252,62
DA:253,62
DA:254,62
DA:255,62
DA:258,4
DA:259,4
DA:260,4
DA:261,4
DA:263,4
DA:264,1
DA:265,1
DA:268,1
DA:269,0
DA:270,0
DA:271,1
DA:273,1
DA:275,3
DA:276,0
DA:277,0
DA:279,3
DA:283,4
DA:284,0
DA:285,4
DA:286,4
DA:287,0
DA:288,4
DA:291,4
DA:293,4
DA:294,4
DA:297,16
DA:298,16
DA:299,16
DA:300,16
DA:303,16
DA:304,16
DA:305,0
DA:308,16
DA:309,16
DA:311,16
DA:312,16
DA:313,16
DA:314,0
DA:315,0
DA:317,16
DA:318,16
DA:321,0
DA:322,0
DA:323,0
DA:324,0
DA:325,0
DA:326,0
BRF:0
BRH:0
LF:204
LH:99
end_of_record
SF:/home/user/flexorama/src/conversation.rs
FN:470,_RNvNtNtCsa6QFEuJDwzK_9flexorama12conversation5tests14create_test_db
FN:633,_RNvNtNtCsa6QFEuJDwzK_9flexorama12conversation5testss_14test_save_plan
FN:714,_RNvNtNtCsa6QFEuJDwzK_9flexorama12conversation5testss_18test_clean_message
FN:736,_RNvNtNtCsa6QFEuJDwzK_9flexorama12conversation5testss_21test_add_context_file
FN:501,_RNvNtNtCsa6QFEuJDwzK_9flexorama12conversation5testss_22test_new_with_database
FN:478,_RNvNtNtCsa6QFEuJDwzK_9flexorama12conversation5testss_25test_new_without_database
FN:1042,_RNvNtNtCsa6QFEuJDwzK_9flexorama12conversation5testss_25test_tool_call_with_error
FN:676,_RNvNtNtCsa6QFEuJDwzK_9flexorama12conversation5testss_26test_extract_context_files
FN:725,_RNvNtNtCsa6QFEuJDwzK_9flexorama12conversation5testss_27test_clean_message_no_files
FN:982,_RNvNtNtCsa6QFEuJDwzK_9flexorama12conversation5testss_27test_multiple_conversations
FN:490,_RNvNtNtCsa6QFEuJDwzK_9flexorama12conversation5testss_27test_new_with_system_prompt
FN:1072,_RNvNtNtCsa6QFEuJDwzK_9flexorama12conversation5testss_29test_tool_call_without_result
FN:591,_RNvNtNtCsa6QFEuJDwzK_9flexorama12conversation5testss_30test_update_conversation_model
FN:1019,_RNvNtNtCsa6QFEuJDwzK_9flexorama12conversation5testss_31test_default_agents_files_empty
FN:662,_RNvNtNtCsa6QFEuJDwzK_9flexorama12conversation5testss_31test_save_plan_without_database
FN:1027,_RNvNtNtCsa6QFEuJDwzK_9flexorama12conversation5testss_32test_add_context_file_with_tilde
FN:617,_RNvNtNtCsa6QFEuJDwzK_9flexorama12conversation5testss_32test_update_database_usage_stats
FN:761,_RNvNtNtCsa6QFEuJDwzK_9flexorama12conversation5testss_33test_add_context_file_nonexistent
FN:553,_RNvNtNtCsa6QFEuJDwzK_9flexorama12conversation5testss_33test_save_message_to_conversation
FN:578,_RNvNtNtCsa6QFEuJDwzK_9flexorama12conversation5testss_34test_save_message_without_database
FN:812,_RNvNtNtCsa6QFEuJDwzK_9flexorama12conversation5testss_34test_set_conversation_from_records
FN:689,_RNvNtNtCsa6QFEuJDwzK_9flexorama12conversation5testss_35test_extract_context_files_no_files
FN:965,_RNvNtNtCsa6QFEuJDwzK_9flexorama12conversation5testss_35test_set_conversation_with_subagent
FN:1128,_RNvNtNtCsa6QFEuJDwzK_9flexorama12conversation5testss_36test_conversation_with_empty_content
FN:1176,_RNvNtNtCsa6QFEuJDwzK_9flexorama12conversation5testss_36test_update_usage_stats_accumulation
FN:770,_RNvNtNtCsa6QFEuJDwzK_9flexorama12conversation5testss_38test_clear_conversation_keep_agents_md
FN:909,_RNvNtNtCsa6QFEuJDwzK_9flexorama12conversation5testss_39test_set_conversation_timeline_ordering
FN:521,_RNvNtNtCsa6QFEuJDwzK_9flexorama12conversation5testss_41test_start_new_conversation_with_database
FN:700,_RNvNtNtCsa6QFEuJDwzK_9flexorama12conversation5testss_43test_extract_context_files_multiple_formats
FN:1143,_RNvNtNtCsa6QFEuJDwzK_9flexorama12conversation5testss_43test_save_multiple_messages_to_conversation
FN:512,_RNvNtNtCsa6QFEuJDwzK_9flexorama12conversation5testss_44test_start_new_conversation_without_database
FN:1113,_RNvNtNtCsa6QFEuJDwzK_9flexorama12conversation5testss_45test_clean_message_preserves_other_at_symbols
FN:849,_RNvNtNtCsa6QFEuJDwzK_9flexorama12conversation5testss_45test_set_conversation_from_records_with_tools
FN:534,_RNvNtNtCsa6QFEuJDwzK_9flexorama12conversation5testss_46test_start_new_conversation_with_system_prompt
FN:1100,_RNvNtNtCsa6QFEuJDwzK_9flexorama12conversation5testss_50test_extract_context_files_with_special_characters
FN:800,_RNCNCNCNvNtNtCsa6QFEuJDwzK_9flexorama12conversation5testss_38test_clear_conversation_keep_agents_md000Bb_
FN:799,_RNCNCNvNtNtCsa6QFEuJDwzK_9flexorama12conversation5testss_38test_clear_conversation_keep_agents_md00B9_
FN:470,_RNCNvNtNtCsa6QFEuJDwzK_9flexorama12conversation5tests14create_test_db0B7_
FN:633,_RNCNvNtNtCsa6QFEuJDwzK_9flexorama12conversation5testss_14test_save_plan0B7_
FN:714,_RNCNvNtNtCsa6QFEuJDwzK_9flexorama12conversation5testss_18test_clean_message0B7_
FN:736,_RNCNvNtNtCsa6QFEuJDwzK_9flexorama12conversation5testss_21test_add_context_file0B7_
FN:501,_RNCNvNtNtCsa6QFEuJDwzK_9flexorama12conversation5testss_22test_new_with_database0B7_
FN:1042,_RNCNvNtNtCsa6QFEuJDwzK_9flexorama12conversation5testss_25test_tool_call_with_error0B7_
FN:676,_RNCNvNtNtCsa6QFEuJDwzK_9flexorama12conversation5testss_26test_extract_context_files0B7_
FN:725,_RNCNvNtNtCsa6QFEuJDwzK_9flexorama12conversation5testss_27test_clean_message_no_files0B7_
FN:982,_RNCNvNtNtCsa6QFEuJDwzK_9flexorama12conversation5testss_27test_multiple_conversations0B7_
FN:1072,_RNCNvNtNtCsa6QFEuJDwzK_9flexorama12conversation5testss_29test_tool_call_without_result0B7_
FN:591,_RNCNvNtNtCsa6QFEuJDwzK_9flexorama12conversation5testss_30test_update_conversation_model0B7_
FN:1019,_RNCNvNtNtCsa6QFEuJDwzK_9flexorama12conversation5testss_31test_default_agents_files_empty0B7_
FN:662,_RNCNvNtNtCsa6QFEuJDwzK_9flexorama12conversation5testss_31test_save_plan_without_database0B7_
FN:1027,_RNCNvNtNtCsa6QFEuJDwzK_9flexorama12conversation5testss_32test_add_context_file_with_tilde0B7_
FN:617,_RNCNvNtNtCsa6QFEuJDwzK_9flexorama12conversation5testss_32test_update_database_usage_stats0B7_
FN:761,_RNCNvNtNtCsa6QFEuJDwzK_9flexorama12conversation5testss_33test_add_context_file_nonexistent0B7_
FN:553,_RNCNvNtNtCsa6QFEuJDwzK_9flexorama12conversation5testss_33test_save_message_to_conversation0B7_
FN:578,_RNCNvNtNtCsa6QFEuJDwzK_9flexorama12conversation5testss_34test_save_message_without_database0B7_
FN:812,_RNCNvNtNtCsa6QFEuJDwzK_9flexorama12conversation5testss_34test_set_conversation_from_records0B7_
FN:689,_RNCNvNtNtCsa6QFEuJDwzK_9flexorama12conversation5testss_35test_extract_context_files_no_files0B7_
FN:965,_RNCNvNtNtCsa6QFEuJDwzK_9flexorama12conversation5testss_35test_set_conversation_with_subagent0B7_
FN:1128,_RNCNvNtNtCsa6QFEuJDwzK_9flexorama12conversation5testss_36test_conversation_with_empty_content0B7_
FN:1176,_RNCNvNtNtCsa6QFEuJDwzK_9flexorama12conversation5testss_36test_update_usage_stats_accumulation0B7_
FN:770,_RNCNvNtNtCsa6QFEuJDwzK_9flexorama12conversation5testss_38test_clear_conversation_keep_agents_md0B7_
FN:909,_RNCNvNtNtCsa6QFEuJDwzK_9flexorama12conversation5testss_39test_set_conversation_timeline_ordering0B7_
FN:521,_RNCNvNtNtCsa6QFEuJDwzK_9flexorama12conversation5testss_41test_start_new_conversation_with_database0B7_
FN:700,_RNCNvNtNtCsa6QFEuJDwzK_9flexorama12conversation5testss_43test_extract_context_files_multiple_formats0B7_
FN:1143,_RNCNvNtNtCsa6QFEuJDwzK_9flexorama12conversation5testss_43test_save_multiple_messages_to_conversation0B7_
FN:512,_RNCNvNtNtCsa6QFEuJDwzK_9flexorama12conversation5testss_44test_start_new_conversation_without_database0B7_
FN:1113,_RNCNvNtNtCsa6QFEuJDwzK_9flexorama12conversation5testss_45test_clean_message_preserves_other_at_symbols0B7_
FN:849,_RNCNvNtNtCsa6QFEuJDwzK_9flexorama12conversation5testss_45test_set_conversation_from_records_with_tools0B7_
FN:534,_RNCNvNtNtCsa6QFEuJDwzK_9flexorama12conversation5testss_46test_start_new_conversation_with_system_prompt0B7_
FN:1100,_RNCNvNtNtCsa6QFEuJDwzK_9flexorama12conversation5testss_50test_extract_context_files_with_special_characters0B7_
FN:270,_RNCNCNvMNtCsa6QFEuJDwzK_9flexorama12conversationNtB6_19ConversationManager29set_conversation_from_records00B8_
FN:226,_RNCNvMNtCsa6QFEuJDwzK_9flexorama12conversationNtB4_19ConversationManager13clean_message0B6_
FN:455,_RNCNvMNtCsa6QFEuJDwzK_9flexorama12conversationNtB4_19ConversationManager15display_contexts2_0B6_
FN:386,_RNCNvMNtCsa6QFEuJDwzK_9flexorama12conversationNtB4_19ConversationManager15display_contexts_0B6_
FN:185,_RNCNvMNtCsa6QFEuJDwzK_9flexorama12conversationNtB4_19ConversationManager16add_context_file0B6_
FN:170,_RNCNvMNtCsa6QFEuJDwzK_9flexorama12conversationNtB4_19ConversationManager20default_agents_files0B6_
FN:219,_RNCNvMNtCsa6QFEuJDwzK_9flexorama12conversationNtB4_19ConversationManager21extract_context_files0B6_
FN:46,_RNCNvMNtCsa6QFEuJDwzK_9flexorama12conversationNtB4_19ConversationManager22start_new_conversation0B6_
FN:88,_RNCNvMNtCsa6QFEuJDwzK_9flexorama12conversationNtB4_19ConversationManager25update_conversation_model0B6_
FN:105,_RNCNvMNtCsa6QFEuJDwzK_9flexorama12conversationNtB4_19ConversationManager27update_database_usage_stats0B6_
FN:76,_RNCNvMNtCsa6QFEuJDwzK_9flexorama12conversationNtB4_19ConversationManager28save_message_to_conversation0B6_
FN:270,_RNCNvMNtCsa6QFEuJDwzK_9flexorama12conversationNtB4_19ConversationManager29set_conversation_from_records0B6_
FN:282,_RNCNvMNtCsa6QFEuJDwzK_9flexorama12conversationNtB4_19ConversationManager29set_conversation_from_recordss_0B6_
FN:138,_RNCNvMNtCsa6QFEuJDwzK_9flexorama12conversationNtB4_19ConversationManager33clear_conversation_keep_agents_md0B6_
FN:120,_RNCNvMNtCsa6QFEuJDwzK_9flexorama12conversationNtB4_19ConversationManager9save_plan0B6_
FN:224,_RNvMNtCsa6QFEuJDwzK_9flexorama12conversationNtB2_19ConversationManager13clean_message
FN:312,_RNvMNtCsa6QFEuJDwzK_9flexorama12conversationNtB2_19ConversationManager15display_context
FN:185,_RNvMNtCsa6QFEuJDwzK_9flexorama12conversationNtB2_19ConversationManager16add_context_file
FN:167,_RNvMNtCsa6QFEuJDwzK_9flexorama12conversationNtB2_19ConversationManager20default_agents_files
FN:216,_RNvMNtCsa6QFEuJDwzK_9flexorama12conversationNtB2_19ConversationManager21extract_context_files
FN:46,_RNvMNtCsa6QFEuJDwzK_9flexorama12conversationNtB2_19ConversationManager22start_new_conversation
FN:88,_RNvMNtCsa6QFEuJDwzK_9flexorama12conversationNtB2_19ConversationManager25update_conversation_model
FN:101,_RNvMNtCsa6QFEuJDwzK_9flexorama12conversationNtB2_19ConversationManager27update_database_usage_stats
FN:71,_RNvMNtCsa6QFEuJDwzK_9flexorama12conversationNtB2_19ConversationManager28save_message_to_conversation
FN:235,_RNvMNtCsa6QFEuJDwzK_9flexorama12conversationNtB2_19ConversationManager29set_conversation_from_records
FN:138,_RNvMNtCsa6QFEuJDwzK_9flexorama12conversationNtB2_19ConversationManager33clear_conversation_keep_agents_md
FN:30,_RNvMNtCsa6QFEuJDwzK_9flexorama12conversationNtB2_19ConversationManager3new
FN:115,_RNvMNtCsa6QFEuJDwzK_9flexorama12conversationNtB2_19ConversationManager9save_plan
FNDA:11,_RNvNtNtCsa6QFEuJDwzK_9flexorama12conversation5tests14create_test_db
FNDA:1,_RNvNtNtCsa6QFEuJDwzK_9flexorama12conversation5testss_14test_save_plan
FNDA:1,_RNvNtNtCsa6QFEuJDwzK_9flexorama12conversation5testss_18test_clean_message
FNDA:1,_RNvNtNtCsa6QFEuJDwzK_9flexorama12conversation5testss_21test_add_context_file
FNDA:1,_RNvNtNtCsa6QFEuJDwzK_9flexorama12conversation5testss_22test_new_with_database
FNDA:1,_RNvNtNtCsa6QFEuJDwzK_9flexorama12conversation5testss_25test_new_without_database
FNDA:1,_RNvNtNtCsa6QFEuJDwzK_9flexorama12conversation5testss_25test_tool_call_with_error
FNDA:1,_RNvNtNtCsa6QFEuJDwzK_9flexorama12conversation5testss_26test_extract_context_files
FNDA:1,_RNvNtNtCsa6QFEuJDwzK_9flexorama12conversation5testss_27test_clean_message_no_files
FNDA:1,_RNvNtNtCsa6QFEuJDwzK_9flexorama12conversation5testss_27test_multiple_conversations
FNDA:1,_RNvNtNtCsa6QFEuJDwzK_9flexorama12conversation5testss_27test_new_with_system_prompt
FNDA:1,_RNvNtNtCsa6QFEuJDwzK_9flexorama12conversation5testss_29test_tool_call_without_result
FNDA:1,_RNvNtNtCsa6QFEuJDwzK_9flexorama12conversation5testss_30test_update_conversation_model
FNDA:1,_RNvNtNtCsa6QFEuJDwzK_9flexorama12conversation5testss_31test_default_agents_files_empty
FNDA:1,_RNvNtNtCsa6QFEuJDwzK_9flexorama12conversation5testss_31test_save_plan_without_database
FNDA:1,_RNvNtNtCsa6QFEuJDwzK_9flexorama12conversation5testss_32test_add_context_file_with_tilde
FNDA:1,_RNvNtNtCsa6QFEuJDwzK_9flexorama12conversation5testss_32test_update_database_usage_stats
FNDA:1,_RNvNtNtCsa6QFEuJDwzK_9flexorama12conversation5testss_33test_add_context_file_nonexistent
FNDA:1,_RNvNtNtCsa6QFEuJDwzK_9flexorama12conversation5testss_33test_save_message_to_conversation
FNDA:1,_RNvNtNtCsa6QFEuJDwzK_9flexorama12conversation5testss_34test_save_message_without_database
FNDA:1,_RNvNtNtCsa6QFEuJDwzK_9flexorama12conversation5testss_34test_set_conversation_from_records
FNDA:1,_RNvNtNtCsa6QFEuJDwzK_9flexorama12conversation5testss_35test_extract_context_files_no_files
FNDA:1,_RNvNtNtCsa6QFEuJDwzK_9flexorama12conversation5testss_35test_set_conversation_with_subagent
FNDA:1,_RNvNtNtCsa6QFEuJDwzK_9flexorama12conversation5testss_36test_conversation_with_empty_content
FNDA:1,_RNvNtNtCsa6QFEuJDwzK_9flexorama12conversation5testss_36test_update_usage_stats_accumulation
FNDA:1,_RNvNtNtCsa6QFEuJDwzK_9flexorama12conversation5testss_38test_clear_conversation_keep_agents_md
FNDA:1,_RNvNtNtCsa6QFEuJDwzK_9flexorama12conversation5testss_39test_set_conversation_timeline_ordering
FNDA:1,_RNvNtNtCsa6QFEuJDwzK_9flexorama12conversation5testss_41test_start_new_conversation_with_database
FNDA:1,_RNvNtNtCsa6QFEuJDwzK_9flexorama12conversation5testss_43test_extract_context_files_multiple_formats
FNDA:1,_RNvNtNtCsa6QFEuJDwzK_9flexorama12conversation5testss_43test_save_multiple_messages_to_conversation
FNDA:1,_RNvNtNtCsa6QFEuJDwzK_9flexorama12conversation5testss_44test_start_new_conversation_without_database
FNDA:1,_RNvNtNtCsa6QFEuJDwzK_9flexorama12conversation5testss_45test_clean_message_preserves_other_at_symbols
FNDA:1,_RNvNtNtCsa6QFEuJDwzK_9flexorama12conversation5testss_45test_set_conversation_from_records_with_tools
FNDA:1,_RNvNtNtCsa6QFEuJDwzK_9flexorama12conversation5testss_46test_start_new_conversation_with_system_prompt
FNDA:1,_RNvNtNtCsa6QFEuJDwzK_9flexorama12conversation5testss_50test_extract_context_files_with_special_characters
FNDA:1,_RNCNCNCNvNtNtCsa6QFEuJDwzK_9flexorama12conversation5testss_38test_clear_conversation_keep_agents_md000Bb_
FNDA:1,_RNCNCNvNtNtCsa6QFEuJDwzK_9flexorama12conversation5testss_38test_clear_conversation_keep_agents_md00B9_
FNDA:11,_RNCNvNtNtCsa6QFEuJDwzK_9flexorama12conversation5tests14create_test_db0B7_
FNDA:1,_RNCNvNtNtCsa6QFEuJDwzK_9flexorama12conversation5testss_14test_save_plan0B7_
FNDA:1,_RNCNvNtNtCsa6QFEuJDwzK_9flexorama12conversation5testss_18test_clean_message0B7_
FNDA:1,_RNCNvNtNtCsa6QFEuJDwzK_9flexorama12conversation5testss_21test_add_context_file0B7_
FNDA:1,_RNCNvNtNtCsa6QFEuJDwzK_9flexorama12conversation5testss_22test_new_with_database0B7_
FNDA:1,_RNCNvNtNtCsa6QFEuJDwzK_9flexorama12conversation5testss_25test_tool_call_with_error0B7_
FNDA:1,_RNCNvNtNtCsa6QFEuJDwzK_9flexorama12conversation5testss_26test_extract_context_files0B7_
FNDA:1,_RNCNvNtNtCsa6QFEuJDwzK_9flexorama12conversation5testss_27test_clean_message_no_files0B7_
FNDA:1,_RNCNvNtNtCsa6QFEuJDwzK_9flexorama12conversation5testss_27test_multiple_conversations0B7_
FNDA:1,_RNCNvNtNtCsa6QFEuJDwzK_9flexorama12conversation5testss_29test_tool_call_without_result0B7_
FNDA:1,_RNCNvNtNtCsa6QFEuJDwzK_9flexorama12conversation5testss_30test_update_conversation_model0B7_
FNDA:1,_RNCNvNtNtCsa6QFEuJDwzK_9flexorama12conversation5testss_31test_default_agents_files_empty0B7_
FNDA:1,_RNCNvNtNtCsa6QFEuJDwzK_9flexorama12conversation5testss_31test_save_plan_without_database0B7_
FNDA:1,_RNCNvNtNtCsa6QFEuJDwzK_9flexorama12conversation5testss_32test_add_context_file_with_tilde0B7_
FNDA:1,_RNCNvNtNtCsa6QFEuJDwzK_9flexorama12conversation5testss_32test_update_database_usage_stats0B7_
FNDA:1,_RNCNvNtNtCsa6QFEuJDwzK_9flexorama12conversation5testss_33test_add_context_file_nonexistent0B7_
FNDA:1,_RNCNvNtNtCsa6QFEuJDwzK_9flexorama12conversation5testss_33test_save_message_to_conversation0B7_
FNDA:1,_RNCNvNtNtCsa6QFEuJDwzK_9flexorama12conversation5testss_34test_save_message_without_database0B7_
FNDA:1,_RNCNvNtNtCsa6QFEuJDwzK_9flexorama12conversation5testss_34test_set_conversation_from_records0B7_
FNDA:1,_RNCNvNtNtCsa6QFEuJDwzK_9flexorama12conversation5testss_35test_extract_context_files_no_files0B7_
FNDA:1,_RNCNvNtNtCsa6QFEuJDwzK_9flexorama12conversation5testss_35test_set_conversation_with_subagent0B7_
FNDA:1,_RNCNvNtNtCsa6QFEuJDwzK_9flexorama12conversation5testss_36test_conversation_with_empty_content0B7_
FNDA:1,_RNCNvNtNtCsa6QFEuJDwzK_9flexorama12conversation5testss_36test_update_usage_stats_accumulation0B7_
FNDA:1,_RNCNvNtNtCsa6QFEuJDwzK_9flexorama12conversation5testss_38test_clear_conversation_keep_agents_md0B7_
FNDA:1,_RNCNvNtNtCsa6QFEuJDwzK_9flexorama12conversation5testss_39test_set_conversation_timeline_ordering0B7_
FNDA:1,_RNCNvNtNtCsa6QFEuJDwzK_9flexorama12conversation5testss_41test_start_new_conversation_with_database0B7_
FNDA:1,_RNCNvNtNtCsa6QFEuJDwzK_9flexorama12conversation5testss_43test_extract_context_files_multiple_formats0B7_
FNDA:1,_RNCNvNtNtCsa6QFEuJDwzK_9flexorama12conversation5testss_43test_save_multiple_messages_to_conversation0B7_
FNDA:1,_RNCNvNtNtCsa6QFEuJDwzK_9flexorama12conversation5testss_44test_start_new_conversation_without_database0B7_
FNDA:1,_RNCNvNtNtCsa6QFEuJDwzK_9flexorama12conversation5testss_45test_clean_message_preserves_other_at_symbols0B7_
FNDA:1,_RNCNvNtNtCsa6QFEuJDwzK_9flexorama12conversation5testss_45test_set_conversation_from_records_with_tools0B7_
FNDA:1,_RNCNvNtNtCsa6QFEuJDwzK_9flexorama12conversation5testss_46test_start_new_conversation_with_system_prompt0B7_
FNDA:1,_RNCNvNtNtCsa6QFEuJDwzK_9flexorama12conversation5testss_50test_extract_context_files_with_special_characters0B7_
FNDA:0,_RNCNCNvMNtCsa6QFEuJDwzK_9flexorama12conversationNtB6_19ConversationManager29set_conversation_from_records00B8_
FNDA:7,_RNCNvMNtCsa6QFEuJDwzK_9flexorama12conversationNtB4_19ConversationManager13clean_message0B6_
FNDA:0,_RNCNvMNtCsa6QFEuJDwzK_9flexorama12conversationNtB4_19ConversationManager15display_contexts2_0B6_
FNDA:0,_RNCNvMNtCsa6QFEuJDwzK_9flexorama12conversationNtB4_19ConversationManager15display_contexts_0B6_
FNDA:65,_RNCNvMNtCsa6QFEuJDwzK_9flexorama12conversationNtB4_19ConversationManager16add_context_file0B6_
FNDA:0,_RNCNvMNtCsa6QFEuJDwzK_9flexorama12conversationNtB4_19ConversationManager20default_agents_files0B6_
FNDA:12,_RNCNvMNtCsa6QFEuJDwzK_9flexorama12conversationNtB4_19ConversationManager21extract_context_files0B6_
FNDA:16,_RNCNvMNtCsa6QFEuJDwzK_9flexorama12conversationNtB4_19ConversationManager22start_new_conversation0B6_
FNDA:2,_RNCNvMNtCsa6QFEuJDwzK_9flexorama12conversationNtB4_19ConversationManager25update_conversation_model0B6_
FNDA:3,_RNCNvMNtCsa6QFEuJDwzK_9flexorama12conversationNtB4_19ConversationManager27update_database_usage_stats0B6_
FNDA:7,_RNCNvMNtCsa6QFEuJDwzK_9flexorama12conversationNtB4_19ConversationManager28save_message_to_conversation0B6_
FNDA:9,_RNCNvMNtCsa6QFEuJDwzK_9flexorama12conversationNtB4_19ConversationManager29set_conversation_from_records0B6_
FNDA:0,_RNCNvMNtCsa6QFEuJDwzK_9flexorama12conversationNtB4_19ConversationManager29set_conversation_from_recordss_0B6_
FNDA:2,_RNCNvMNtCsa6QFEuJDwzK_9flexorama12conversationNtB4_19ConversationManager33clear_conversation_keep_agents_md0B6_
FNDA:2,_RNCNvMNtCsa6QFEuJDwzK_9flexorama12conversationNtB4_19ConversationManager9save_plan0B6_
FNDA:5,_RNvMNtCsa6QFEuJDwzK_9flexorama12conversationNtB2_19ConversationManager13clean_message
FNDA:1,_RNvMNtCsa6QFEuJDwzK_9flexorama12conversationNtB2_19ConversationManager15display_context
FNDA:65,_RNvMNtCsa6QFEuJDwzK_9flexorama12conversationNtB2_19ConversationManager16add_context_file
FNDA:4,_RNvMNtCsa6QFEuJDwzK_9flexorama12conversationNtB2_19ConversationManager20default_agents_files
FNDA:6,_RNvMNtCsa6QFEuJDwzK_9flexorama12conversationNtB2_19ConversationManager21extract_context_files
FNDA:16,_RNvMNtCsa6QFEuJDwzK_9flexorama12conversationNtB2_19ConversationManager22start_new_conversation
FNDA:2,_RNvMNtCsa6QFEuJDwzK_9flexorama12conversationNtB2_19ConversationManager25update_conversation_model
FNDA:3,_RNvMNtCsa6QFEuJDwzK_9flexorama12conversationNtB2_19ConversationManager27update_database_usage_stats
FNDA:7,_RNvMNtCsa6QFEuJDwzK_9flexorama12conversationNtB2_19ConversationManager28save_message_to_conversation
FNDA:6,_RNvMNtCsa6QFEuJDwzK_9flexorama12conversationNtB2_19ConversationManager29set_conversation_from_records
FNDA:2,_RNvMNtCsa6QFEuJDwzK_9flexorama12conversationNtB2_19ConversationManager33clear_conversation_keep_agents_md
FNDA:145,_RNvMNtCsa6QFEuJDwzK_9flexorama12conversationNtB2_19ConversationManager3new
FNDA:2,_RNvMNtCsa6QFEuJDwzK_9flexorama12conversationNtB2_19ConversationManager9save_plan
FNF:98
FNH:93
DA:30,145
DA:31,145
DA:32,145
DA:33,145
DA:34,145
DA:35,145
DA:36,145
DA:37,145
DA:38,145
DA:39,145
DA:40,145
DA:41,145
DA:42,145
DA:43,145
DA:46,16
DA:47,16
DA:49,10
DA:50,10
DA:51,10
DA:52,10
DA:53,10
DA:54,10
DA:55,10
DA:58,10
DA:60,10
DA:61,10
DA:64,6
DA:65,6
DA:66,6
DA:68,16
DA:71,7
DA:72,7
DA:73,7
DA:74,7
DA:75,7
DA:76,7
DA:77,6
DA:78,7
DA:80,6
DA:81,6
DA:82,6
DA:83,1
DA:84,7
DA:85,7
DA:88,2
DA:89,2
DA:90,1
DA:91,2
DA:93,1
DA:94,1
DA:95,1
DA:96,1
DA:97,2
DA:98,2
DA:101,3
DA:102,3
DA:103,3
DA:104,3
DA:105,3
DA:106,3
DA:107,3
DA:108,3
DA:109,3
DA:110,0
DA:111,3
DA:112,3
DA:115,2
DA:116,2
DA:117,2
DA:118,2
DA:119,2
DA:120,2
DA:121,2
DA:122,1
DA:123,1
DA:124,1
DA:125,1
DA:126,1
DA:127,1
DA:128,1
DA:129,1
DA:130,1
DA:132,1
DA:134,2
DA:138,2
DA:139,2
DA:142,2
DA:145,2
DA:146,2
DA:147,0
DA:152,4
DA:153,2
DA:154,2
DA:155,0
DA:159,2
DA:160,0
DA:161,2
DA:163,2
DA:164,2
DA:167,4
DA:168,4
DA:169,4
DA:170,4
DA:171,4
DA:172,4
DA:173,4
DA:174,0
DA:175,4
DA:177,4
DA:178,4
DA:179,4
DA:180,4
DA:181,4
DA:182,4
DA:185,65
DA:190,65
DA:191,65
DA:193,65
DA:194,58
DA:195,58
DA:196,58
DA:197,58
DA:201,58
DA:202,58
DA:203,58
DA:204,58
DA:206,58
DA:207,58
DA:209,7
DA:210,7
DA:213,65
DA:216,6
DA:217,6
DA:218,6
DA:219,12
DA:220,6
DA:221,6
DA:224,5
DA:225,5
DA:226,7
DA:227,7
DA:228,7
DA:229,7
DA:230,5
DA:231,5
DA:232,5
DA:235,6
DA:236,6
DA:237,6
DA:238,6
DA:239,6
DA:240,6
DA:241,6
DA:242,6
DA:243,6
DA:244,6
DA:245,6
DA:247,11
DA:248,5
DA:249,5
DA:250,5
DA:251,5
DA:252,5
DA:253,5
DA:255,10
DA:256,4
DA:257,4
DA:258,4
DA:259,4
DA:260,4
DA:261,4
DA:262,3
DA:263,3
DA:264,3
DA:265,3
DA:266,3
DA:267,3
DA:270,9
DA:272,18
DA:273,12
DA:274,5
DA:275,5
DA:276,5
DA:277,5
DA:278,5
DA:279,5
DA:280,4
DA:281,4
DA:282,4
DA:283,4
DA:284,4
DA:285,4
DA:286,4
DA:287,4
DA:288,4
DA:289,4
DA:290,4
DA:292,3
DA:293,3
DA:294,3
DA:295,3
DA:296,3
DA:297,3
DA:298,3
DA:299,3
DA:300,3
DA:301,3
DA:305,6
DA:306,6
DA:307,6
DA:308,6
DA:309,6
DA:312,1
DA:313,1
DA:314,1
DA:315,1
DA:318,1
DA:319,1
DA:320,1
DA:321,1
DA:322,1
DA:324,1
DA:325,1
DA:326,1
DA:327,1
DA:329,1
DA:330,1
DA:331,0
DA:333,0
DA:334,0
DA:335,0
DA:336,0
DA:337,0
DA:340,0
DA:341,0
DA:342,0
DA:343,0
DA:344,0
DA:347,0
DA:348,0
DA:349,0
DA:350,0
DA:352,0
DA:354,0
DA:355,0
DA:356,0
DA:357,0
DA:358,0
DA:359,0
DA:361,0
DA:363,0
DA:364,0
DA:365,0
DA:366,0
DA:367,0
DA:369,0
DA:371,0
DA:372,0
DA:373,0
DA:375,0
DA:376,0
DA:377,0
DA:378,0
DA:383,0
DA:384,0
DA:385,0
DA:386,0
DA:388,0
DA:390,0
DA:391,0
DA:392,0
DA:393,0
DA:394,0
DA:395,0
DA:397,0
DA:399,0
DA:400,0
DA:402,0
DA:403,0
DA:404,0
DA:406,0
DA:407,0
DA:409,0
DA:411,0
DA:412,0
DA:413,0
DA:416,0
DA:418,0
DA:420,0
DA:421,0
DA:422,0
DA:423,0
DA:424,0
DA:425,0
DA:427,0
DA:429,0
DA:430,0
DA:431,0
DA:432,0
DA:434,0
DA:436,0
DA:437,0
DA:438,0
DA:439,0
DA:440,0
DA:441,0
DA:442,0
DA:445,0
DA:448,0
DA:449,0
DA:450,0
DA:451,0
DA:452,0
DA:453,0
DA:454,0
DA:455,0
DA:456,0
DA:458,0
DA:459,1
DA:470,11
DA:471,11
DA:472,11
DA:473,11
DA:474,11
DA:475,11
DA:478,1
DA:479,1
DA:480,1
DA:481,1
DA:482,1
DA:483,1
DA:484,1
DA:485,1
DA:486,1
DA:487,1
DA:490,1
DA:491,1
DA:492,1
DA:493,1
DA:494,1
DA:495,1
DA:497,1
DA:498,1
DA:501,1
DA:502,1
DA:503,1
DA:504,1
DA:505,1
DA:506,1
DA:508,1
DA:509,1
DA:512,1
DA:513,1
DA:514,1
DA:515,1
DA:516,1
DA:517,1
DA:518,1
DA:521,1
DA:522,1
DA:523,1
DA:524,1
DA:525,1
DA:526,1
DA:527,1
DA:528,1
DA:529,1
DA:530,1
DA:531,1
DA:534,1
DA:535,1
DA:536,1
DA:537,1
DA:538,1
DA:539,1
DA:540,1
DA:542,1
DA:545,1
DA:546,1
DA:547,1
DA:548,1
DA:549,1
DA:550,1
DA:553,1
DA:554,1
DA:555,1
DA:556,1
DA:557,1
DA:558,1
DA:560,1
DA:562,1
DA:563,1
DA:564,1
DA:565,1
DA:568,1
DA:569,1
DA:570,1
DA:571,1
DA:572,1
DA:573,1
DA:574,1
DA:575,1
DA:578,1
DA:579,1
DA:580,1
DA:581,1
DA:584,1
DA:585,1
DA:586,1
DA:587,1
DA:588,1
DA:591,1
DA:592,1
DA:593,1
DA:594,1
DA:595,1
DA:596,1
DA:598,1
DA:600,1
DA:601,1
DA:602,1
DA:603,1
DA:605,1
DA:608,1
DA:609,1
DA:610,1
DA:611,1
DA:612,1
DA:613,1
DA:614,1
DA:617,1
DA:618,1
DA:619,1
DA:620,1
DA:621,1
DA:622,1
DA:625,1
DA:628,1
DA:629,1
DA:630,1
DA:633,1
DA:634,1
DA:635,1
DA:636,1
DA:637,1
DA:638,1
DA:640,1
DA:642,1
DA:643,1
DA:644,1
DA:645,1
DA:646,1
DA:647,1
DA:648,1
DA:649,1
DA:651,1
DA:654,1
DA:655,1
DA:656,1
DA:657,1
DA:658,1
DA:659,1
DA:662,1
DA:663,1
DA:664,1
DA:665,1
DA:667,1
DA:668,1
DA:669,1
DA:670,1
DA:672,1
DA:673,1
DA:676,1
DA:677,1
DA:678,1
DA:680,1
DA:681,1
DA:683,1
DA:684,1
DA:685,1
DA:686,1
DA:689,1
DA:690,1
DA:691,1
DA:693,1
DA:694,1
DA:696,1
DA:697,1
DA:700,1
DA:701,1
DA:702,1
DA:704,1
DA:705,1
DA:707,1
DA:708,1
DA:709,1
DA:710,1
DA:711,1
DA:714,1
DA:715,1
DA:716,1
DA:718,1
DA:719,1
DA:721,1
DA:722,1
DA:725,1
DA:726,1
DA:727,1
DA:729,1
DA:730,1
DA:732,1
DA:733,1
DA:736,1
DA:737,1
DA:738,1
DA:739,1
DA:741,1
DA:742,1
DA:743,1
DA:744,1
DA:745,1
DA:746,1
DA:748,1
DA:749,1
DA:750,1
DA:752,1
DA:753,1
DA:754,1
DA:755,1
DA:756,1
DA:757,1
DA:758,1
DA:761,1
DA:762,1
DA:763,1
DA:764,1
DA:766,1
DA:767,1
DA:770,1
DA:771,1
DA:772,1
DA:773,1
DA:774,1
DA:775,1
DA:779,1
DA:780,1
DA:781,1
DA:782,1
DA:783,1
DA:784,1
DA:785,1
DA:786,1
DA:787,1
DA:790,1
DA:792,1
DA:793,1
DA:797,1
DA:798,1
DA:799,1
DA:800,1
DA:801,1
DA:802,1
DA:803,1
DA:804,1
DA:805,1
DA:806,1
DA:807,1
DA:808,1
DA:809,1
DA:812,1
DA:813,1
DA:814,1
DA:816,1
DA:817,1
DA:818,1
DA:819,1
DA:820,1
DA:821,1
DA:822,1
DA:823,1
DA:824,1
DA:825,1
DA:826,1
DA:827,1
DA:828,1
DA:831,1
DA:832,1
DA:833,1
DA:834,1
DA:835,1
DA:836,1
DA:837,1
DA:840,1
DA:841,1
DA:842,1
DA:843,1
DA:844,1
DA:845,1
DA:846,1
DA:849,1
DA:850,1
DA:851,1
DA:853,1
DA:854,1
DA:855,1
DA:856,1
DA:857,1
DA:858,1
DA:859,1
DA:861,1
DA:862,1
DA:863,1
DA:864,1
DA:865,1
DA:866,1
DA:867,1
DA:868,1
DA:870,1
DA:871,1
DA:872,1
DA:873,1
DA:874,1
DA:875,1
DA:876,1
DA:880,1
DA:881,1
DA:882,1
DA:883,1
DA:886,1
DA:887,1
DA:888,1
DA:889,1
DA:891,1
DA:892,1
DA:893,1
DA:897,1
DA:898,1
DA:899,1
DA:900,1
DA:902,1
DA:903,1
DA:904,1
DA:905,1
DA:906,1
DA:909,1
DA:910,1
DA:911,1
DA:913,1
DA:915,1
DA:916,1
DA:917,1
DA:918,1
DA:919,1
DA:920,1
DA:921,1
DA:922,1
DA:923,1
DA:924,1
DA:925,1
DA:926,1
DA:927,1
DA:930,1
DA:931,1
DA:932,1
DA:933,1
DA:934,1
DA:935,1
DA:936,1
DA:937,1
DA:939,1
DA:940,1
DA:941,1
DA:942,1
DA:943,1
DA:944,1
DA:945,1
DA:949,1
DA:952,1
DA:953,1
DA:954,0
DA:956,1
DA:957,1
DA:959,1
DA:960,1
DA:961,1
DA:962,1
DA:965,1
DA:966,1
DA:967,1
DA:969,1
DA:970,1
DA:971,1
DA:972,1
DA:973,1
DA:974,1
DA:975,1
DA:978,1
DA:979,1
DA:982,1
DA:983,1
DA:984,1
DA:985,1
DA:986,1
DA:987,1
DA:990,1
DA:991,1
DA:992,1
DA:993,1
DA:994,1
DA:996,1
DA:997,1
DA:998,1
DA:999,1
DA:1000,1
DA:1002,1
DA:1005,1
DA:1006,1
DA:1009,1
DA:1010,1
DA:1011,1
DA:1013,1
DA:1014,1
DA:1015,1
DA:1016,1
DA:1019,1
DA:1021,1
DA:1023,1
DA:1024,1
DA:1027,1
DA:1028,1
DA:1029,1
DA:1030,1
DA:1032,1
DA:1033,1
DA:1037,1
DA:1038,1
DA:1039,1
DA:1042,1
DA:1043,1
DA:1044,1
DA:1046,1
DA:1047,1
DA:1048,1
DA:1049,1
DA:1050,1
DA:1051,1
DA:1052,1
DA:1053,1
DA:1055,1
DA:1056,1
DA:1057,1
DA:1058,1
DA:1059,1
DA:1060,1
DA:1061,1
DA:1065,1
DA:1068,1
DA:1069,1
DA:1072,1
DA:1073,1
DA:1074,1
DA:1076,1
DA:1077,1
DA:1078,1
DA:1079,1
DA:1080,1
DA:1081,1
DA:1082,1
DA:1083,1
DA:1085,1
DA:1086,1
DA:1087,1
DA:1088,1
DA:1089,1
DA:1090,1
DA:1091,1
DA:1095,1
DA:1096,1
DA:1097,1
DA:1100,1
DA:1101,1
DA:1102,1
DA:1104,1
DA:1105,1
DA:1107,1
DA:1108,1
DA:1109,1
DA:1110,1
DA:1113,1
DA:1114,1
DA:1115,1
DA:1117,1
DA:1118,1
DA:1123,1
DA:1124,1
DA:1125,1
DA:1128,1
DA:1129,1
DA:1130,1
DA:1132,1
DA:1133,1
DA:1134,1
DA:1135,1
DA:1138,1
DA:1139,1
DA:1140,1
DA:1143,1
DA:1144,1
DA:1145,1
DA:1146,1
DA:1147,1
DA:1148,1
DA:1150,1
DA:1152,1
DA:1153,1
DA:1154,1
DA:1155,1
DA:1156,1
DA:1157,1
DA:1158,1
DA:1159,1
DA:1160,1
DA:1161,1
DA:1162,1
DA:1163,1
DA:1165,1
DA:1166,1
DA:1167,1
DA:1168,1
DA:1169,1
DA:1170,1
DA:1171,1
DA:1172,1
DA:1173,1
DA:1176,1
DA:1177,1
DA:1178,1
DA:1179,1
DA:1180,1
DA:1181,1
DA:1184,1
DA:1185,1
DA:1187,1
DA:1188,1
DA:1189,1
BRF:0
BRH:0
LF:944
LH:839
end_of_record
SF:/home/user/flexorama/src/csrf.rs
FN:69,_RNvXs_NtCsa6QFEuJDwzK_9flexorama4csrfNtB4_11CsrfManagerNtNtCs3XFJfFEDSOQ_4core7default7Default7default
FN:93,_RNCNvNtNtCsa6QFEuJDwzK_9flexorama4csrf5testss_18test_expired_token0B7_
FN:87,_RNCNvNtNtCsa6QFEuJDwzK_9flexorama4csrf5testss_18test_invalid_token0B7_
FN:79,_RNCNvNtNtCsa6QFEuJDwzK_9flexorama4csrf5testss_32test_generate_and_validate_token0B7_
FN:24,_RNvMNtCsa6QFEuJDwzK_9flexorama4csrfNtB2_11CsrfManager13with_lifetime
FN:32,_RNvMNtCsa6QFEuJDwzK_9flexorama4csrfNtB2_11CsrfManager14generate_token
FN:46,_RNvMNtCsa6QFEuJDwzK_9flexorama4csrfNtB2_11CsrfManager14validate_token
FN:62,_RNvMNtCsa6QFEuJDwzK_9flexorama4csrfNtB2_11CsrfManager22cleanup_expired_tokens
FN:16,_RNvMNtCsa6QFEuJDwzK_9flexorama4csrfNtB2_11CsrfManager3new
FN:32,_RNCNvMNtCsa6QFEuJDwzK_9flexorama4csrfNtB4_11CsrfManager14generate_token0B6_
FN:46,_RNCNvMNtCsa6QFEuJDwzK_9flexorama4csrfNtB4_11CsrfManager14validate_token0B6_
FN:64,_RNCNvMNtCsa6QFEuJDwzK_9flexorama4csrfNtB4_11CsrfManager22cleanup_expired_tokens0B6_
FN:93,_RNvNtNtCsa6QFEuJDwzK_9flexorama4csrf5testss_18test_expired_token
FN:87,_RNvNtNtCsa6QFEuJDwzK_9flexorama4csrf5testss_18test_invalid_token
FN:79,_RNvNtNtCsa6QFEuJDwzK_9flexorama4csrf5testss_32test_generate_and_validate_token
FNDA:0,_RNvXs_NtCsa6QFEuJDwzK_9flexorama4csrfNtB4_11CsrfManagerNtNtCs3XFJfFEDSOQ_4core7default7Default7default
FNDA:1,_RNCNvNtNtCsa6QFEuJDwzK_9flexorama4csrf5testss_18test_expired_token0B7_
FNDA:1,_RNCNvNtNtCsa6QFEuJDwzK_9flexorama4csrf5testss_18test_invalid_token0B7_
FNDA:1,_RNCNvNtNtCsa6QFEuJDwzK_9flexorama4csrf5testss_32test_generate_and_validate_token0B7_
FNDA:1,_RNvMNtCsa6QFEuJDwzK_9flexorama4csrfNtB2_11CsrfManager13with_lifetime
FNDA:2,_RNvMNtCsa6QFEuJDwzK_9flexorama4csrfNtB2_11CsrfManager14generate_token
FNDA:3,_RNvMNtCsa6QFEuJDwzK_9flexorama4csrfNtB2_11CsrfManager14validate_token
FNDA:2,_RNvMNtCsa6QFEuJDwzK_9flexorama4csrfNtB2_11CsrfManager22cleanup_expired_tokens
FNDA:42,_RNvMNtCsa6QFEuJDwzK_9flexorama4csrfNtB2_11CsrfManager3new
FNDA:2,_RNCNvMNtCsa6QFEuJDwzK_9flexorama4csrfNtB4_11CsrfManager14generate_token0B6_
FNDA:3,_RNCNvMNtCsa6QFEuJDwzK_9flexorama4csrfNtB4_11CsrfManager14validate_token0B6_
FNDA:2,_RNCNvMNtCsa6QFEuJDwzK_9flexorama4csrfNtB4_11CsrfManager22cleanup_expired_tokens0B6_
FNDA:1,_RNvNtNtCsa6QFEuJDwzK_9flexorama4csrf5testss_18test_expired_token
FNDA:1,_RNvNtNtCsa6QFEuJDwzK_9flexorama4csrf5testss_18test_invalid_token
FNDA:1,_RNvNtNtCsa6QFEuJDwzK_9flexorama4csrf5testss_32test_generate_and_validate_token
FNF:15
FNH:14
DA:16,42
DA:17,42
DA:18,42
DA:19,42
DA:20,42
DA:21,42
DA:24,1
DA:25,1
DA:26,1
DA:27,1
DA:28,1
DA:29,1
DA:32,2
DA:33,2
DA:34,2
DA:36,2
DA:37,2
DA:40,2
DA:42,2
DA:43,2
DA:46,3
DA:47,3
DA:50,3
DA:51,1
DA:52,1
DA:53,0
DA:55,0
DA:56,2
DA:58,2
DA:59,3
DA:62,2
DA:63,2
DA:64,2
DA:65,2
DA:69,0
DA:70,0
DA:71,0
DA:79,1
DA:80,1
DA:81,1
DA:83,1
DA:84,1
DA:87,1
DA:88,1
DA:89,1
DA:90,1
DA:93,1
DA:94,1
DA:95,1
DA:98,1
DA:100,1
DA:101,1
BRF:0
BRH:0
LF:61
LH:56
end_of_record
SF:/home/user/flexorama/src/custom_commands.rs
FN:176,_RNCNCNvNtCsa6QFEuJDwzK_9flexorama15custom_commands20list_custom_commands00B7_
FN:179,_RNCNCNvNtCsa6QFEuJDwzK_9flexorama15custom_commands20list_custom_commands0s_0B7_
FN:137,_RNCNCNvNtCsa6QFEuJDwzK_9flexorama15custom_commands27render_custom_command_input00B7_
FN:117,_RNCNvMNtCsa6QFEuJDwzK_9flexorama15custom_commandsNtB4_13CustomCommand6render0B6_
FN:394,_RNCNvNtCsa6QFEuJDwzK_9flexorama15custom_commands12commands_dir0B5_
FN:192,_RNCNvNtCsa6QFEuJDwzK_9flexorama15custom_commands19load_custom_command0B5_
FN:202,_RNCNvNtCsa6QFEuJDwzK_9flexorama15custom_commands19save_custom_command0B5_
FN:165,_RNCNvNtCsa6QFEuJDwzK_9flexorama15custom_commands20list_custom_commands0B5_
FN:367,_RNCNvNtCsa6QFEuJDwzK_9flexorama15custom_commands20missing_args_message0B5_
FN:367,_RNCNvNtCsa6QFEuJDwzK_9flexorama15custom_commands20missing_args_messages_0B5_
FN:216,_RNCNvNtCsa6QFEuJDwzK_9flexorama15custom_commands21delete_custom_command0B5_
FN:404,_RNCNvNtCsa6QFEuJDwzK_9flexorama15custom_commands22load_command_from_path0B5_
FN:255,_RNCNvNtCsa6QFEuJDwzK_9flexorama15custom_commands23normalize_allowed_tools0B5_
FN:260,_RNCNvNtCsa6QFEuJDwzK_9flexorama15custom_commands23normalize_allowed_toolss0_0B5_
FN:261,_RNCNvNtCsa6QFEuJDwzK_9flexorama15custom_commands23normalize_allowed_toolss1_0B5_
FN:256,_RNCNvNtCsa6QFEuJDwzK_9flexorama15custom_commands23normalize_allowed_toolss_0B5_
FN:129,_RNCNvNtCsa6QFEuJDwzK_9flexorama15custom_commands27render_custom_command_input0B5_
FN:436,_RNvXs_NtNtCsa6QFEuJDwzK_9flexorama15custom_commands5testsNtB4_8EnvGuardNtNtNtCs3XFJfFEDSOQ_4core3ops4drop4Drop4drop
FN:77,_RNvMNtCsa6QFEuJDwzK_9flexorama15custom_commandsNtB2_13CustomCommand11to_markdown
FN:43,_RNvMNtCsa6QFEuJDwzK_9flexorama15custom_commandsNtB2_13CustomCommand13from_markdown
FN:103,_RNvMNtCsa6QFEuJDwzK_9flexorama15custom_commandsNtB2_13CustomCommand6render
FN:387,_RNvNtCsa6QFEuJDwzK_9flexorama15custom_commands12commands_dir
FN:330,_RNvNtCsa6QFEuJDwzK_9flexorama15custom_commands12strip_quotes
FN:400,_RNvNtCsa6QFEuJDwzK_9flexorama15custom_commands17command_file_path
FN:225,_RNvNtCsa6QFEuJDwzK_9flexorama15custom_commands17split_frontmatter
FN:343,_RNvNtCsa6QFEuJDwzK_9flexorama15custom_commands18required_arg_count
FN:192,_RNvNtCsa6QFEuJDwzK_9flexorama15custom_commands19load_custom_command
FN:202,_RNvNtCsa6QFEuJDwzK_9flexorama15custom_commands19save_custom_command
FN:165,_RNvNtCsa6QFEuJDwzK_9flexorama15custom_commands20list_custom_commands
FN:365,_RNvNtCsa6QFEuJDwzK_9flexorama15custom_commands20missing_args_message
FN:216,_RNvNtCsa6QFEuJDwzK_9flexorama15custom_commands21delete_custom_command
FN:404,_RNvNtCsa6QFEuJDwzK_9flexorama15custom_commands22load_command_from_path
FN:375,_RNvNtCsa6QFEuJDwzK_9flexorama15custom_commands22normalize_command_name
FN:251,_RNvNtCsa6QFEuJDwzK_9flexorama15custom_commands23normalize_allowed_tools
FN:267,_RNvNtCsa6QFEuJDwzK_9flexorama15custom_commands23parse_frontmatter_loose
FN:129,_RNvNtCsa6QFEuJDwzK_9flexorama15custom_commands27render_custom_command_input
FN:555,_RNCNCNvNtNtCsa6QFEuJDwzK_9flexorama15custom_commands5testss_29test_list_and_delete_commands00B9_
FN:534,_RNCNCNvNtNtCsa6QFEuJDwzK_9flexorama15custom_commands5testss_34test_render_custom_command_success00B9_
FN:513,_RNCNCNvNtNtCsa6QFEuJDwzK_9flexorama15custom_commands5testss_40test_render_custom_command_requires_args00B9_
FN:555,_RNCNvNtNtCsa6QFEuJDwzK_9flexorama15custom_commands5testss_29test_list_and_delete_commands0B7_
FN:534,_RNCNvNtNtCsa6QFEuJDwzK_9flexorama15custom_commands5testss_34test_render_custom_command_success0B7_
FN:513,_RNCNvNtNtCsa6QFEuJDwzK_9flexorama15custom_commands5testss_40test_render_custom_command_requires_args0B7_
FN:422,_RNvMNtNtCsa6QFEuJDwzK_9flexorama15custom_commands5testsNtB2_8EnvGuard16set_commands_dir
FN:498,_RNvNtNtCsa6QFEuJDwzK_9flexorama15custom_commands5testss_28test_render_substitutes_args
FN:456,_RNvNtNtCsa6QFEuJDwzK_9flexorama15custom_commands5testss_42test_from_markdown_parses_yaml_frontmatter
FN:477,_RNvNtNtCsa6QFEuJDwzK_9flexorama15custom_commands5testss_43test_from_markdown_parses_loose_frontmatter
FNDA:4,_RNCNCNvNtCsa6QFEuJDwzK_9flexorama15custom_commands20list_custom_commands00B7_
FNDA:4,_RNCNCNvNtCsa6QFEuJDwzK_9flexorama15custom_commands20list_custom_commands0s_0B7_
FNDA:12,_RNCNCNvNtCsa6QFEuJDwzK_9flexorama15custom_commands27render_custom_command_input00B7_
FNDA:3,_RNCNvMNtCsa6QFEuJDwzK_9flexorama15custom_commandsNtB4_13CustomCommand6render0B6_
FNDA:0,_RNCNvNtCsa6QFEuJDwzK_9flexorama15custom_commands12commands_dir0B5_
FNDA:7,_RNCNvNtCsa6QFEuJDwzK_9flexorama15custom_commands19load_custom_command0B5_
FNDA:6,_RNCNvNtCsa6QFEuJDwzK_9flexorama15custom_commands19save_custom_command0B5_
FNDA:3,_RNCNvNtCsa6QFEuJDwzK_9flexorama15custom_commands20list_custom_commands0B5_
FNDA:1,_RNCNvNtCsa6QFEuJDwzK_9flexorama15custom_commands20missing_args_message0B5_
FNDA:1,_RNCNvNtCsa6QFEuJDwzK_9flexorama15custom_commands20missing_args_messages_0B5_
FNDA:2,_RNCNvNtCsa6QFEuJDwzK_9flexorama15custom_commands21delete_custom_command0B5_
FNDA:10,_RNCNvNtCsa6QFEuJDwzK_9flexorama15custom_commands22load_command_from_path0B5_
FNDA:2,_RNCNvNtCsa6QFEuJDwzK_9flexorama15custom_commands23normalize_allowed_tools0B5_
FNDA:6,_RNCNvNtCsa6QFEuJDwzK_9flexorama15custom_commands23normalize_allowed_toolss0_0B5_
FNDA:6,_RNCNvNtCsa6QFEuJDwzK_9flexorama15custom_commands23normalize_allowed_toolss1_0B5_
FNDA:2,_RNCNvNtCsa6QFEuJDwzK_9flexorama15custom_commands23normalize_allowed_toolss_0B5_
FNDA:2,_RNCNvNtCsa6QFEuJDwzK_9flexorama15custom_commands27render_custom_command_input0B5_
FNDA:3,_RNvXs_NtNtCsa6QFEuJDwzK_9flexorama15custom_commands5testsNtB4_8EnvGuardNtNtNtCs3XFJfFEDSOQ_4core3ops4drop4Drop4drop
FNDA:6,_RNvMNtCsa6QFEuJDwzK_9flexorama15custom_commandsNtB2_13CustomCommand11to_markdown
FNDA:12,_RNvMNtCsa6QFEuJDwzK_9flexorama15custom_commandsNtB2_13CustomCommand13from_markdown
FNDA:2,_RNvMNtCsa6QFEuJDwzK_9flexorama15custom_commandsNtB2_13CustomCommand6render
FNDA:24,_RNvNtCsa6QFEuJDwzK_9flexorama15custom_commands12commands_dir
FNDA:26,_RNvNtCsa6QFEuJDwzK_9flexorama15custom_commands12strip_quotes
FNDA:15,_RNvNtCsa6QFEuJDwzK_9flexorama15custom_commands17command_file_path
FNDA:12,_RNvNtCsa6QFEuJDwzK_9flexorama15custom_commands17split_frontmatter
FNDA:2,_RNvNtCsa6QFEuJDwzK_9flexorama15custom_commands18required_arg_count
FNDA:7,_RNvNtCsa6QFEuJDwzK_9flexorama15custom_commands19load_custom_command
FNDA:6,_RNvNtCsa6QFEuJDwzK_9flexorama15custom_commands19save_custom_command
FNDA:3,_RNvNtCsa6QFEuJDwzK_9flexorama15custom_commands20list_custom_commands
FNDA:1,_RNvNtCsa6QFEuJDwzK_9flexorama15custom_commands20missing_args_message
FNDA:2,_RNvNtCsa6QFEuJDwzK_9flexorama15custom_commands21delete_custom_command
FNDA:10,_RNvNtCsa6QFEuJDwzK_9flexorama15custom_commands22load_command_from_path
FNDA:15,_RNvNtCsa6QFEuJDwzK_9flexorama15custom_commands22normalize_command_name
FNDA:8,_RNvNtCsa6QFEuJDwzK_9flexorama15custom_commands23normalize_allowed_tools
FNDA:8,_RNvNtCsa6QFEuJDwzK_9flexorama15custom_commands23parse_frontmatter_loose
FNDA:2,_RNvNtCsa6QFEuJDwzK_9flexorama15custom_commands27render_custom_command_input
FNDA:1,_RNCNCNvNtNtCsa6QFEuJDwzK_9flexorama15custom_commands5testss_29test_list_and_delete_commands00B9_
FNDA:1,_RNCNCNvNtNtCsa6QFEuJDwzK_9flexorama15custom_commands5testss_34test_render_custom_command_success00B9_
FNDA:1,_RNCNCNvNtNtCsa6QFEuJDwzK_9flexorama15custom_commands5testss_40test_render_custom_command_requires_args00B9_
FNDA:1,_RNCNvNtNtCsa6QFEuJDwzK_9flexorama15custom_commands5testss_29test_list_and_delete_commands0B7_
FNDA:1,_RNCNvNtNtCsa6QFEuJDwzK_9flexorama15custom_commands5testss_34test_render_custom_command_success0B7_
FNDA:1,_RNCNvNtNtCsa6QFEuJDwzK_9flexorama15custom_commands5testss_40test_render_custom_command_requires_args0B7_
FNDA:3,_RNvMNtNtCsa6QFEuJDwzK_9flexorama15custom_commands5testsNtB2_8EnvGuard16set_commands_dir
FNDA:1,_RNvNtNtCsa6QFEuJDwzK_9flexorama15custom_commands5testss_28test_render_substitutes_args
FNDA:1,_RNvNtNtCsa6QFEuJDwzK_9flexorama15custom_commands5testss_42test_from_markdown_parses_yaml_frontmatter
FNDA:1,_RNvNtNtCsa6QFEuJDwzK_9flexorama15custom_commands5testss_43test_from_markdown_parses_loose_frontmatter
FNF:43
FNH:42
DA:43,12
DA:44,12
DA:45,12
DA:46,12
DA:47,12
DA:48,12
DA:49,12
DA:50,12
DA:51,12
DA:52,12
DA:54,12
DA:55,12
DA:56,8
DA:57,0
DA:58,0
DA:59,0
DA:60,0
DA:61,0
DA:62,0
DA:63,8
DA:64,8
DA:65,8
DA:66,8
DA:67,8
DA:68,8
DA:69,8
DA:71,4
DA:72,0
DA:74,12
DA:75,12
DA:77,6
DA:78,6
DA:79,6
DA:80,1
DA:81,5
DA:82,6
DA:83,3
DA:84,3
DA:85,3
DA:86,3
DA:87,6
DA:88,2
DA:89,2
DA:90,2
DA:91,4
DA:92,6
DA:93,1
DA:94,1
DA:95,1
DA:96,5
DA:98,6
DA:99,6
DA:100,6
DA:101,6
DA:103,2
DA:104,2
DA:105,2
DA:106,2
DA:107,1
DA:108,1
DA:110,2
DA:111,0
DA:113,2
DA:116,2
DA:117,3
DA:118,3
DA:119,3
DA:120,0
DA:122,3
DA:124,3
DA:125,2
DA:126,2
DA:129,2
DA:130,2
DA:131,2
DA:132,0
DA:133,2
DA:135,2
DA:136,2
DA:137,12
DA:138,2
DA:139,2
DA:140,0
DA:141,2
DA:142,2
DA:144,2
DA:145,2
DA:146,0
DA:149,2
DA:150,1
DA:152,1
DA:154,2
DA:155,2
DA:156,1
DA:157,1
DA:158,1
DA:159,0
DA:161,1
DA:162,1
DA:163,2
DA:165,3
DA:166,3
DA:167,3
DA:168,0
DA:169,3
DA:171,3
DA:172,3
DA:174,7
DA:175,4
DA:176,4
DA:177,0
DA:178,4
DA:179,4
DA:180,4
DA:181,0
DA:183,4
DA:184,4
DA:185,0
DA:189,3
DA:190,3
DA:192,7
DA:193,7
DA:194,7
DA:195,7
DA:196,1
DA:197,6
DA:198,6
DA:199,6
DA:200,7
DA:202,6
DA:203,6
DA:204,6
DA:205,6
DA:206,6
DA:207,6
DA:208,6
DA:209,6
DA:210,6
DA:211,6
DA:212,6
DA:213,6
DA:214,6
DA:216,2
DA:217,2
DA:218,2
DA:219,2
DA:220,2
DA:221,0
DA:222,2
DA:223,2
DA:225,12
DA:226,12
DA:227,12
DA:228,12
DA:229,0
DA:230,12
DA:232,12
DA:233,12
DA:234,43
DA:235,43
DA:236,12
DA:237,12
DA:238,31
DA:239,31
DA:242,12
DA:243,0
DA:244,12
DA:246,12
DA:247,12
DA:248,12
DA:249,12
DA:251,8
DA:252,6
DA:253,1
DA:254,1
DA:255,2
DA:256,2
DA:257,1
DA:258,5
DA:259,5
DA:260,6
DA:261,6
DA:262,5
DA:263,2
DA:265,8
DA:267,8
DA:268,8
DA:269,8
DA:270,8
DA:271,27
DA:272,27
DA:273,27
DA:274,0
DA:275,27
DA:277,27
DA:278,3
DA:279,2
DA:280,2
DA:281,2
DA:282,2
DA:283,2
DA:284,1
DA:285,1
DA:286,1
DA:287,24
DA:289,25
DA:290,25
DA:291,25
DA:292,25
DA:293,0
DA:294,25
DA:295,25
DA:296,25
DA:297,6
DA:298,1
DA:299,1
DA:300,5
DA:301,5
DA:302,5
DA:303,5
DA:305,19
DA:306,8
DA:307,8
DA:308,8
DA:310,11
DA:311,6
DA:312,6
DA:313,6
DA:315,5
DA:316,5
DA:317,5
DA:318,5
DA:320,0
DA:324,8
DA:325,1
DA:326,7
DA:327,8
DA:328,8
DA:330,26
DA:331,26
DA:332,26
DA:333,26
DA:334,26
DA:335,26
DA:337,0
DA:338,26
DA:339,0
DA:340,26
DA:341,26
DA:343,2
DA:344,2
DA:345,2
DA:346,1
DA:347,1
DA:349,2
DA:350,2
DA:351,1
DA:352,1
DA:353,1
DA:354,1
DA:355,0
DA:358,2
DA:359,2
DA:361,0
DA:363,2
DA:365,1
DA:366,1
DA:367,1
DA:369,1
DA:371,0
DA:373,1
DA:375,15
DA:376,15
DA:377,15
DA:378,15
DA:379,0
DA:380,15
DA:381,15
DA:382,0
DA:383,15
DA:384,15
DA:385,15
DA:387,24
DA:388,24
DA:389,24
DA:390,24
DA:391,0
DA:392,0
DA:393,0
DA:394,0
DA:395,0
DA:396,0
DA:397,0
DA:398,24
DA:400,15
DA:401,15
DA:402,15
DA:404,10
DA:405,10
DA:406,10
DA:407,10
DA:422,3
DA:423,3
DA:424,3
DA:425,3
DA:426,3
DA:427,3
DA:428,3
DA:429,3
DA:430,3
DA:431,3
DA:432,3
DA:436,3
DA:437,3
DA:438,3
DA:439,3
DA:440,0
DA:441,0
DA:442,3
DA:443,0
DA:444,3
DA:445,3
DA:446,3
DA:447,3
DA:448,0
DA:449,3
DA:450,3
DA:451,3
DA:452,3
DA:456,1
DA:457,1
DA:458,1
DA:459,1
DA:460,1
DA:461,1
DA:462,1
DA:463,1
DA:464,1
DA:465,1
DA:466,1
DA:467,1
DA:468,1
DA:469,1
DA:470,1
DA:471,1
DA:472,1
DA:473,1
DA:474,1
DA:477,1
DA:478,1
DA:479,1
DA:480,1
DA:481,1
DA:482,1
DA:483,1
DA:484,1
DA:485,1
DA:486,1
DA:488,1
DA:489,1
DA:490,1
DA:493,1
DA:494,1
DA:495,1
DA:498,1
DA:499,1
DA:500,1
DA:501,1
DA:502,1
DA:503,1
DA:504,1
DA:505,1
DA:506,1
DA:507,1
DA:508,1
DA:509,1
DA:513,2
DA:514,1
DA:515,1
DA:516,1
DA:517,1
DA:518,1
DA:519,1
DA:520,1
DA:521,1
DA:522,1
DA:523,1
DA:524,1
DA:525,1
DA:526,1
DA:527,1
DA:528,1
DA:529,1
DA:534,2
DA:535,1
DA:536,1
DA:537,1
DA:538,1
DA:539,1
DA:540,1
DA:541,1
DA:542,1
DA:543,1
DA:544,1
DA:545,1
DA:546,1
DA:547,1
DA:548,1
DA:549,1
DA:550,1
DA:555,2
DA:556,1
DA:557,1
DA:558,1
DA:559,1
DA:560,1
DA:561,1
DA:562,1
DA:563,1
DA:564,1
DA:565,1
DA:566,1
DA:567,1
DA:568,1
DA:569,1
DA:570,1
DA:571,1
DA:572,1
DA:573,1
DA:574,1
DA:575,1
DA:576,1
DA:577,1
DA:578,1
DA:579,1
DA:580,1
DA:581,1
DA:582,1
DA:583,1
DA:584,1
DA:585,1
DA:586,1
DA:587,1
DA:588,1
DA:589,1
DA:590,1
DA:591,1
BRF:0
BRH:0
LF:464
LH:422
end_of_record
SF:/home/user/flexorama/src/database.rs
FN:254,_RNCNvMNtCsa6QFEuJDwzK_9flexorama8databaseNtB4_15DatabaseManager5close0B6_
FN:1121,_RNCNvNtCsa6QFEuJDwzK_9flexorama8database17get_database_path0B5_
FN:249,_RNvMNtCsa6QFEuJDwzK_9flexorama8databaseNtB2_15DatabaseManager4path
FN:254,_RNvMNtCsa6QFEuJDwzK_9flexorama8databaseNtB2_15DatabaseManager5close
FN:1111,_RNvNtCsa6QFEuJDwzK_9flexorama8database17get_database_path
FN:1229,_RNCNCNvNtNtCsa6QFEuJDwzK_9flexorama8database5testss_45test_get_recent_conversations_with_pagination00B9_
FN:1230,_RNCNCNvNtNtCsa6QFEuJDwzK_9flexorama8database5testss_45test_get_recent_conversations_with_pagination0s_0B9_
FN:1143,_RNCNvNtNtCsa6QFEuJDwzK_9flexorama8database5tests14create_test_db0B7_
FN:1293,_RNCNvNtNtCsa6QFEuJDwzK_9flexorama8database5testss_34test_pagination_with_search_filter0B7_
FN:1183,_RNCNvNtNtCsa6QFEuJDwzK_9flexorama8database5testss_45test_get_recent_conversations_with_pagination0B7_
FN:1249,_RNCNvNtNtCsa6QFEuJDwzK_9flexorama8database5testss_53test_get_recent_conversations_backwards_compatibility0B7_
FN:79,_RNvMNtCsa6QFEuJDwzK_9flexorama8databaseNtB2_15DatabaseManager14run_migrations
FN:18,_RNvMNtCsa6QFEuJDwzK_9flexorama8databaseNtB2_15DatabaseManager3new
FN:532,_RNvMs_NtCsa6QFEuJDwzK_9flexorama8databaseNtB4_15DatabaseManager10list_plans
FN:420,_RNvMs_NtCsa6QFEuJDwzK_9flexorama8databaseNtB4_15DatabaseManager11add_message
FN:480,_RNvMs_NtCsa6QFEuJDwzK_9flexorama8databaseNtB4_15DatabaseManager11create_plan
FN:604,_RNvMs_NtCsa6QFEuJDwzK_9flexorama8databaseNtB4_15DatabaseManager11delete_plan
FN:568,_RNvMs_NtCsa6QFEuJDwzK_9flexorama8databaseNtB4_15DatabaseManager11update_plan
FN:669,_RNvMs_NtCsa6QFEuJDwzK_9flexorama8databaseNtB4_15DatabaseManager13add_tool_call
FN:613,_RNvMs_NtCsa6QFEuJDwzK_9flexorama8databaseNtB4_15DatabaseManager16get_conversation
FN:695,_RNvMs_NtCsa6QFEuJDwzK_9flexorama8databaseNtB4_15DatabaseManager18complete_tool_call
FN:931,_RNvMs_NtCsa6QFEuJDwzK_9flexorama8databaseNtB4_15DatabaseManager18get_stats_by_model
FN:972,_RNvMs_NtCsa6QFEuJDwzK_9flexorama8databaseNtB4_15DatabaseManager18get_stats_overview
FN:840,_RNvMs_NtCsa6QFEuJDwzK_9flexorama8databaseNtB4_15DatabaseManager18update_usage_stats
FN:386,_RNvMs_NtCsa6QFEuJDwzK_9flexorama8databaseNtB4_15DatabaseManager19create_conversation
FN:894,_RNvMs_NtCsa6QFEuJDwzK_9flexorama8databaseNtB4_15DatabaseManager21get_usage_stats_range
FN:750,_RNvMs_NtCsa6QFEuJDwzK_9flexorama8databaseNtB4_15DatabaseManager24get_recent_conversations
FN:642,_RNvMs_NtCsa6QFEuJDwzK_9flexorama8databaseNtB4_15DatabaseManager25get_conversation_messages
FN:818,_RNvMs_NtCsa6QFEuJDwzK_9flexorama8databaseNtB4_15DatabaseManager25update_conversation_model
FN:718,_RNvMs_NtCsa6QFEuJDwzK_9flexorama8databaseNtB4_15DatabaseManager27get_conversation_tool_calls
FN:1000,_RNvMs_NtCsa6QFEuJDwzK_9flexorama8databaseNtB4_15DatabaseManager31get_conversation_counts_by_date
FN:760,_RNvMs_NtCsa6QFEuJDwzK_9flexorama8databaseNtB4_15DatabaseManager36get_recent_conversations_with_offset
FN:1032,_RNvMs_NtCsa6QFEuJDwzK_9flexorama8databaseNtB4_15DatabaseManager41get_conversation_counts_by_date_and_model
FN:1070,_RNvMs_NtCsa6QFEuJDwzK_9flexorama8databaseNtB4_15DatabaseManager44get_conversation_counts_by_date_and_subagent
FN:509,_RNvMs_NtCsa6QFEuJDwzK_9flexorama8databaseNtB4_15DatabaseManager8get_plan
FN:261,_RNvNtCsa6QFEuJDwzK_9flexorama8database21create_slug_from_path
FN:555,_RNCNCNvMs_NtCsa6QFEuJDwzK_9flexorama8databaseNtB8_15DatabaseManager10list_plans00Ba_
FN:578,_RNCNCNvMs_NtCsa6QFEuJDwzK_9flexorama8databaseNtB8_15DatabaseManager11update_plan00Ba_
FN:600,_RNCNCNvMs_NtCsa6QFEuJDwzK_9flexorama8databaseNtB8_15DatabaseManager11update_plan0s_0Ba_
FN:937,_RNCNCNvMs_NtCsa6QFEuJDwzK_9flexorama8databaseNtB8_15DatabaseManager18get_stats_by_model00Ba_
FN:961,_RNCNCNvMs_NtCsa6QFEuJDwzK_9flexorama8databaseNtB8_15DatabaseManager18get_stats_by_model0s0_0Ba_
FN:938,_RNCNCNvMs_NtCsa6QFEuJDwzK_9flexorama8databaseNtB8_15DatabaseManager18get_stats_by_model0s_0Ba_
FN:900,_RNCNCNvMs_NtCsa6QFEuJDwzK_9flexorama8databaseNtB8_15DatabaseManager21get_usage_stats_range00Ba_
FN:919,_RNCNCNvMs_NtCsa6QFEuJDwzK_9flexorama8databaseNtB8_15DatabaseManager21get_usage_stats_range0s0_0Ba_
FN:901,_RNCNCNvMs_NtCsa6QFEuJDwzK_9flexorama8databaseNtB8_15DatabaseManager21get_usage_stats_range0s_0Ba_
FN:658,_RNCNCNvMs_NtCsa6QFEuJDwzK_9flexorama8databaseNtB8_15DatabaseManager25get_conversation_messages00Ba_
FN:737,_RNCNCNvMs_NtCsa6QFEuJDwzK_9flexorama8databaseNtB8_15DatabaseManager27get_conversation_tool_calls00Ba_
FN:1006,_RNCNCNvMs_NtCsa6QFEuJDwzK_9flexorama8databaseNtB8_15DatabaseManager31get_conversation_counts_by_date00Ba_
FN:1025,_RNCNCNvMs_NtCsa6QFEuJDwzK_9flexorama8databaseNtB8_15DatabaseManager31get_conversation_counts_by_date0s0_0Ba_
FN:1007,_RNCNCNvMs_NtCsa6QFEuJDwzK_9flexorama8databaseNtB8_15DatabaseManager31get_conversation_counts_by_date0s_0Ba_
FN:803,_RNCNCNvMs_NtCsa6QFEuJDwzK_9flexorama8databaseNtB8_15DatabaseManager36get_recent_conversations_with_offset00Ba_
FN:1038,_RNCNCNvMs_NtCsa6QFEuJDwzK_9flexorama8databaseNtB8_15DatabaseManager41get_conversation_counts_by_date_and_model00Ba_
FN:1057,_RNCNCNvMs_NtCsa6QFEuJDwzK_9flexorama8databaseNtB8_15DatabaseManager41get_conversation_counts_by_date_and_model0s0_0Ba_
FN:1039,_RNCNCNvMs_NtCsa6QFEuJDwzK_9flexorama8databaseNtB8_15DatabaseManager41get_conversation_counts_by_date_and_model0s_0Ba_
FN:1076,_RNCNCNvMs_NtCsa6QFEuJDwzK_9flexorama8databaseNtB8_15DatabaseManager44get_conversation_counts_by_date_and_subagent00Ba_
FN:1097,_RNCNCNvMs_NtCsa6QFEuJDwzK_9flexorama8databaseNtB8_15DatabaseManager44get_conversation_counts_by_date_and_subagent0s0_0Ba_
FN:1077,_RNCNCNvMs_NtCsa6QFEuJDwzK_9flexorama8databaseNtB8_15DatabaseManager44get_conversation_counts_by_date_and_subagent0s_0Ba_
FN:522,_RNCNCNvMs_NtCsa6QFEuJDwzK_9flexorama8databaseNtB8_15DatabaseManager8get_plan00Ba_
FN:79,_RNCNvMNtCsa6QFEuJDwzK_9flexorama8databaseNtB4_15DatabaseManager14run_migrations0B6_
FN:18,_RNCNvMNtCsa6QFEuJDwzK_9flexorama8databaseNtB4_15DatabaseManager3new0B6_
FN:532,_RNCNvMs_NtCsa6QFEuJDwzK_9flexorama8databaseNtB6_15DatabaseManager10list_plans0B8_
FN:427,_RNCNvMs_NtCsa6QFEuJDwzK_9flexorama8databaseNtB6_15DatabaseManager11add_message0B8_
FN:486,_RNCNvMs_NtCsa6QFEuJDwzK_9flexorama8databaseNtB6_15DatabaseManager11create_plan0B8_
FN:604,_RNCNvMs_NtCsa6QFEuJDwzK_9flexorama8databaseNtB6_15DatabaseManager11delete_plan0B8_
FN:574,_RNCNvMs_NtCsa6QFEuJDwzK_9flexorama8databaseNtB6_15DatabaseManager11update_plan0B8_
FN:676,_RNCNvMs_NtCsa6QFEuJDwzK_9flexorama8databaseNtB6_15DatabaseManager13add_tool_call0B8_
FN:613,_RNCNvMs_NtCsa6QFEuJDwzK_9flexorama8databaseNtB6_15DatabaseManager16get_conversation0B8_
FN:700,_RNCNvMs_NtCsa6QFEuJDwzK_9flexorama8databaseNtB6_15DatabaseManager18complete_tool_call0B8_
FN:935,_RNCNvMs_NtCsa6QFEuJDwzK_9flexorama8databaseNtB6_15DatabaseManager18get_stats_by_model0B8_
FN:972,_RNCNvMs_NtCsa6QFEuJDwzK_9flexorama8databaseNtB6_15DatabaseManager18get_stats_overview0B8_
FN:840,_RNCNvMs_NtCsa6QFEuJDwzK_9flexorama8databaseNtB6_15DatabaseManager18update_usage_stats0B8_
FN:391,_RNCNvMs_NtCsa6QFEuJDwzK_9flexorama8databaseNtB6_15DatabaseManager19create_conversation0B8_
FN:898,_RNCNvMs_NtCsa6QFEuJDwzK_9flexorama8databaseNtB6_15DatabaseManager21get_usage_stats_range0B8_
FN:754,_RNCNvMs_NtCsa6QFEuJDwzK_9flexorama8databaseNtB6_15DatabaseManager24get_recent_conversations0B8_
FN:642,_RNCNvMs_NtCsa6QFEuJDwzK_9flexorama8databaseNtB6_15DatabaseManager25get_conversation_messages0B8_
FN:822,_RNCNvMs_NtCsa6QFEuJDwzK_9flexorama8databaseNtB6_15DatabaseManager25update_conversation_model0B8_
FN:721,_RNCNvMs_NtCsa6QFEuJDwzK_9flexorama8databaseNtB6_15DatabaseManager27get_conversation_tool_calls0B8_
FN:1004,_RNCNvMs_NtCsa6QFEuJDwzK_9flexorama8databaseNtB6_15DatabaseManager31get_conversation_counts_by_date0B8_
FN:765,_RNCNvMs_NtCsa6QFEuJDwzK_9flexorama8databaseNtB6_15DatabaseManager36get_recent_conversations_with_offset0B8_
FN:1036,_RNCNvMs_NtCsa6QFEuJDwzK_9flexorama8databaseNtB6_15DatabaseManager41get_conversation_counts_by_date_and_model0B8_
FN:1074,_RNCNvMs_NtCsa6QFEuJDwzK_9flexorama8databaseNtB6_15DatabaseManager44get_conversation_counts_by_date_and_subagent0B8_
FN:509,_RNCNvMs_NtCsa6QFEuJDwzK_9flexorama8databaseNtB6_15DatabaseManager8get_plan0B8_
FN:270,_RNCNvNtCsa6QFEuJDwzK_9flexorama8database21create_slug_from_path0B5_
FN:1143,_RNvNtNtCsa6QFEuJDwzK_9flexorama8database5tests14create_test_db
FN:1151,_RNvNtNtCsa6QFEuJDwzK_9flexorama8database5testss_26test_create_slug_from_path
FN:1293,_RNvNtNtCsa6QFEuJDwzK_9flexorama8database5testss_34test_pagination_with_search_filter
FN:1183,_RNvNtNtCsa6QFEuJDwzK_9flexorama8database5testss_45test_get_recent_conversations_with_pagination
FN:1249,_RNvNtNtCsa6QFEuJDwzK_9flexorama8database5testss_53test_get_recent_conversations_backwards_compatibility
FNDA:0,_RNCNvMNtCsa6QFEuJDwzK_9flexorama8databaseNtB4_15DatabaseManager5close0B6_
FNDA:0,_RNCNvNtCsa6QFEuJDwzK_9flexorama8database17get_database_path0B5_
FNDA:0,_RNvMNtCsa6QFEuJDwzK_9flexorama8databaseNtB2_15DatabaseManager4path
FNDA:0,_RNvMNtCsa6QFEuJDwzK_9flexorama8databaseNtB2_15DatabaseManager5close
FNDA:0,_RNvNtCsa6QFEuJDwzK_9flexorama8database17get_database_path
FNDA:10,_RNCNCNvNtNtCsa6QFEuJDwzK_9flexorama8database5testss_45test_get_recent_conversations_with_pagination00B9_
FNDA:10,_RNCNCNvNtNtCsa6QFEuJDwzK_9flexorama8database5testss_45test_get_recent_conversations_with_pagination0s_0B9_
FNDA:3,_RNCNvNtNtCsa6QFEuJDwzK_9flexorama8database5tests14create_test_db0B7_
FNDA:1,_RNCNvNtNtCsa6QFEuJDwzK_9flexorama8database5testss_34test_pagination_with_search_filter0B7_
FNDA:1,_RNCNvNtNtCsa6QFEuJDwzK_9flexorama8database5testss_45test_get_recent_conversations_with_pagination0B7_
FNDA:1,_RNCNvNtNtCsa6QFEuJDwzK_9flexorama8database5testss_53test_get_recent_conversations_backwards_compatibility0B7_
FNDA:54,_RNvMNtCsa6QFEuJDwzK_9flexorama8databaseNtB2_15DatabaseManager14run_migrations
FNDA:54,_RNvMNtCsa6QFEuJDwzK_9flexorama8databaseNtB2_15DatabaseManager3new
FNDA:2,_RNvMs_NtCsa6QFEuJDwzK_9flexorama8databaseNtB4_15DatabaseManager10list_plans
FNDA:72,_RNvMs_NtCsa6QFEuJDwzK_9flexorama8databaseNtB4_15DatabaseManager11add_message
FNDA:5,_RNvMs_NtCsa6QFEuJDwzK_9flexorama8databaseNtB4_15DatabaseManager11create_plan
FNDA:1,_RNvMs_NtCsa6QFEuJDwzK_9flexorama8databaseNtB4_15DatabaseManager11delete_plan
FNDA:1,_RNvMs_NtCsa6QFEuJDwzK_9flexorama8databaseNtB4_15DatabaseManager11update_plan
FNDA:0,_RNvMs_NtCsa6QFEuJDwzK_9flexorama8databaseNtB4_15DatabaseManager13add_tool_call
FNDA:4,_RNvMs_NtCsa6QFEuJDwzK_9flexorama8databaseNtB4_15DatabaseManager16get_conversation
FNDA:0,_RNvMs_NtCsa6QFEuJDwzK_9flexorama8databaseNtB4_15DatabaseManager18complete_tool_call
FNDA:1,_RNvMs_NtCsa6QFEuJDwzK_9flexorama8databaseNtB4_15DatabaseManager18get_stats_by_model
FNDA:3,_RNvMs_NtCsa6QFEuJDwzK_9flexorama8databaseNtB4_15DatabaseManager18get_stats_overview
FNDA:3,_RNvMs_NtCsa6QFEuJDwzK_9flexorama8databaseNtB4_15DatabaseManager18update_usage_stats
FNDA:77,_RNvMs_NtCsa6QFEuJDwzK_9flexorama8databaseNtB4_15DatabaseManager19create_conversation
FNDA:1,_RNvMs_NtCsa6QFEuJDwzK_9flexorama8databaseNtB4_15DatabaseManager21get_usage_stats_range
FNDA:7,_RNvMs_NtCsa6QFEuJDwzK_9flexorama8databaseNtB4_15DatabaseManager24get_recent_conversations
FNDA:9,_RNvMs_NtCsa6QFEuJDwzK_9flexorama8databaseNtB4_15DatabaseManager25get_conversation_messages
FNDA:1,_RNvMs_NtCsa6QFEuJDwzK_9flexorama8databaseNtB4_15DatabaseManager25update_conversation_model
FNDA:1,_RNvMs_NtCsa6QFEuJDwzK_9flexorama8databaseNtB4_15DatabaseManager27get_conversation_tool_calls
FNDA:1,_RNvMs_NtCsa6QFEuJDwzK_9flexorama8databaseNtB4_15DatabaseManager31get_conversation_counts_by_date
FNDA:16,_RNvMs_NtCsa6QFEuJDwzK_9flexorama8databaseNtB4_15DatabaseManager36get_recent_conversations_with_offset
FNDA:1,_RNvMs_NtCsa6QFEuJDwzK_9flexorama8databaseNtB4_15DatabaseManager41get_conversation_counts_by_date_and_model
FNDA:1,_RNvMs_NtCsa6QFEuJDwzK_9flexorama8databaseNtB4_15DatabaseManager44get_conversation_counts_by_date_and_subagent
FNDA:5,_RNvMs_NtCsa6QFEuJDwzK_9flexorama8databaseNtB4_15DatabaseManager8get_plan
FNDA:6,_RNvNtCsa6QFEuJDwzK_9flexorama8database21create_slug_from_path
FNDA:2,_RNCNCNvMs_NtCsa6QFEuJDwzK_9flexorama8databaseNtB8_15DatabaseManager10list_plans00Ba_
FNDA:0,_RNCNCNvMs_NtCsa6QFEuJDwzK_9flexorama8databaseNtB8_15DatabaseManager11update_plan00Ba_
FNDA:0,_RNCNCNvMs_NtCsa6QFEuJDwzK_9flexorama8databaseNtB8_15DatabaseManager11update_plan0s_0Ba_
FNDA:0,_RNCNCNvMs_NtCsa6QFEuJDwzK_9flexorama8databaseNtB8_15DatabaseManager18get_stats_by_model00Ba_
FNDA:0,_RNCNCNvMs_NtCsa6QFEuJDwzK_9flexorama8databaseNtB8_15DatabaseManager18get_stats_by_model0s0_0Ba_
FNDA:0,_RNCNCNvMs_NtCsa6QFEuJDwzK_9flexorama8databaseNtB8_15DatabaseManager18get_stats_by_model0s_0Ba_
FNDA:0,_RNCNCNvMs_NtCsa6QFEuJDwzK_9flexorama8databaseNtB8_15DatabaseManager21get_usage_stats_range00Ba_
FNDA:0,_RNCNCNvMs_NtCsa6QFEuJDwzK_9flexorama8databaseNtB8_15DatabaseManager21get_usage_stats_range0s0_0Ba_
FNDA:0,_RNCNCNvMs_NtCsa6QFEuJDwzK_9flexorama8databaseNtB8_15DatabaseManager21get_usage_stats_range0s_0Ba_
FNDA:11,_RNCNCNvMs_NtCsa6QFEuJDwzK_9flexorama8databaseNtB8_15DatabaseManager25get_conversation_messages00Ba_
FNDA:0,_RNCNCNvMs_NtCsa6QFEuJDwzK_9flexorama8databaseNtB8_15DatabaseManager27get_conversation_tool_calls00Ba_
FNDA:0,_RNCNCNvMs_NtCsa6QFEuJDwzK_9flexorama8databaseNtB8_15DatabaseManager31get_conversation_counts_by_date00Ba_
FNDA:0,_RNCNCNvMs_NtCsa6QFEuJDwzK_9flexorama8databaseNtB8_15DatabaseManager31get_conversation_counts_by_date0s0_0Ba_
FNDA:0,_RNCNCNvMs_NtCsa6QFEuJDwzK_9flexorama8databaseNtB8_15DatabaseManager31get_conversation_counts_by_date0s_0Ba_
FNDA:62,_RNCNCNvMs_NtCsa6QFEuJDwzK_9flexorama8databaseNtB8_15DatabaseManager36get_recent_conversations_with_offset00Ba_
FNDA:0,_RNCNCNvMs_NtCsa6QFEuJDwzK_9flexorama8databaseNtB8_15DatabaseManager41get_conversation_counts_by_date_and_model00Ba_
FNDA:0,_RNCNCNvMs_NtCsa6QFEuJDwzK_9flexorama8databaseNtB8_15DatabaseManager41get_conversation_counts_by_date_and_model0s0_0Ba_
FNDA:0,_RNCNCNvMs_NtCsa6QFEuJDwzK_9flexorama8databaseNtB8_15DatabaseManager41get_conversation_counts_by_date_and_model0s_0Ba_
FNDA:1,_RNCNCNvMs_NtCsa6QFEuJDwzK_9flexorama8databaseNtB8_15DatabaseManager44get_conversation_counts_by_date_and_subagent00Ba_
FNDA:0,_RNCNCNvMs_NtCsa6QFEuJDwzK_9flexorama8databaseNtB8_15DatabaseManager44get_conversation_counts_by_date_and_subagent0s0_0Ba_
FNDA:1,_RNCNCNvMs_NtCsa6QFEuJDwzK_9flexorama8databaseNtB8_15DatabaseManager44get_conversation_counts_by_date_and_subagent0s_0Ba_
FNDA:3,_RNCNCNvMs_NtCsa6QFEuJDwzK_9flexorama8databaseNtB8_15DatabaseManager8get_plan00Ba_
FNDA:54,_RNCNvMNtCsa6QFEuJDwzK_9flexorama8databaseNtB4_15DatabaseManager14run_migrations0B6_
FNDA:54,_RNCNvMNtCsa6QFEuJDwzK_9flexorama8databaseNtB4_15DatabaseManager3new0B6_
FNDA:2,_RNCNvMs_NtCsa6QFEuJDwzK_9flexorama8databaseNtB6_15DatabaseManager10list_plans0B8_
FNDA:72,_RNCNvMs_NtCsa6QFEuJDwzK_9flexorama8databaseNtB6_15DatabaseManager11add_message0B8_
FNDA:5,_RNCNvMs_NtCsa6QFEuJDwzK_9flexorama8databaseNtB6_15DatabaseManager11create_plan0B8_
FNDA:1,_RNCNvMs_NtCsa6QFEuJDwzK_9flexorama8databaseNtB6_15DatabaseManager11delete_plan0B8_
FNDA:1,_RNCNvMs_NtCsa6QFEuJDwzK_9flexorama8databaseNtB6_15DatabaseManager11update_plan0B8_
FNDA:0,_RNCNvMs_NtCsa6QFEuJDwzK_9flexorama8databaseNtB6_15DatabaseManager13add_tool_call0B8_
FNDA:4,_RNCNvMs_NtCsa6QFEuJDwzK_9flexorama8databaseNtB6_15DatabaseManager16get_conversation0B8_
FNDA:0,_RNCNvMs_NtCsa6QFEuJDwzK_9flexorama8databaseNtB6_15DatabaseManager18complete_tool_call0B8_
FNDA:1,_RNCNvMs_NtCsa6QFEuJDwzK_9flexorama8databaseNtB6_15DatabaseManager18get_stats_by_model0B8_
FNDA:3,_RNCNvMs_NtCsa6QFEuJDwzK_9flexorama8databaseNtB6_15DatabaseManager18get_stats_overview0B8_
FNDA:3,_RNCNvMs_NtCsa6QFEuJDwzK_9flexorama8databaseNtB6_15DatabaseManager18update_usage_stats0B8_
FNDA:77,_RNCNvMs_NtCsa6QFEuJDwzK_9flexorama8databaseNtB6_15DatabaseManager19create_conversation0B8_
FNDA:1,_RNCNvMs_NtCsa6QFEuJDwzK_9flexorama8databaseNtB6_15DatabaseManager21get_usage_stats_range0B8_
FNDA:7,_RNCNvMs_NtCsa6QFEuJDwzK_9flexorama8databaseNtB6_15DatabaseManager24get_recent_conversations0B8_
FNDA:9,_RNCNvMs_NtCsa6QFEuJDwzK_9flexorama8databaseNtB6_15DatabaseManager25get_conversation_messages0B8_
FNDA:1,_RNCNvMs_NtCsa6QFEuJDwzK_9flexorama8databaseNtB6_15DatabaseManager25update_conversation_model0B8_
FNDA:1,_RNCNvMs_NtCsa6QFEuJDwzK_9flexorama8databaseNtB6_15DatabaseManager27get_conversation_tool_calls0B8_
FNDA:1,_RNCNvMs_NtCsa6QFEuJDwzK_9flexorama8databaseNtB6_15DatabaseManager31get_conversation_counts_by_date0B8_
FNDA:16,_RNCNvMs_NtCsa6QFEuJDwzK_9flexorama8databaseNtB6_15DatabaseManager36get_recent_conversations_with_offset0B8_
FNDA:1,_RNCNvMs_NtCsa6QFEuJDwzK_9flexorama8databaseNtB6_15DatabaseManager41get_conversation_counts_by_date_and_model0B8_
FNDA:1,_RNCNvMs_NtCsa6QFEuJDwzK_9flexorama8databaseNtB6_15DatabaseManager44get_conversation_counts_by_date_and_subagent0B8_
FNDA:5,_RNCNvMs_NtCsa6QFEuJDwzK_9flexorama8databaseNtB6_15DatabaseManager8get_plan0B8_
FNDA:17,_RNCNvNtCsa6QFEuJDwzK_9flexorama8database21create_slug_from_path0B5_
FNDA:3,_RNvNtNtCsa6QFEuJDwzK_9flexorama8database5tests14create_test_db
FNDA:1,_RNvNtNtCsa6QFEuJDwzK_9flexorama8database5testss_26test_create_slug_from_path
FNDA:1,_RNvNtNtCsa6QFEuJDwzK_9flexorama8database5testss_34test_pagination_with_search_filter
FNDA:1,_RNvNtNtCsa6QFEuJDwzK_9flexorama8database5testss_45test_get_recent_conversations_with_pagination
FNDA:1,_RNvNtNtCsa6QFEuJDwzK_9flexorama8database5testss_53test_get_recent_conversations_backwards_compatibility
FNF:88
FNH:63
DA:18,54
DA:19,54
DA:22,54
DA:23,54
DA:24,0
DA:27,54
DA:30,54
DA:31,54
DA:32,54
DA:33,54
DA:34,54
DA:37,54
DA:38,54
DA:39,54
DA:41,54
DA:43,54
DA:45,0
DA:46,0
DA:47,0
DA:48,0
DA:49,0
DA:50,0
DA:54,0
DA:58,54
DA:59,54
DA:61,54
DA:63,54
DA:64,54
DA:65,54
DA:66,54
DA:69,54
DA:71,54
DA:72,0
DA:73,0
DA:75,54
DA:76,54
DA:79,54
DA:80,54
DA:83,54
DA:84,54
DA:85,54
DA:86,54
DA:87,54
DA:88,54
DA:89,54
DA:90,54
DA:91,54
DA:92,54
DA:93,54
DA:94,54
DA:95,54
DA:96,54
DA:97,54
DA:98,54
DA:102,54
DA:103,54
DA:104,54
DA:105,54
DA:106,54
DA:107,54
DA:108,54
DA:109,54
DA:112,54
DA:113,54
DA:114,54
DA:115,54
DA:116,54
DA:117,54
DA:118,54
DA:119,54
DA:120,54
DA:121,54
DA:122,54
DA:123,54
DA:124,54
DA:125,54
DA:126,54
DA:127,54
DA:130,54
DA:131,54
DA:132,54
DA:133,54
DA:134,54
DA:135,54
DA:136,54
DA:137,54
DA:140,54
DA:141,54
DA:142,54
DA:143,54
DA:144,54
DA:145,54
DA:146,54
DA:147,54
DA:148,54
DA:149,54
DA:150,54
DA:151,54
DA:152,54
DA:153,54
DA:154,54
DA:157,54
DA:158,54
DA:159,54
DA:160,54
DA:161,54
DA:162,54
DA:163,54
DA:164,54
DA:165,54
DA:166,54
DA:167,54
DA:168,54
DA:169,54
DA:170,54
DA:171,54
DA:172,54
DA:173,54
DA:174,54
DA:177,54
DA:178,54
DA:179,54
DA:180,54
DA:181,54
DA:182,54
DA:183,54
DA:184,54
DA:185,54
DA:186,54
DA:187,54
DA:188,54
DA:189,54
DA:190,54
DA:191,54
DA:192,54
DA:195,54
DA:196,54
DA:197,54
DA:198,54
DA:199,54
DA:200,54
DA:201,54
DA:202,54
DA:203,54
DA:204,54
DA:205,54
DA:206,54
DA:207,54
DA:208,54
DA:209,54
DA:212,54
DA:213,54
DA:214,54
DA:215,54
DA:216,54
DA:218,54
DA:219,54
DA:220,54
DA:222,54
DA:223,54
DA:224,54
DA:226,54
DA:227,54
DA:228,54
DA:230,54
DA:231,54
DA:232,54
DA:234,54
DA:235,54
DA:236,54
DA:237,54
DA:238,54
DA:240,54
DA:241,54
DA:242,54
DA:244,54
DA:245,54
DA:246,54
DA:249,0
DA:250,0
DA:251,0
DA:254,0
DA:255,0
DA:256,0
DA:257,0
DA:261,6
DA:265,6
DA:268,6
DA:269,6
DA:270,17
DA:271,6
DA:274,6
DA:275,2
DA:277,4
DA:280,6
DA:288,6
DA:289,6
DA:291,6
DA:292,6
DA:294,6
DA:297,6
DA:300,6
DA:301,1
DA:302,5
DA:305,6
DA:306,1
DA:307,5
DA:309,6
DA:310,6
DA:386,77
DA:387,77
DA:388,77
DA:389,77
DA:390,77
DA:391,77
DA:392,77
DA:393,77
DA:395,77
DA:396,0
DA:400,77
DA:401,77
DA:402,77
DA:403,77
DA:404,77
DA:405,77
DA:406,77
DA:407,77
DA:408,77
DA:409,77
DA:410,77
DA:411,77
DA:412,77
DA:413,77
DA:415,77
DA:416,77
DA:417,77
DA:420,72
DA:421,72
DA:422,72
DA:423,72
DA:424,72
DA:425,72
DA:426,72
DA:427,72
DA:428,72
DA:429,72
DA:431,72
DA:432,0
DA:437,72
DA:440,72
DA:441,72
DA:442,72
DA:443,72
DA:444,72
DA:445,72
DA:446,72
DA:447,72
DA:448,72
DA:449,72
DA:450,72
DA:451,72
DA:452,72
DA:453,72
DA:454,72
DA:457,72
DA:458,72
DA:459,72
DA:460,72
DA:461,72
DA:462,72
DA:463,72
DA:464,72
DA:466,72
DA:467,72
DA:468,72
DA:469,72
DA:470,72
DA:471,72
DA:474,72
DA:476,72
DA:477,72
DA:480,5
DA:481,5
DA:482,5
DA:483,5
DA:484,5
DA:485,5
DA:486,5
DA:487,5
DA:488,5
DA:490,5
DA:491,5
DA:492,5
DA:493,5
DA:494,5
DA:495,5
DA:496,5
DA:497,5
DA:498,5
DA:499,5
DA:500,5
DA:501,5
DA:502,5
DA:503,5
DA:505,5
DA:506,5
DA:509,5
DA:510,5
DA:511,5
DA:512,5
DA:513,5
DA:514,5
DA:515,5
DA:516,5
DA:517,5
DA:518,5
DA:519,5
DA:521,5
DA:522,3
DA:523,3
DA:524,3
DA:525,3
DA:526,3
DA:527,3
DA:528,3
DA:529,5
DA:532,2
DA:533,2
DA:541,2
DA:542,0
DA:543,2
DA:545,2
DA:546,2
DA:547,0
DA:548,2
DA:550,2
DA:552,2
DA:553,2
DA:554,2
DA:555,2
DA:556,2
DA:557,2
DA:558,2
DA:559,2
DA:560,2
DA:561,2
DA:562,2
DA:564,2
DA:565,2
DA:568,1
DA:569,1
DA:570,1
DA:571,1
DA:572,1
DA:573,1
DA:574,1
DA:575,1
DA:576,1
DA:577,1
DA:578,1
DA:580,1
DA:581,1
DA:582,1
DA:584,1
DA:585,1
DA:586,1
DA:587,1
DA:588,1
DA:589,1
DA:590,1
DA:591,1
DA:592,1
DA:593,1
DA:594,1
DA:595,1
DA:596,1
DA:598,1
DA:599,1
DA:600,1
DA:601,1
DA:604,1
DA:605,1
DA:606,1
DA:607,1
DA:608,1
DA:609,1
DA:610,1
DA:613,4
DA:614,4
DA:615,4
DA:616,4
DA:617,4
DA:618,4
DA:619,4
DA:620,4
DA:621,4
DA:622,4
DA:623,4
DA:625,4
DA:626,3
DA:627,3
DA:628,3
DA:629,3
DA:630,3
DA:631,3
DA:632,3
DA:633,3
DA:634,3
DA:635,3
DA:637,1
DA:639,4
DA:642,9
DA:643,9
DA:644,9
DA:645,9
DA:646,9
DA:647,9
DA:648,9
DA:649,9
DA:650,9
DA:651,9
DA:652,9
DA:653,9
DA:655,9
DA:656,9
DA:657,9
DA:658,11
DA:659,11
DA:660,11
DA:661,11
DA:662,11
DA:663,9
DA:665,9
DA:666,9
DA:669,0
DA:670,0
DA:671,0
DA:672,0
DA:673,0
DA:674,0
DA:675,0
DA:676,0
DA:677,0
DA:678,0
DA:679,0
DA:680,0
DA:681,0
DA:682,0
DA:683,0
DA:684,0
DA:685,0
DA:686,0
DA:687,0
DA:688,0
DA:689,0
DA:691,0
DA:692,0
DA:695,0
DA:696,0
DA:697,0
DA:698,0
DA:699,0
DA:700,0
DA:701,0
DA:702,0
DA:703,0
DA:704,0
DA:705,0
DA:706,0
DA:707,0
DA:708,0
DA:709,0
DA:710,0
DA:711,0
DA:712,0
DA:714,0
DA:715,0
DA:718,1
DA:719,1
DA:720,1
DA:721,1
DA:722,1
DA:723,1
DA:724,1
DA:725,1
DA:726,1
DA:727,1
DA:728,1
DA:729,1
DA:730,1
DA:731,1
DA:732,1
DA:734,1
DA:735,1
DA:736,1
DA:737,0
DA:738,0
DA:739,0
DA:740,0
DA:741,0
DA:742,0
DA:743,0
DA:744,1
DA:746,1
DA:747,1
DA:750,7
DA:751,7
DA:752,7
DA:753,7
DA:754,7
DA:755,7
DA:756,7
DA:757,7
DA:760,16
DA:761,16
DA:762,16
DA:763,16
DA:764,16
DA:765,16
DA:767,16
DA:776,16
DA:777,4
DA:778,12
DA:780,16
DA:781,16
DA:782,16
DA:783,16
DA:784,16
DA:785,16
DA:788,16
DA:790,16
DA:791,4
DA:792,4
DA:793,12
DA:795,16
DA:796,16
DA:798,16
DA:800,16
DA:801,16
DA:802,16
DA:803,62
DA:804,62
DA:805,62
DA:806,62
DA:807,62
DA:808,62
DA:809,62
DA:810,62
DA:811,62
DA:812,16
DA:814,16
DA:815,16
DA:818,1
DA:819,1
DA:820,1
DA:821,1
DA:822,1
DA:823,1
DA:824,1
DA:825,1
DA:826,1
DA:827,1
DA:828,1
DA:829,1
DA:830,1
DA:831,1
DA:832,1
DA:833,1
DA:834,1
DA:835,1
DA:836,1
DA:837,1
DA:840,3
DA:841,3
DA:842,3
DA:843,3
DA:845,3
DA:846,0
DA:851,3
DA:852,3
DA:853,3
DA:854,3
DA:855,3
DA:856,3
DA:857,3
DA:858,3
DA:859,3
DA:860,3
DA:861,3
DA:862,3
DA:863,3
DA:864,3
DA:865,3
DA:866,3
DA:867,3
DA:868,3
DA:869,3
DA:872,3
DA:873,2
DA:874,2
DA:875,2
DA:876,2
DA:877,2
DA:878,2
DA:879,2
DA:880,2
DA:881,2
DA:882,2
DA:883,2
DA:884,2
DA:885,2
DA:886,2
DA:887,2
DA:888,1
DA:890,3
DA:891,3
DA:894,1
DA:895,1
DA:896,1
DA:897,1
DA:898,1
DA:899,1
DA:900,1
DA:901,1
DA:903,1
DA:904,1
DA:905,1
DA:906,1
DA:907,1
DA:908,1
DA:909,1
DA:910,1
DA:911,1
DA:912,1
DA:913,1
DA:914,1
DA:916,1
DA:917,1
DA:918,1
DA:919,0
DA:920,0
DA:921,0
DA:922,0
DA:923,0
DA:924,0
DA:925,1
DA:927,1
DA:928,1
DA:931,1
DA:932,1
DA:933,1
DA:934,1
DA:935,1
DA:936,1
DA:937,1
DA:938,1
DA:940,1
DA:941,1
DA:942,1
DA:943,1
DA:944,1
DA:945,1
DA:946,1
DA:947,1
DA:948,1
DA:949,1
DA:950,1
DA:951,1
DA:952,1
DA:953,1
DA:954,1
DA:955,1
DA:956,1
DA:958,1
DA:959,1
DA:960,1
DA:961,0
DA:962,0
DA:963,0
DA:964,0
DA:965,0
DA:966,1
DA:968,1
DA:969,1
DA:972,3
DA:973,3
DA:974,3
DA:975,3
DA:977,3
DA:978,3
DA:979,3
DA:981,3
DA:982,3
DA:983,3
DA:984,3
DA:986,3
DA:987,3
DA:988,3
DA:989,3
DA:991,3
DA:992,3
DA:993,3
DA:994,3
DA:995,3
DA:996,3
DA:997,3
DA:1000,1
DA:1001,1
DA:1002,1
DA:1003,1
DA:1004,1
DA:1005,1
DA:1006,1
DA:1007,1
DA:1009,1
DA:1010,1
DA:1011,1
DA:1012,1
DA:1013,1
DA:1014,1
DA:1015,1
DA:1016,1
DA:1017,1
DA:1018,1
DA:1019,1
DA:1020,1
DA:1021,1
DA:1023,1
DA:1024,1
DA:1025,1
DA:1026,1
DA:1028,1
DA:1029,1
DA:1032,1
DA:1033,1
DA:1034,1
DA:1035,1
DA:1036,1
DA:1037,1
DA:1038,1
DA:1039,1
DA:1041,1
DA:1042,1
DA:1043,1
DA:1044,1
DA:1045,1
DA:1046,1
DA:1047,1
DA:1048,1
DA:1049,1
DA:1050,1
DA:1051,1
DA:1052,1
DA:1053,1
DA:1055,1
DA:1056,1
DA:1057,1
DA:1058,0
DA:1059,0
DA:1060,0
DA:1061,0
DA:1062,0
DA:1063,0
DA:1064,1
DA:1066,1
DA:1067,1
DA:1070,1
DA:1071,1
DA:1072,1
DA:1073,1
DA:1074,1
DA:1075,1
DA:1076,1
DA:1077,1
DA:1079,1
DA:1080,1
DA:1081,1
DA:1082,1
DA:1083,1
DA:1084,1
DA:1085,1
DA:1086,1
DA:1087,1
DA:1088,1
DA:1089,1
DA:1090,1
DA:1091,1
DA:1092,1
DA:1093,1
DA:1095,1
DA:1096,1
DA:1097,1
DA:1098,0
DA:1099,0
DA:1100,0
DA:1101,0
DA:1102,0
DA:1103,0
DA:1104,1
DA:1106,1
DA:1107,1
DA:1111,0
DA:1113,0
DA:1114,0
DA:1117,0
DA:1120,0
DA:1121,0
DA:1124,0
DA:1127,0
DA:1129,0
DA:1130,0
DA:1132,0
DA:1135,0
DA:1136,0
DA:1143,3
DA:1144,3
DA:1145,3
DA:1146,3
DA:1147,3
DA:1148,3
DA:1151,1
DA:1153,1
DA:1154,1
DA:1159,1
DA:1160,1
DA:1165,1
DA:1168,1
DA:1169,1
DA:1174,1
DA:1177,1
DA:1178,1
DA:1179,1
DA:1180,1
DA:1183,1
DA:1185,1
DA:1188,26
DA:1189,25
DA:1190,25
DA:1191,25
DA:1192,25
DA:1193,25
DA:1194,25
DA:1195,25
DA:1196,25
DA:1199,25
DA:1200,25
DA:1201,25
DA:1204,25
DA:1208,1
DA:1209,1
DA:1210,1
DA:1211,1
DA:1212,1
DA:1215,1
DA:1216,1
DA:1217,1
DA:1218,1
DA:1219,1
DA:1222,1
DA:1223,1
DA:1224,1
DA:1225,1
DA:1226,1
DA:1229,10
DA:1230,10
DA:1233,11
DA:1234,10
DA:1235,10
DA:1236,0
DA:1241,1
DA:1242,1
DA:1243,1
DA:1244,1
DA:1245,1
DA:1246,1
DA:1249,1
DA:1251,1
DA:1254,16
DA:1255,15
DA:1256,15
DA:1257,15
DA:1258,15
DA:1260,15
DA:1261,15
DA:1262,15
DA:1264,15
DA:1268,1
DA:1269,1
DA:1270,1
DA:1271,1
DA:1273,1
DA:1274,1
DA:1276,0
DA:1280,1
DA:1281,1
DA:1282,1
DA:1283,1
DA:1285,1
DA:1286,1
DA:1287,1
DA:1288,1
DA:1289,1
DA:1290,1
DA:1293,1
DA:1295,1
DA:1298,21
DA:1299,20
DA:1300,20
DA:1301,20
DA:1302,20
DA:1304,20
DA:1305,10
DA:1307,10
DA:1310,20
DA:1311,20
DA:1312,20
DA:1314,20
DA:1318,1
DA:1319,1
DA:1320,1
DA:1321,1
DA:1324,1
DA:1326,1
DA:1327,1
DA:1328,1
DA:1329,1
DA:1331,1
DA:1334,1
DA:1335,1
DA:1336,1
DA:1337,1
DA:1339,1
DA:1340,1
BRF:0
BRH:0
LF:987
LH:859
end_of_record
SF:/home/user/flexorama/src/formatter.rs
FN:788,_RNvMNtCsa6QFEuJDwzK_9flexorama9formatterNtB2_13CodeFormatter12highlight_go
FN:422,_RNvMNtCsa6QFEuJDwzK_9flexorama9formatterNtB2_13CodeFormatter13highlight_css
FN:487,_RNvMNtCsa6QFEuJDwzK_9flexorama9formatterNtB2_13CodeFormatter13highlight_sql
FN:641,_RNvMNtCsa6QFEuJDwzK_9flexorama9formatterNtB2_13CodeFormatter13highlight_xml
FN:450,_RNvMNtCsa6QFEuJDwzK_9flexorama9formatterNtB2_13CodeFormatter14highlight_bash
FN:402,_RNvMNtCsa6QFEuJDwzK_9flexorama9formatterNtB2_13CodeFormatter14highlight_html
FN:725,_RNvMNtCsa6QFEuJDwzK_9flexorama9formatterNtB2_13CodeFormatter14highlight_java
FN:343,_RNvMNtCsa6QFEuJDwzK_9flexorama9formatterNtB2_13CodeFormatter14highlight_json
FN:132,_RNvMNtCsa6QFEuJDwzK_9flexorama9formatterNtB2_13CodeFormatter14highlight_line
FN:155,_RNvMNtCsa6QFEuJDwzK_9flexorama9formatterNtB2_13CodeFormatter14highlight_rust
FN:616,_RNvMNtCsa6QFEuJDwzK_9flexorama9formatterNtB2_13CodeFormatter14highlight_toml
FN:374,_RNvMNtCsa6QFEuJDwzK_9flexorama9formatterNtB2_13CodeFormatter14highlight_yaml
FN:35,_RNvMNtCsa6QFEuJDwzK_9flexorama9formatterNtB2_13CodeFormatter15format_response
FN:645,_RNvMNtCsa6QFEuJDwzK_9flexorama9formatterNtB2_13CodeFormatter15highlight_c_cpp
FN:882,_RNvMNtCsa6QFEuJDwzK_9flexorama9formatterNtB2_13CodeFormatter15print_formatted
FN:204,_RNvMNtCsa6QFEuJDwzK_9flexorama9formatterNtB2_13CodeFormatter16highlight_python
FN:87,_RNvMNtCsa6QFEuJDwzK_9flexorama9formatterNtB2_13CodeFormatter17format_code_block
FN:857,_RNvMNtCsa6QFEuJDwzK_9flexorama9formatterNtB2_13CodeFormatter17highlight_numbers
FN:569,_RNvMNtCsa6QFEuJDwzK_9flexorama9formatterNtB2_13CodeFormatter18highlight_markdown
FN:863,_RNvMNtCsa6QFEuJDwzK_9flexorama9formatterNtB2_13CodeFormatter18normalize_language
FN:242,_RNvMNtCsa6QFEuJDwzK_9flexorama9formatterNtB2_13CodeFormatter20highlight_javascript
FN:310,_RNvMNtCsa6QFEuJDwzK_9flexorama9formatterNtB2_13CodeFormatter20highlight_typescript
FN:122,_RNvMNtCsa6QFEuJDwzK_9flexorama9formatterNtB2_13CodeFormatter23build_code_block_footer
FN:111,_RNvMNtCsa6QFEuJDwzK_9flexorama9formatterNtB2_13CodeFormatter23build_code_block_header
FN:62,_RNvMNtCsa6QFEuJDwzK_9flexorama9formatterNtB2_13CodeFormatter28format_text_with_code_blocks
FN:890,_RNvMNtCsa6QFEuJDwzK_9flexorama9formatterNtB2_13CodeFormatter34format_text_with_file_highlighting
FN:41,_RNvMNtCsa6QFEuJDwzK_9flexorama9formatterNtB2_13CodeFormatter35format_input_with_file_highlighting
FN:19,_RNvMNtCsa6QFEuJDwzK_9flexorama9formatterNtB2_13CodeFormatter3new
FN:958,_RNvMs0_NtCsa6QFEuJDwzK_9flexorama9formatterNtB5_26StreamingResponseFormatter12handle_chunk
FN:1020,_RNvMs0_NtCsa6QFEuJDwzK_9flexorama9formatterNtB5_26StreamingResponseFormatter16handle_code_line
FN:1034,_RNvMs0_NtCsa6QFEuJDwzK_9flexorama9formatterNtB5_26StreamingResponseFormatter16start_code_block
FN:1009,_RNvMs0_NtCsa6QFEuJDwzK_9flexorama9formatterNtB5_26StreamingResponseFormatter17handle_plain_line
FN:1000,_RNvMs0_NtCsa6QFEuJDwzK_9flexorama9formatterNtB5_26StreamingResponseFormatter21process_complete_line
FN:949,_RNvMs0_NtCsa6QFEuJDwzK_9flexorama9formatterNtB5_26StreamingResponseFormatter3new
FN:975,_RNvMs0_NtCsa6QFEuJDwzK_9flexorama9formatterNtB5_26StreamingResponseFormatter6finish
FN:920,_RNvNtCsa6QFEuJDwzK_9flexorama9formatter21create_code_formatter
FN:931,_RNvXs_NtCsa6QFEuJDwzK_9flexorama9formatterNtB4_13CodeFormatterNtNtCs3XFJfFEDSOQ_4core5clone5Clone5clone
FN:428,_RNCNvMNtCsa6QFEuJDwzK_9flexorama9formatterNtB4_13CodeFormatter13highlight_css0B6_
FN:442,_RNCNvMNtCsa6QFEuJDwzK_9flexorama9formatterNtB4_13CodeFormatter13highlight_csss0_0B6_
FN:436,_RNCNvMNtCsa6QFEuJDwzK_9flexorama9formatterNtB4_13CodeFormatter13highlight_csss_0B6_
FN:563,_RNCNvMNtCsa6QFEuJDwzK_9flexorama9formatterNtB4_13CodeFormatter13highlight_sql0B6_
FN:474,_RNCNvMNtCsa6QFEuJDwzK_9flexorama9formatterNtB4_13CodeFormatter14highlight_bash0B6_
FN:408,_RNCNvMNtCsa6QFEuJDwzK_9flexorama9formatterNtB4_13CodeFormatter14highlight_html0B6_
FN:414,_RNCNvMNtCsa6QFEuJDwzK_9flexorama9formatterNtB4_13CodeFormatter14highlight_htmls_0B6_
FN:349,_RNCNvMNtCsa6QFEuJDwzK_9flexorama9formatterNtB4_13CodeFormatter14highlight_json0B6_
FN:366,_RNCNvMNtCsa6QFEuJDwzK_9flexorama9formatterNtB4_13CodeFormatter14highlight_jsons0_0B6_
FN:358,_RNCNvMNtCsa6QFEuJDwzK_9flexorama9formatterNtB4_13CodeFormatter14highlight_jsons_0B6_
FN:188,_RNCNvMNtCsa6QFEuJDwzK_9flexorama9formatterNtB4_13CodeFormatter14highlight_rust0B6_
FN:633,_RNCNvMNtCsa6QFEuJDwzK_9flexorama9formatterNtB4_13CodeFormatter14highlight_toml0B6_
FN:386,_RNCNvMNtCsa6QFEuJDwzK_9flexorama9formatterNtB4_13CodeFormatter14highlight_yaml0B6_
FN:394,_RNCNvMNtCsa6QFEuJDwzK_9flexorama9formatterNtB4_13CodeFormatter14highlight_yamls_0B6_
FN:226,_RNCNvMNtCsa6QFEuJDwzK_9flexorama9formatterNtB4_13CodeFormatter16highlight_python0B6_
FN:859,_RNCNvMNtCsa6QFEuJDwzK_9flexorama9formatterNtB4_13CodeFormatter17highlight_numbers0B6_
FN:574,_RNCNvMNtCsa6QFEuJDwzK_9flexorama9formatterNtB4_13CodeFormatter18highlight_markdown0B6_
FN:592,_RNCNvMNtCsa6QFEuJDwzK_9flexorama9formatterNtB4_13CodeFormatter18highlight_markdowns0_0B6_
FN:600,_RNCNvMNtCsa6QFEuJDwzK_9flexorama9formatterNtB4_13CodeFormatter18highlight_markdowns1_0B6_
FN:608,_RNCNvMNtCsa6QFEuJDwzK_9flexorama9formatterNtB4_13CodeFormatter18highlight_markdowns2_0B6_
FN:586,_RNCNvMNtCsa6QFEuJDwzK_9flexorama9formatterNtB4_13CodeFormatter18highlight_markdowns_0B6_
FN:294,_RNCNvMNtCsa6QFEuJDwzK_9flexorama9formatterNtB4_13CodeFormatter20highlight_javascript0B6_
FN:68,_RNCNvMNtCsa6QFEuJDwzK_9flexorama9formatterNtB4_13CodeFormatter28format_text_with_code_blocks0B6_
FN:925,_RNCNvNtCsa6QFEuJDwzK_9flexorama9formatter21create_code_formatter0B5_
FN:1757,_RNvNtNtCsa6QFEuJDwzK_9flexorama9formatter5testss_16test_empty_input
FN:1569,_RNvNtNtCsa6QFEuJDwzK_9flexorama9formatter5testss_22test_highlight_numbers
FN:1062,_RNvNtNtCsa6QFEuJDwzK_9flexorama9formatter5testss_23test_code_formatter_new
FN:1481,_RNvNtNtCsa6QFEuJDwzK_9flexorama9formatter5testss_24test_highlight_html_tags
FN:1465,_RNvNtNtCsa6QFEuJDwzK_9flexorama9formatter5testss_24test_highlight_json_keys
FN:1537,_RNvNtNtCsa6QFEuJDwzK_9flexorama9formatter5testss_24test_highlight_toml_keys
FN:1473,_RNvNtNtCsa6QFEuJDwzK_9flexorama9formatter5testss_24test_highlight_yaml_keys
FN:1068,_RNvNtNtCsa6QFEuJDwzK_9flexorama9formatter5testss_25test_code_formatter_clone
FN:1417,_RNvNtNtCsa6QFEuJDwzK_9flexorama9formatter5testss_25test_highlight_rust_types
FN:1376,_RNvNtNtCsa6QFEuJDwzK_9flexorama9formatter5testss_26test_format_code_block_sql
FN:1561,_RNvNtNtCsa6QFEuJDwzK_9flexorama9formatter5testss_26test_highlight_go_keywords
FN:1790,_RNvNtNtCsa6QFEuJDwzK_9flexorama9formatter5testss_26test_incomplete_code_block
FN:1772,_RNvNtNtCsa6QFEuJDwzK_9flexorama9formatter5testss_26test_whitespace_only_input
FN:1366,_RNvNtNtCsa6QFEuJDwzK_9flexorama9formatter5testss_27test_format_code_block_bash
FN:1346,_RNvNtNtCsa6QFEuJDwzK_9flexorama9formatter5testss_27test_format_code_block_json
FN:1306,_RNvNtNtCsa6QFEuJDwzK_9flexorama9formatter5testss_27test_format_code_block_rust
FN:1356,_RNvNtNtCsa6QFEuJDwzK_9flexorama9formatter5testss_27test_format_code_block_yaml
FN:1505,_RNvNtNtCsa6QFEuJDwzK_9flexorama9formatter5testss_27test_highlight_sql_keywords
FN:1129,_RNvNtNtCsa6QFEuJDwzK_9flexorama9formatter5testss_27test_normalize_language_cpp
FN:1601,_RNvNtNtCsa6QFEuJDwzK_9flexorama9formatter5testss_28test_build_code_block_footer
FN:1592,_RNvNtNtCsa6QFEuJDwzK_9flexorama9formatter5testss_28test_build_code_block_header
FN:1056,_RNvNtNtCsa6QFEuJDwzK_9flexorama9formatter5testss_28test_code_formatter_creation
FN:1800,_RNvNtNtCsa6QFEuJDwzK_9flexorama9formatter5testss_28test_consecutive_code_blocks
FN:1386,_RNvNtNtCsa6QFEuJDwzK_9flexorama9formatter5testss_28test_format_code_block_empty
FN:1497,_RNvNtNtCsa6QFEuJDwzK_9flexorama9formatter5testss_28test_highlight_bash_commands
FN:1553,_RNvNtNtCsa6QFEuJDwzK_9flexorama9formatter5testss_28test_highlight_java_keywords
FN:1521,_RNvNtNtCsa6QFEuJDwzK_9flexorama9formatter5testss_28test_highlight_markdown_bold
FN:1425,_RNvNtNtCsa6QFEuJDwzK_9flexorama9formatter5testss_28test_highlight_rust_comments
FN:1409,_RNvNtNtCsa6QFEuJDwzK_9flexorama9formatter5testss_28test_highlight_rust_keywords
FN:1529,_RNvNtNtCsa6QFEuJDwzK_9flexorama9formatter5testss_28test_highlight_toml_sections
FN:1107,_RNvNtNtCsa6QFEuJDwzK_9flexorama9formatter5testss_28test_normalize_language_rust
FN:1122,_RNvNtNtCsa6QFEuJDwzK_9flexorama9formatter5testss_28test_normalize_language_yaml
FN:1230,_RNvNtNtCsa6QFEuJDwzK_9flexorama9formatter5testss_29test_file_highlighting_at_end
FN:1316,_RNvNtNtCsa6QFEuJDwzK_9flexorama9formatter5testss_29test_format_code_block_python
FN:1545,_RNvNtNtCsa6QFEuJDwzK_9flexorama9formatter5testss_29test_highlight_c_cpp_keywords
FN:1489,_RNvNtNtCsa6QFEuJDwzK_9flexorama9formatter5testss_29test_highlight_css_properties
FN:1144,_RNvNtNtCsa6QFEuJDwzK_9flexorama9formatter5testss_29test_normalize_language_empty
FN:1114,_RNvNtNtCsa6QFEuJDwzK_9flexorama9formatter5testss_29test_normalize_language_shell
FN:1441,_RNvNtNtCsa6QFEuJDwzK_9flexorama9formatter5testss_30test_highlight_python_comments
FN:1433,_RNvNtNtCsa6QFEuJDwzK_9flexorama9formatter5testss_30test_highlight_python_keywords
FN:1100,_RNvNtNtCsa6QFEuJDwzK_9flexorama9formatter5testss_30test_normalize_language_python
FN:1222,_RNvNtNtCsa6QFEuJDwzK_9flexorama9formatter5testss_31test_file_highlighting_at_start
FN:1187,_RNvNtNtCsa6QFEuJDwzK_9flexorama9formatter5testss_31test_file_highlighting_no_files
FN:1513,_RNvNtNtCsa6QFEuJDwzK_9flexorama9formatter5testss_31test_highlight_markdown_headers
FN:1150,_RNvNtNtCsa6QFEuJDwzK_9flexorama9formatter5testss_31test_normalize_language_unknown
FN:1238,_RNvNtNtCsa6QFEuJDwzK_9flexorama9formatter5testss_32test_file_highlighting_cache_hit
FN:1195,_RNvNtNtCsa6QFEuJDwzK_9flexorama9formatter5testss_32test_file_highlighting_with_path
FN:1137,_RNvNtNtCsa6QFEuJDwzK_9flexorama9formatter5testss_32test_normalize_language_markdown
FN:1252,_RNvNtNtCsa6QFEuJDwzK_9flexorama9formatter5testss_33test_file_highlighting_cache_miss
FN:1326,_RNvNtNtCsa6QFEuJDwzK_9flexorama9formatter5testss_33test_format_code_block_javascript
FN:1336,_RNvNtNtCsa6QFEuJDwzK_9flexorama9formatter5testss_33test_format_code_block_typescript
FN:1629,_RNvNtNtCsa6QFEuJDwzK_9flexorama9formatter5testss_33test_streaming_formatter_creation
FN:1765,_RNvNtNtCsa6QFEuJDwzK_9flexorama9formatter5testss_34test_file_highlighting_empty_input
FN:1170,_RNvNtNtCsa6QFEuJDwzK_9flexorama9formatter5testss_34test_file_highlighting_single_file
FN:1449,_RNvNtNtCsa6QFEuJDwzK_9flexorama9formatter5testss_34test_highlight_javascript_keywords
FN:1457,_RNvNtNtCsa6QFEuJDwzK_9flexorama9formatter5testss_34test_highlight_typescript_keywords
FN:1084,_RNvNtNtCsa6QFEuJDwzK_9flexorama9formatter5testss_34test_normalize_language_javascript
FN:1819,_RNvNtNtCsa6QFEuJDwzK_9flexorama9formatter5testss_34test_normalize_language_mixed_case
FN:1092,_RNvNtNtCsa6QFEuJDwzK_9flexorama9formatter5testss_34test_normalize_language_typescript
FN:1781,_RNvNtNtCsa6QFEuJDwzK_9flexorama9formatter5testss_35test_code_block_with_empty_language
FN:1277,_RNvNtNtCsa6QFEuJDwzK_9flexorama9formatter5testss_35test_format_response_no_code_blocks
FN:1870,_RNvNtNtCsa6QFEuJDwzK_9flexorama9formatter5testss_35test_highlight_python_triple_quotes
FN:1810,_RNvNtNtCsa6QFEuJDwzK_9flexorama9formatter5testss_36test_highlight_line_unknown_language
FN:1178,_RNvNtNtCsa6QFEuJDwzK_9flexorama9formatter5testss_37test_file_highlighting_multiple_files
FN:1203,_RNvNtNtCsa6QFEuJDwzK_9flexorama9formatter5testss_37test_file_highlighting_multiple_paths
FN:1674,_RNvNtNtCsa6QFEuJDwzK_9flexorama9formatter5testss_37test_streaming_formatter_partial_line
FN:1212,_RNvNtNtCsa6QFEuJDwzK_9flexorama9formatter5testss_38test_file_highlighting_with_extensions
FN:1286,_RNvNtNtCsa6QFEuJDwzK_9flexorama9formatter5testss_38test_format_response_single_code_block
FN:1578,_RNvNtNtCsa6QFEuJDwzK_9flexorama9formatter5testss_38test_highlight_numbers_various_formats
FN:1705,_RNvNtNtCsa6QFEuJDwzK_9flexorama9formatter5testss_38test_streaming_formatter_mixed_content
FN:1830,_RNvNtNtCsa6QFEuJDwzK_9flexorama9formatter5testss_38test_text_before_and_after_code_blocks
FN:1395,_RNvNtNtCsa6QFEuJDwzK_9flexorama9formatter5testss_39test_format_code_block_unknown_language
FN:1862,_RNvNtNtCsa6QFEuJDwzK_9flexorama9formatter5testss_39test_highlight_rust_string_with_escapes
FN:1930,_RNvNtNtCsa6QFEuJDwzK_9flexorama9formatter5testss_40test_code_block_footer_width_calculation
FN:1156,_RNvNtNtCsa6QFEuJDwzK_9flexorama9formatter5testss_40test_normalize_language_case_insensitive
FN:1663,_RNvNtNtCsa6QFEuJDwzK_9flexorama9formatter5testss_40test_streaming_formatter_multiple_chunks
FN:1295,_RNvNtNtCsa6QFEuJDwzK_9flexorama9formatter5testss_41test_format_response_multiple_code_blocks
FN:1841,_RNvNtNtCsa6QFEuJDwzK_9flexorama9formatter5testss_41test_streaming_formatter_empty_code_block
FN:1617,_RNvNtNtCsa6QFEuJDwzK_9flexorama9formatter5testss_42test_build_code_block_footer_long_language
FN:1610,_RNvNtNtCsa6QFEuJDwzK_9flexorama9formatter5testss_42test_build_code_block_header_long_language
FN:1906,_RNvNtNtCsa6QFEuJDwzK_9flexorama9formatter5testss_42test_cache_invalidation_on_different_input
FN:1748,_RNvNtNtCsa6QFEuJDwzK_9flexorama9formatter5testss_42test_file_highlighting_multiple_at_symbols
FN:1722,_RNvNtNtCsa6QFEuJDwzK_9flexorama9formatter5testss_42test_format_response_with_nested_backticks
FN:1878,_RNvNtNtCsa6QFEuJDwzK_9flexorama9formatter5testss_42test_highlight_javascript_template_strings
FN:1886,_RNvNtNtCsa6QFEuJDwzK_9flexorama9formatter5testss_42test_multiple_languages_in_single_response
FN:1652,_RNvNtNtCsa6QFEuJDwzK_9flexorama9formatter5testss_42test_streaming_formatter_handle_code_block
FN:1897,_RNvNtNtCsa6QFEuJDwzK_9flexorama9formatter5testss_43test_file_highlighting_with_dots_and_dashes
FN:1635,_RNvNtNtCsa6QFEuJDwzK_9flexorama9formatter5testss_43test_streaming_formatter_handle_empty_chunk
FN:1643,_RNvNtNtCsa6QFEuJDwzK_9flexorama9formatter5testss_43test_streaming_formatter_handle_simple_text
FN:1731,_RNvNtNtCsa6QFEuJDwzK_9flexorama9formatter5testss_44test_format_response_with_special_characters
FN:1684,_RNvNtNtCsa6QFEuJDwzK_9flexorama9formatter5testss_44test_streaming_formatter_finish_with_pending
FN:1265,_RNvNtNtCsa6QFEuJDwzK_9flexorama9formatter5testss_45test_file_highlighting_fast_path_no_at_symbol
FN:1740,_RNvNtNtCsa6QFEuJDwzK_9flexorama9formatter5testss_46test_file_highlighting_with_special_characters
FN:1921,_RNvNtNtCsa6QFEuJDwzK_9flexorama9formatter5testss_46test_format_text_with_file_highlighting_direct
FN:1693,_RNvNtNtCsa6QFEuJDwzK_9flexorama9formatter5testss_49test_streaming_formatter_code_block_with_language
FN:1851,_RNvNtNtCsa6QFEuJDwzK_9flexorama9formatter5testss_52test_streaming_formatter_code_block_without_language
FNDA:1,_RNvMNtCsa6QFEuJDwzK_9flexorama9formatterNtB2_13CodeFormatter12highlight_go
FNDA:1,_RNvMNtCsa6QFEuJDwzK_9flexorama9formatterNtB2_13CodeFormatter13highlight_css
FNDA:2,_RNvMNtCsa6QFEuJDwzK_9flexorama9formatterNtB2_13CodeFormatter13highlight_sql
FNDA:0,_RNvMNtCsa6QFEuJDwzK_9flexorama9formatterNtB2_13CodeFormatter13highlight_xml
FNDA:3,_RNvMNtCsa6QFEuJDwzK_9flexorama9formatterNtB2_13CodeFormatter14highlight_bash
FNDA:1,_RNvMNtCsa6QFEuJDwzK_9flexorama9formatterNtB2_13CodeFormatter14highlight_html
FNDA:1,_RNvMNtCsa6QFEuJDwzK_9flexorama9formatterNtB2_13CodeFormatter14highlight_java
FNDA:2,_RNvMNtCsa6QFEuJDwzK_9flexorama9formatterNtB2_13CodeFormatter14highlight_json
FNDA:62,_RNvMNtCsa6QFEuJDwzK_9flexorama9formatterNtB2_13CodeFormatter14highlight_line
FNDA:15,_RNvMNtCsa6QFEuJDwzK_9flexorama9formatterNtB2_13CodeFormatter14highlight_rust
FNDA:2,_RNvMNtCsa6QFEuJDwzK_9flexorama9formatterNtB2_13CodeFormatter14highlight_toml
FNDA:3,_RNvMNtCsa6QFEuJDwzK_9flexorama9formatterNtB2_13CodeFormatter14highlight_yaml
FNDA:12,_RNvMNtCsa6QFEuJDwzK_9flexorama9formatterNtB2_13CodeFormatter15format_response
FNDA:1,_RNvMNtCsa6QFEuJDwzK_9flexorama9formatterNtB2_13CodeFormatter15highlight_c_cpp
FNDA:0,_RNvMNtCsa6QFEuJDwzK_9flexorama9formatterNtB2_13CodeFormatter15print_formatted
FNDA:13,_RNvMNtCsa6QFEuJDwzK_9flexorama9formatterNtB2_13CodeFormatter16highlight_python
FNDA:22,_RNvMNtCsa6QFEuJDwzK_9flexorama9formatterNtB2_13CodeFormatter17format_code_block
FNDA:59,_RNvMNtCsa6QFEuJDwzK_9flexorama9formatterNtB2_13CodeFormatter17highlight_numbers
FNDA:2,_RNvMNtCsa6QFEuJDwzK_9flexorama9formatterNtB2_13CodeFormatter18highlight_markdown
FNDA:57,_RNvMNtCsa6QFEuJDwzK_9flexorama9formatterNtB2_13CodeFormatter18normalize_language
FNDA:10,_RNvMNtCsa6QFEuJDwzK_9flexorama9formatterNtB2_13CodeFormatter20highlight_javascript
FNDA:4,_RNvMNtCsa6QFEuJDwzK_9flexorama9formatterNtB2_13CodeFormatter20highlight_typescript
FNDA:31,_RNvMNtCsa6QFEuJDwzK_9flexorama9formatterNtB2_13CodeFormatter23build_code_block_footer
FNDA:29,_RNvMNtCsa6QFEuJDwzK_9flexorama9formatterNtB2_13CodeFormatter23build_code_block_header
FNDA:12,_RNvMNtCsa6QFEuJDwzK_9flexorama9formatterNtB2_13CodeFormatter28format_text_with_code_blocks
FNDA:18,_RNvMNtCsa6QFEuJDwzK_9flexorama9formatterNtB2_13CodeFormatter34format_text_with_file_highlighting
FNDA:21,_RNvMNtCsa6QFEuJDwzK_9flexorama9formatterNtB2_13CodeFormatter35format_input_with_file_highlighting
FNDA:108,_RNvMNtCsa6QFEuJDwzK_9flexorama9formatterNtB2_13CodeFormatter3new
FNDA:29,_RNvMs0_NtCsa6QFEuJDwzK_9flexorama9formatterNtB5_26StreamingResponseFormatter12handle_chunk
FNDA:10,_RNvMs0_NtCsa6QFEuJDwzK_9flexorama9formatterNtB5_26StreamingResponseFormatter16handle_code_line
FNDA:5,_RNvMs0_NtCsa6QFEuJDwzK_9flexorama9formatterNtB5_26StreamingResponseFormatter16start_code_block
FNDA:12,_RNvMs0_NtCsa6QFEuJDwzK_9flexorama9formatterNtB5_26StreamingResponseFormatter17handle_plain_line
FNDA:22,_RNvMs0_NtCsa6QFEuJDwzK_9flexorama9formatterNtB5_26StreamingResponseFormatter21process_complete_line
FNDA:15,_RNvMs0_NtCsa6QFEuJDwzK_9flexorama9formatterNtB5_26StreamingResponseFormatter3new
FNDA:9,_RNvMs0_NtCsa6QFEuJDwzK_9flexorama9formatterNtB5_26StreamingResponseFormatter6finish
FNDA:95,_RNvNtCsa6QFEuJDwzK_9flexorama9formatter21create_code_formatter
FNDA:5,_RNvXs_NtCsa6QFEuJDwzK_9flexorama9formatterNtB4_13CodeFormatterNtNtCs3XFJfFEDSOQ_4core5clone5Clone5clone
FNDA:0,_RNCNvMNtCsa6QFEuJDwzK_9flexorama9formatterNtB4_13CodeFormatter13highlight_css0B6_
FNDA:1,_RNCNvMNtCsa6QFEuJDwzK_9flexorama9formatterNtB4_13CodeFormatter13highlight_csss0_0B6_
FNDA:1,_RNCNvMNtCsa6QFEuJDwzK_9flexorama9formatterNtB4_13CodeFormatter13highlight_csss_0B6_
FNDA:0,_RNCNvMNtCsa6QFEuJDwzK_9flexorama9formatterNtB4_13CodeFormatter13highlight_sql0B6_
FNDA:2,_RNCNvMNtCsa6QFEuJDwzK_9flexorama9formatterNtB4_13CodeFormatter14highlight_bash0B6_
FNDA:2,_RNCNvMNtCsa6QFEuJDwzK_9flexorama9formatterNtB4_13CodeFormatter14highlight_html0B6_
FNDA:1,_RNCNvMNtCsa6QFEuJDwzK_9flexorama9formatterNtB4_13CodeFormatter14highlight_htmls_0B6_
FNDA:3,_RNCNvMNtCsa6QFEuJDwzK_9flexorama9formatterNtB4_13CodeFormatter14highlight_json0B6_
FNDA:1,_RNCNvMNtCsa6QFEuJDwzK_9flexorama9formatterNtB4_13CodeFormatter14highlight_jsons0_0B6_
FNDA:2,_RNCNvMNtCsa6QFEuJDwzK_9flexorama9formatterNtB4_13CodeFormatter14highlight_jsons_0B6_
FNDA:3,_RNCNvMNtCsa6QFEuJDwzK_9flexorama9formatterNtB4_13CodeFormatter14highlight_rust0B6_
FNDA:0,_RNCNvMNtCsa6QFEuJDwzK_9flexorama9formatterNtB4_13CodeFormatter14highlight_toml0B6_
FNDA:0,_RNCNvMNtCsa6QFEuJDwzK_9flexorama9formatterNtB4_13CodeFormatter14highlight_yaml0B6_
FNDA:1,_RNCNvMNtCsa6QFEuJDwzK_9flexorama9formatterNtB4_13CodeFormatter14highlight_yamls_0B6_
FNDA:2,_RNCNvMNtCsa6QFEuJDwzK_9flexorama9formatterNtB4_13CodeFormatter16highlight_python0B6_
FNDA:15,_RNCNvMNtCsa6QFEuJDwzK_9flexorama9formatterNtB4_13CodeFormatter17highlight_numbers0B6_
FNDA:2,_RNCNvMNtCsa6QFEuJDwzK_9flexorama9formatterNtB4_13CodeFormatter18highlight_markdown0B6_
FNDA:1,_RNCNvMNtCsa6QFEuJDwzK_9flexorama9formatterNtB4_13CodeFormatter18highlight_markdowns0_0B6_
FNDA:0,_RNCNvMNtCsa6QFEuJDwzK_9flexorama9formatterNtB4_13CodeFormatter18highlight_markdowns1_0B6_
FNDA:0,_RNCNvMNtCsa6QFEuJDwzK_9flexorama9formatterNtB4_13CodeFormatter18highlight_markdowns2_0B6_
FNDA:1,_RNCNvMNtCsa6QFEuJDwzK_9flexorama9formatterNtB4_13CodeFormatter18highlight_markdowns_0B6_
FNDA:1,_RNCNvMNtCsa6QFEuJDwzK_9flexorama9formatterNtB4_13CodeFormatter20highlight_javascript0B6_
FNDA:12,_RNCNvMNtCsa6QFEuJDwzK_9flexorama9formatterNtB4_13CodeFormatter28format_text_with_code_blocks0B6_
FNDA:1,_RNCNvNtCsa6QFEuJDwzK_9flexorama9formatter21create_code_formatter0B5_
FNDA:1,_RNvNtNtCsa6QFEuJDwzK_9flexorama9formatter5testss_16test_empty_input
FNDA:1,_RNvNtNtCsa6QFEuJDwzK_9flexorama9formatter5testss_22test_highlight_numbers
FNDA:1,_RNvNtNtCsa6QFEuJDwzK_9flexorama9formatter5testss_23test_code_formatter_new
FNDA:1,_RNvNtNtCsa6QFEuJDwzK_9flexorama9formatter5testss_24test_highlight_html_tags
FNDA:1,_RNvNtNtCsa6QFEuJDwzK_9flexorama9formatter5testss_24test_highlight_json_keys
FNDA:1,_RNvNtNtCsa6QFEuJDwzK_9flexorama9formatter5testss_24test_highlight_toml_keys
FNDA:1,_RNvNtNtCsa6QFEuJDwzK_9flexorama9formatter5testss_24test_highlight_yaml_keys
FNDA:1,_RNvNtNtCsa6QFEuJDwzK_9flexorama9formatter5testss_25test_code_formatter_clone
FNDA:1,_RNvNtNtCsa6QFEuJDwzK_9flexorama9formatter5testss_25test_highlight_rust_types
FNDA:1,_RNvNtNtCsa6QFEuJDwzK_9flexorama9formatter5testss_26test_format_code_block_sql
FNDA:1,_RNvNtNtCsa6QFEuJDwzK_9flexorama9formatter5testss_26test_highlight_go_keywords
FNDA:1,_RNvNtNtCsa6QFEuJDwzK_9flexorama9formatter5testss_26test_incomplete_code_block
FNDA:1,_RNvNtNtCsa6QFEuJDwzK_9flexorama9formatter5testss_26test_whitespace_only_input
FNDA:1,_RNvNtNtCsa6QFEuJDwzK_9flexorama9formatter5testss_27test_format_code_block_bash
FNDA:1,_RNvNtNtCsa6QFEuJDwzK_9flexorama9formatter5testss_27test_format_code_block_json
FNDA:1,_RNvNtNtCsa6QFEuJDwzK_9flexorama9formatter5testss_27test_format_code_block_rust
FNDA:1,_RNvNtNtCsa6QFEuJDwzK_9flexorama9formatter5testss_27test_format_code_block_yaml
FNDA:1,_RNvNtNtCsa6QFEuJDwzK_9flexorama9formatter5testss_27test_highlight_sql_keywords
FNDA:1,_RNvNtNtCsa6QFEuJDwzK_9flexorama9formatter5testss_27test_normalize_language_cpp
FNDA:1,_RNvNtNtCsa6QFEuJDwzK_9flexorama9formatter5testss_28test_build_code_block_footer
FNDA:1,_RNvNtNtCsa6QFEuJDwzK_9flexorama9formatter5testss_28test_build_code_block_header
FNDA:1,_RNvNtNtCsa6QFEuJDwzK_9flexorama9formatter5testss_28test_code_formatter_creation
FNDA:1,_RNvNtNtCsa6QFEuJDwzK_9flexorama9formatter5testss_28test_consecutive_code_blocks
FNDA:1,_RNvNtNtCsa6QFEuJDwzK_9flexorama9formatter5testss_28test_format_code_block_empty
FNDA:1,_RNvNtNtCsa6QFEuJDwzK_9flexorama9formatter5testss_28test_highlight_bash_commands
FNDA:1,_RNvNtNtCsa6QFEuJDwzK_9flexorama9formatter5testss_28test_highlight_java_keywords
FNDA:1,_RNvNtNtCsa6QFEuJDwzK_9flexorama9formatter5testss_28test_highlight_markdown_bold
FNDA:1,_RNvNtNtCsa6QFEuJDwzK_9flexorama9formatter5testss_28test_highlight_rust_comments
FNDA:1,_RNvNtNtCsa6QFEuJDwzK_9flexorama9formatter5testss_28test_highlight_rust_keywords
FNDA:1,_RNvNtNtCsa6QFEuJDwzK_9flexorama9formatter5testss_28test_highlight_toml_sections
FNDA:1,_RNvNtNtCsa6QFEuJDwzK_9flexorama9formatter5testss_28test_normalize_language_rust
FNDA:1,_RNvNtNtCsa6QFEuJDwzK_9flexorama9formatter5testss_28test_normalize_language_yaml
FNDA:1,_RNvNtNtCsa6QFEuJDwzK_9flexorama9formatter5testss_29test_file_highlighting_at_end
FNDA:1,_RNvNtNtCsa6QFEuJDwzK_9flexorama9formatter5testss_29test_format_code_block_python
FNDA:1,_RNvNtNtCsa6QFEuJDwzK_9flexorama9formatter5testss_29test_highlight_c_cpp_keywords
FNDA:1,_RNvNtNtCsa6QFEuJDwzK_9flexorama9formatter5testss_29test_highlight_css_properties
FNDA:1,_RNvNtNtCsa6QFEuJDwzK_9flexorama9formatter5testss_29test_normalize_language_empty
FNDA:1,_RNvNtNtCsa6QFEuJDwzK_9flexorama9formatter5testss_29test_normalize_language_shell
FNDA:1,_RNvNtNtCsa6QFEuJDwzK_9flexorama9formatter5testss_30test_highlight_python_comments
FNDA:1,_RNvNtNtCsa6QFEuJDwzK_9flexorama9formatter5testss_30test_highlight_python_keywords
FNDA:1,_RNvNtNtCsa6QFEuJDwzK_9flexorama9formatter5testss_30test_normalize_language_python
FNDA:1,_RNvNtNtCsa6QFEuJDwzK_9flexorama9formatter5testss_31test_file_highlighting_at_start
FNDA:1,_RNvNtNtCsa6QFEuJDwzK_9flexorama9formatter5testss_31test_file_highlighting_no_files
FNDA:1,_RNvNtNtCsa6QFEuJDwzK_9flexorama9formatter5testss_31test_highlight_markdown_headers
FNDA:1,_RNvNtNtCsa6QFEuJDwzK_9flexorama9formatter5testss_31test_normalize_language_unknown
FNDA:1,_RNvNtNtCsa6QFEuJDwzK_9flexorama9formatter5testss_32test_file_highlighting_cache_hit
FNDA:1,_RNvNtNtCsa6QFEuJDwzK_9flexorama9formatter5testss_32test_file_highlighting_with_path
FNDA:1,_RNvNtNtCsa6QFEuJDwzK_9flexorama9formatter5testss_32test_normalize_language_markdown
FNDA:1,_RNvNtNtCsa6QFEuJDwzK_9flexorama9formatter5testss_33test_file_highlighting_cache_miss
FNDA:1,_RNvNtNtCsa6QFEuJDwzK_9flexorama9formatter5testss_33test_format_code_block_javascript
FNDA:1,_RNvNtNtCsa6QFEuJDwzK_9flexorama9formatter5testss_33test_format_code_block_typescript
FNDA:1,_RNvNtNtCsa6QFEuJDwzK_9flexorama9formatter5testss_33test_streaming_formatter_creation
FNDA:1,_RNvNtNtCsa6QFEuJDwzK_9flexorama9formatter5testss_34test_file_highlighting_empty_input
FNDA:1,_RNvNtNtCsa6QFEuJDwzK_9flexorama9formatter5testss_34test_file_highlighting_single_file
FNDA:1,_RNvNtNtCsa6QFEuJDwzK_9flexorama9formatter5testss_34test_highlight_javascript_keywords
FNDA:1,_RNvNtNtCsa6QFEuJDwzK_9flexorama9formatter5testss_34test_highlight_typescript_keywords
FNDA:1,_RNvNtNtCsa6QFEuJDwzK_9flexorama9formatter5testss_34test_normalize_language_javascript
FNDA:1,_RNvNtNtCsa6QFEuJDwzK_9flexorama9formatter5testss_34test_normalize_language_mixed_case
FNDA:1,_RNvNtNtCsa6QFEuJDwzK_9flexorama9formatter5testss_34test_normalize_language_typescript
FNDA:1,_RNvNtNtCsa6QFEuJDwzK_9flexorama9formatter5testss_35test_code_block_with_empty_language
FNDA:1,_RNvNtNtCsa6QFEuJDwzK_9flexorama9formatter5testss_35test_format_response_no_code_blocks
FNDA:1,_RNvNtNtCsa6QFEuJDwzK_9flexorama9formatter5testss_35test_highlight_python_triple_quotes
FNDA:1,_RNvNtNtCsa6QFEuJDwzK_9flexorama9formatter5testss_36test_highlight_line_unknown_language
FNDA:1,_RNvNtNtCsa6QFEuJDwzK_9flexorama9formatter5testss_37test_file_highlighting_multiple_files
FNDA:1,_RNvNtNtCsa6QFEuJDwzK_9flexorama9formatter5testss_37test_file_highlighting_multiple_paths
FNDA:1,_RNvNtNtCsa6QFEuJDwzK_9flexorama9formatter5testss_37test_streaming_formatter_partial_line
FNDA:1,_RNvNtNtCsa6QFEuJDwzK_9flexorama9formatter5testss_38test_file_highlighting_with_extensions
FNDA:1,_RNvNtNtCsa6QFEuJDwzK_9flexorama9formatter5testss_38test_format_response_single_code_block
FNDA:1,_RNvNtNtCsa6QFEuJDwzK_9flexorama9formatter5testss_38test_highlight_numbers_various_formats
FNDA:1,_RNvNtNtCsa6QFEuJDwzK_9flexorama9formatter5testss_38test_streaming_formatter_mixed_content
FNDA:1,_RNvNtNtCsa6QFEuJDwzK_9flexorama9formatter5testss_38test_text_before_and_after_code_blocks
FNDA:1,_RNvNtNtCsa6QFEuJDwzK_9flexorama9formatter5testss_39test_format_code_block_unknown_language
FNDA:1,_RNvNtNtCsa6QFEuJDwzK_9flexorama9formatter5testss_39test_highlight_rust_string_with_escapes
FNDA:1,_RNvNtNtCsa6QFEuJDwzK_9flexorama9formatter5testss_40test_code_block_footer_width_calculation
FNDA:1,_RNvNtNtCsa6QFEuJDwzK_9flexorama9formatter5testss_40test_normalize_language_case_insensitive
FNDA:1,_RNvNtNtCsa6QFEuJDwzK_9flexorama9formatter5testss_40test_streaming_formatter_multiple_chunks
FNDA:1,_RNvNtNtCsa6QFEuJDwzK_9flexorama9formatter5testss_41test_format_response_multiple_code_blocks
FNDA:1,_RNvNtNtCsa6QFEuJDwzK_9flexorama9formatter5testss_41test_streaming_formatter_empty_code_block
FNDA:1,_RNvNtNtCsa6QFEuJDwzK_9flexorama9formatter5testss_42test_build_code_block_footer_long_language
FNDA:1,_RNvNtNtCsa6QFEuJDwzK_9flexorama9formatter5testss_42test_build_code_block_header_long_language
FNDA:1,_RNvNtNtCsa6QFEuJDwzK_9flexorama9formatter5testss_42test_cache_invalidation_on_different_input
FNDA:1,_RNvNtNtCsa6QFEuJDwzK_9flexorama9formatter5testss_42test_file_highlighting_multiple_at_symbols
FNDA:1,_RNvNtNtCsa6QFEuJDwzK_9flexorama9formatter5testss_42test_format_response_with_nested_backticks
FNDA:1,_RNvNtNtCsa6QFEuJDwzK_9flexorama9formatter5testss_42test_highlight_javascript_template_strings
FNDA:1,_RNvNtNtCsa6QFEuJDwzK_9flexorama9formatter5testss_42test_multiple_languages_in_single_response
FNDA:1,_RNvNtNtCsa6QFEuJDwzK_9flexorama9formatter5testss_42test_streaming_formatter_handle_code_block
FNDA:1,_RNvNtNtCsa6QFEuJDwzK_9flexorama9formatter5testss_43test_file_highlighting_with_dots_and_dashes
FNDA:1,_RNvNtNtCsa6QFEuJDwzK_9flexorama9formatter5testss_43test_streaming_formatter_handle_empty_chunk
FNDA:1,_RNvNtNtCsa6QFEuJDwzK_9flexorama9formatter5testss_43test_streaming_formatter_handle_simple_text
FNDA:1,_RNvNtNtCsa6QFEuJDwzK_9flexorama9formatter5testss_44test_format_response_with_special_characters
FNDA:1,_RNvNtNtCsa6QFEuJDwzK_9flexorama9formatter5testss_44test_streaming_formatter_finish_with_pending
FNDA:1,_RNvNtNtCsa6QFEuJDwzK_9flexorama9formatter5testss_45test_file_highlighting_fast_path_no_at_symbol
FNDA:1,_RNvNtNtCsa6QFEuJDwzK_9flexorama9formatter5testss_46test_file_highlighting_with_special_characters
FNDA:1,_RNvNtNtCsa6QFEuJDwzK_9flexorama9formatter5testss_46test_format_text_with_file_highlighting_direct
FNDA:1,_RNvNtNtCsa6QFEuJDwzK_9flexorama9formatter5testss_49test_streaming_formatter_code_block_with_language
FNDA:1,_RNvNtNtCsa6QFEuJDwzK_9flexorama9formatter5testss_52test_streaming_formatter_code_block_without_language
FNF:157
FNH:149
DA:19,108
DA:20,108
DA:21,108
DA:22,108
DA:24,108
DA:25,108
DA:26,108
DA:27,108
DA:28,108
DA:29,108
DA:30,108
DA:31,108
DA:32,108
DA:33,108
DA:35,12
DA:36,12
DA:37,12
DA:38,12
DA:41,21
DA:43,21
DA:44,3
DA:45,18
DA:47,18
DA:50,18
DA:51,1
DA:52,17
DA:55,17
DA:56,17
DA:57,17
DA:59,17
DA:60,21
DA:62,12
DA:63,12
DA:64,12
DA:66,12
DA:67,12
DA:68,12
DA:69,12
DA:72,12
DA:75,12
DA:76,12
DA:78,12
DA:82,12
DA:84,12
DA:85,12
DA:87,22
DA:88,22
DA:91,22
DA:94,22
DA:95,22
DA:98,33
DA:99,33
DA:100,33
DA:101,33
DA:102,33
DA:105,22
DA:106,22
DA:108,22
DA:109,22
DA:111,29
DA:112,29
DA:113,29
DA:114,29
DA:115,29
DA:116,29
DA:117,29
DA:118,29
DA:120,29
DA:122,31
DA:123,31
DA:124,31
DA:125,31
DA:126,31
DA:127,31
DA:128,31
DA:130,31
DA:132,62
DA:133,62
DA:134,62
DA:135,47
DA:136,34
DA:137,28
DA:138,24
DA:139,22
DA:140,19
DA:141,18
DA:142,17
DA:143,14
DA:144,12
DA:145,10
DA:146,8
DA:147,8
DA:148,7
DA:149,6
DA:150,5
DA:152,62
DA:155,15
DA:156,15
DA:159,15
DA:160,15
DA:161,15
DA:162,15
DA:163,15
DA:164,15
DA:165,495
DA:166,480
DA:167,480
DA:168,480
DA:169,480
DA:170,480
DA:173,15
DA:174,15
DA:175,15
DA:176,15
DA:177,15
DA:178,375
DA:179,360
DA:180,360
DA:181,360
DA:182,360
DA:183,360
DA:186,15
DA:187,15
DA:188,15
DA:189,3
DA:190,3
DA:191,15
DA:194,15
DA:195,1
DA:196,14
DA:197,0
DA:198,0
DA:199,14
DA:201,15
DA:202,15
DA:204,13
DA:205,13
DA:208,13
DA:209,13
DA:210,13
DA:211,13
DA:212,13
DA:213,13
DA:214,429
DA:215,416
DA:216,416
DA:217,416
DA:218,416
DA:219,416
DA:222,13
DA:223,13
DA:224,13
DA:225,13
DA:226,13
DA:227,2
DA:228,2
DA:229,13
DA:232,13
DA:233,1
DA:234,12
DA:235,0
DA:236,0
DA:237,12
DA:239,13
DA:240,13
DA:242,10
DA:243,10
DA:246,10
DA:247,10
DA:248,10
DA:249,10
DA:250,10
DA:251,10
DA:252,10
DA:253,10
DA:254,10
DA:255,10
DA:256,10
DA:257,10
DA:258,10
DA:259,10
DA:260,10
DA:261,10
DA:262,10
DA:263,10
DA:264,10
DA:265,10
DA:266,10
DA:267,10
DA:268,10
DA:269,10
DA:270,10
DA:271,10
DA:272,10
DA:273,10
DA:274,10
DA:275,10
DA:276,10
DA:277,10
DA:278,10
DA:279,10
DA:280,10
DA:281,10
DA:282,10
DA:283,360
DA:284,350
DA:285,350
DA:286,350
DA:287,350
DA:288,350
DA:291,10
DA:292,10
DA:293,10
DA:294,10
DA:295,1
DA:296,1
DA:297,10
DA:300,10
DA:301,0
DA:302,10
DA:303,0
DA:304,0
DA:305,10
DA:307,10
DA:308,10
DA:310,4
DA:312,4
DA:315,4
DA:316,4
DA:317,4
DA:318,4
DA:319,4
DA:320,4
DA:321,4
DA:322,4
DA:323,4
DA:324,4
DA:325,4
DA:326,4
DA:327,4
DA:328,4
DA:329,4
DA:330,4
DA:331,4
DA:332,4
DA:333,68
DA:334,64
DA:335,64
DA:336,64
DA:337,64
DA:338,64
DA:340,4
DA:341,4
DA:343,2
DA:344,2
DA:347,2
DA:348,2
DA:349,3
DA:350,3
DA:351,3
DA:352,3
DA:353,2
DA:356,2
DA:357,2
DA:358,2
DA:359,2
DA:360,2
DA:361,2
DA:364,2
DA:365,2
DA:366,2
DA:367,1
DA:368,1
DA:369,2
DA:371,2
DA:372,2
DA:374,3
DA:375,3
DA:378,3
DA:379,3
DA:380,3
DA:381,3
DA:384,3
DA:385,3
DA:386,3
DA:387,0
DA:388,0
DA:389,3
DA:392,3
DA:393,3
DA:394,3
DA:395,1
DA:396,1
DA:397,3
DA:399,3
DA:400,3
DA:402,1
DA:403,1
DA:406,1
DA:407,1
DA:408,2
DA:409,1
DA:412,1
DA:413,1
DA:414,1
DA:415,1
DA:416,1
DA:417,1
DA:419,1
DA:420,1
DA:422,1
DA:423,1
DA:426,1
DA:427,1
DA:428,1
DA:429,0
DA:430,0
DA:431,1
DA:434,1
DA:435,1
DA:436,1
DA:437,1
DA:440,1
DA:441,1
DA:442,1
DA:443,1
DA:444,1
DA:445,1
DA:447,1
DA:448,1
DA:450,3
DA:451,3
DA:454,3
DA:455,3
DA:456,3
DA:457,3
DA:458,3
DA:459,3
DA:460,3
DA:461,3
DA:462,3
DA:463,3
DA:464,252
DA:465,249
DA:466,249
DA:467,249
DA:468,249
DA:469,249
DA:472,3
DA:473,3
DA:474,3
DA:475,2
DA:476,2
DA:477,3
DA:480,3
DA:481,1
DA:482,2
DA:484,3
DA:485,3
DA:487,2
DA:488,2
DA:491,2
DA:492,2
DA:493,2
DA:494,2
DA:495,2
DA:496,2
DA:497,2
DA:498,2
DA:499,2
DA:500,2
DA:501,2
DA:502,2
DA:503,2
DA:504,2
DA:505,2
DA:506,2
DA:507,2
DA:508,2
DA:509,2
DA:510,2
DA:511,2
DA:512,2
DA:513,2
DA:514,2
DA:515,2
DA:516,2
DA:517,2
DA:518,2
DA:519,2
DA:520,2
DA:521,2
DA:522,2
DA:523,2
DA:524,2
DA:525,2
DA:526,2
DA:527,2
DA:528,2
DA:529,2
DA:530,2
DA:531,2
DA:532,2
DA:533,2
DA:534,2
DA:535,2
DA:536,2
DA:537,2
DA:538,2
DA:539,2
DA:540,2
DA:541,2
DA:542,2
DA:543,2
DA:544,2
DA:545,2
DA:546,2
DA:547,2
DA:548,2
DA:549,2
DA:550,2
DA:551,2
DA:552,2
DA:553,122
DA:554,120
DA:555,120
DA:556,120
DA:557,120
DA:558,120
DA:561,2
DA:562,2
DA:563,2
DA:564,2
DA:566,2
DA:567,2
DA:569,2
DA:570,2
DA:573,2
DA:574,2
DA:575,1
DA:576,1
DA:577,1
DA:578,1
DA:579,1
DA:581,1
DA:584,2
DA:585,2
DA:586,2
DA:587,2
DA:590,2
DA:591,2
DA:592,2
DA:593,1
DA:594,1
DA:595,2
DA:598,2
DA:599,2
DA:600,2
DA:601,0
DA:602,0
DA:603,2
DA:606,2
DA:607,2
DA:608,2
DA:609,0
DA:610,0
DA:611,2
DA:613,2
DA:614,2
DA:616,2
DA:617,2
DA:620,2
DA:621,1
DA:622,1
DA:625,2
DA:626,1
DA:627,1
DA:628,1
DA:631,2
DA:632,2
DA:633,2
DA:634,0
DA:635,0
DA:636,2
DA:638,2
DA:639,2
DA:641,0
DA:642,0
DA:643,0
DA:645,1
DA:646,1
DA:649,1
DA:650,1
DA:651,1
DA:652,1
DA:653,1
DA:654,1
DA:655,1
DA:656,1
DA:657,1
DA:658,1
DA:659,1
DA:660,1
DA:661,1
DA:662,1
DA:663,1
DA:664,1
DA:665,1
DA:666,1
DA:667,1
DA:668,1
DA:669,1
DA:670,1
DA:671,1
DA:672,1
DA:673,1
DA:674,1
DA:675,1
DA:676,1
DA:677,1
DA:678,1
DA:679,1
DA:680,1
DA:681,1
DA:682,1
DA:683,1
DA:684,1
DA:685,1
DA:686,1
DA:687,1
DA:688,1
DA:689,1
DA:690,1
DA:691,1
DA:692,1
DA:693,1
DA:694,1
DA:695,1
DA:696,1
DA:697,1
DA:698,1
DA:699,1
DA:700,1
DA:701,1
DA:702,1
DA:703,53
DA:704,52
DA:705,52
DA:706,52
DA:707,52
DA:708,52
DA:711,1
DA:712,0
DA:713,1
DA:716,1
DA:717,0
DA:718,1
DA:719,0
DA:720,1
DA:722,1
DA:723,1
DA:725,1
DA:726,1
DA:729,1
DA:730,1
DA:731,1
DA:732,1
DA:733,1
DA:734,1
DA:735,1
DA:736,1
DA:737,1
DA:738,1
DA:739,1
DA:740,1
DA:741,1
DA:742,1
DA:743,1
DA:744,1
DA:745,1
DA:746,1
DA:747,1
DA:748,1
DA:749,1
DA:750,1
DA:751,1
DA:752,1
DA:753,1
DA:754,1
DA:755,1
DA:756,1
DA:757,1
DA:758,1
DA:759,1
DA:760,1
DA:761,1
DA:762,1
DA:763,1
DA:764,1
DA:765,1
DA:766,1
DA:767,1
DA:768,1
DA:769,1
DA:770,1
DA:771,1
DA:772,1
DA:773,43
DA:774,42
DA:775,42
DA:776,42
DA:777,42
DA:778,42
DA:781,1
DA:782,0
DA:783,1
DA:785,1
DA:786,1
DA:788,1
DA:789,1
DA:792,1
DA:793,1
DA:794,1
DA:795,1
DA:796,1
DA:797,1
DA:798,1
DA:799,1
DA:800,1
DA:801,1
DA:802,1
DA:803,1
DA:804,1
DA:805,1
DA:806,1
DA:807,1
DA:808,1
DA:809,1
DA:810,1
DA:811,1
DA:812,1
DA:813,1
DA:814,1
DA:815,1
DA:816,1
DA:817,1
DA:818,1
DA:819,26
DA:820,25
DA:821,25
DA:822,25
DA:823,25
DA:824,25
DA:827,1
DA:828,1
DA:829,1
DA:830,1
DA:831,1
DA:832,1
DA:833,1
DA:834,1
DA:835,1
DA:836,1
DA:837,1
DA:838,1
DA:839,1
DA:840,1
DA:841,1
DA:842,1
DA:843,1
DA:844,1
DA:845,1
DA:846,1
DA:847,19
DA:848,18
DA:849,18
DA:850,18
DA:851,18
DA:852,18
DA:854,1
DA:855,1
DA:857,59
DA:858,59
DA:859,59
DA:860,59
DA:861,59
DA:863,57
DA:864,57
DA:865,57
DA:866,54
DA:867,53
DA:868,52
DA:869,51
DA:870,49
DA:871,49
DA:872,45
DA:873,44
DA:874,40
DA:875,40
DA:876,37
DA:877,36
DA:878,32
DA:880,57
DA:882,0
DA:883,0
DA:884,0
DA:885,0
DA:886,0
DA:887,0
DA:890,18
DA:891,18
DA:892,18
DA:895,25
DA:896,25
DA:897,25
DA:898,25
DA:899,25
DA:900,25
DA:901,25
DA:902,25
DA:903,25
DA:904,25
DA:905,25
DA:906,25
DA:907,25
DA:908,25
DA:909,25
DA:910,25
DA:911,25
DA:914,18
DA:916,18
DA:917,18
DA:920,95
DA:925,95
DA:927,95
DA:928,95
DA:931,5
DA:932,5
DA:933,5
DA:934,5
DA:935,5
DA:936,5
DA:937,5
DA:938,5
DA:949,15
DA:950,15
DA:951,15
DA:952,15
DA:953,15
DA:954,15
DA:955,15
DA:956,15
DA:958,29
DA:959,29
DA:960,1
DA:961,28
DA:963,28
DA:965,50
DA:966,22
DA:967,22
DA:968,22
DA:971,28
DA:972,28
DA:973,29
DA:975,9
DA:976,9
DA:977,1
DA:978,0
DA:979,0
DA:980,0
DA:981,0
DA:982,1
DA:983,1
DA:984,1
DA:985,1
DA:986,8
DA:988,9
DA:989,0
DA:990,0
DA:991,0
DA:992,0
DA:993,0
DA:994,9
DA:996,9
DA:997,9
DA:998,9
DA:1000,22
DA:1001,22
DA:1002,10
DA:1003,10
DA:1004,12
DA:1006,22
DA:1007,22
DA:1009,12
DA:1010,12
DA:1011,12
DA:1012,5
DA:1013,5
DA:1014,7
DA:1015,7
DA:1016,7
DA:1017,12
DA:1018,12
DA:1020,10
DA:1021,10
DA:1022,5
DA:1023,5
DA:1024,5
DA:1026,5
DA:1027,5
DA:1028,5
DA:1030,5
DA:1031,5
DA:1032,10
DA:1034,5
DA:1035,5
DA:1036,5
DA:1037,0
DA:1039,5
DA:1041,5
DA:1042,5
DA:1043,5
DA:1044,5
DA:1056,1
DA:1057,1
DA:1058,1
DA:1059,1
DA:1062,1
DA:1063,1
DA:1064,1
DA:1065,1
DA:1068,1
DA:1069,1
DA:1070,1
DA:1073,1
DA:1074,1
DA:1075,1
DA:1076,1
DA:1077,1
DA:1084,1
DA:1085,1
DA:1086,1
DA:1087,1
DA:1088,1
DA:1089,1
DA:1092,1
DA:1093,1
DA:1094,1
DA:1095,1
DA:1096,1
DA:1097,1
DA:1100,1
DA:1101,1
DA:1102,1
DA:1103,1
DA:1104,1
DA:1107,1
DA:1108,1
DA:1109,1
DA:1110,1
DA:1111,1
DA:1114,1
DA:1115,1
DA:1116,1
DA:1117,1
DA:1118,1
DA:1119,1
DA:1122,1
DA:1123,1
DA:1124,1
DA:1125,1
DA:1126,1
DA:1129,1
DA:1130,1
DA:1131,1
DA:1132,1
DA:1133,1
DA:1134,1
DA:1137,1
DA:1138,1
DA:1139,1
DA:1140,1
DA:1141,1
DA:1144,1
DA:1145,1
DA:1146,1
DA:1147,1
DA:1150,1
DA:1151,1
DA:1152,1
DA:1153,1
DA:1156,1
DA:1157,1
DA:1159,1
DA:1160,1
DA:1161,1
DA:1162,1
DA:1163,1
DA:1170,1
DA:1171,1
DA:1172,1
DA:1173,1
DA:1174,1
DA:1175,1
DA:1178,1
DA:1179,1
DA:1180,1
DA:1181,1
DA:1182,1
DA:1183,1
DA:1184,1
DA:1187,1
DA:1188,1
DA:1189,1
DA:1190,1
DA:1191,1
DA:1192,1
DA:1195,1
DA:1196,1
DA:1197,1
DA:1198,1
DA:1199,1
DA:1200,1
DA:1203,1
DA:1204,1
DA:1205,1
DA:1206,1
DA:1207,1
DA:1208,1
DA:1209,1
DA:1212,1
DA:1213,1
DA:1214,1
DA:1215,1
DA:1216,1
DA:1217,1
DA:1218,1
DA:1219,1
DA:1222,1
DA:1223,1
DA:1224,1
DA:1225,1
DA:1226,1
DA:1227,1
DA:1230,1
DA:1231,1
DA:1232,1
DA:1233,1
DA:1234,1
DA:1235,1
DA:1238,1
DA:1239,1
DA:1240,1
DA:1243,1
DA:1246,1
DA:1248,1
DA:1249,1
DA:1252,1
DA:1253,1
DA:1254,1
DA:1255,1
DA:1257,1
DA:1258,1
DA:1261,1
DA:1262,1
DA:1265,1
DA:1266,1
DA:1267,1
DA:1268,1
DA:1269,1
DA:1270,1
DA:1277,1
DA:1278,1
DA:1279,1
DA:1280,1
DA:1281,1
DA:1282,1
DA:1283,1
DA:1286,1
DA:1287,1
DA:1288,1
DA:1289,1
DA:1290,1
DA:1291,1
DA:1292,1
DA:1295,1
DA:1296,1
DA:1297,1
DA:1298,1
DA:1299,1
DA:1300,1
DA:1301,1
DA:1302,1
DA:1303,1
DA:1306,1
DA:1307,1
DA:1308,1
DA:1309,1
DA:1310,1
DA:1311,1
DA:1312,1
DA:1313,1
DA:1316,1
DA:1317,1
DA:1318,1
DA:1319,1
DA:1320,1
DA:1321,1
DA:1322,1
DA:1323,1
DA:1326,1
DA:1327,1
DA:1328,1
DA:1329,1
DA:1330,1
DA:1331,1
DA:1332,1
DA:1333,1
DA:1336,1
DA:1337,1
DA:1338,1
DA:1339,1
DA:1340,1
DA:1341,1
DA:1342,1
DA:1343,1
DA:1346,1
DA:1347,1
DA:1348,1
DA:1349,1
DA:1350,1
DA:1351,1
DA:1352,1
DA:1353,1
DA:1356,1
DA:1357,1
DA:1358,1
DA:1359,1
DA:1360,1
DA:1361,1
DA:1362,1
DA:1363,1
DA:1366,1
DA:1367,1
DA:1368,1
DA:1369,1
DA:1370,1
DA:1371,1
DA:1372,1
DA:1373,1
DA:1376,1
DA:1377,1
DA:1378,1
DA:1379,1
DA:1380,1
DA:1381,1
DA:1382,1
DA:1383,1
DA:1386,1
DA:1387,1
DA:1388,1
DA:1389,1
DA:1390,1
DA:1391,1
DA:1392,1
DA:1395,1
DA:1396,1
DA:1397,1
DA:1398,1
DA:1399,1
DA:1400,1
DA:1401,1
DA:1402,1
DA:1409,1
DA:1410,1
DA:1411,1
DA:1412,1
DA:1413,1
DA:1414,1
DA:1417,1
DA:1418,1
DA:1419,1
DA:1420,1
DA:1421,1
DA:1422,1
DA:1425,1
DA:1426,1
DA:1427,1
DA:1428,1
DA:1429,1
DA:1430,1
DA:1433,1
DA:1434,1
DA:1435,1
DA:1436,1
DA:1437,1
DA:1438,1
DA:1441,1
DA:1442,1
DA:1443,1
DA:1444,1
DA:1445,1
DA:1446,1
DA:1449,1
DA:1450,1
DA:1451,1
DA:1452,1
DA:1453,1
DA:1454,1
DA:1457,1
DA:1458,1
DA:1459,1
DA:1460,1
DA:1461,1
DA:1462,1
DA:1465,1
DA:1466,1
DA:1467,1
DA:1468,1
DA:1469,1
DA:1470,1
DA:1473,1
DA:1474,1
DA:1475,1
DA:1476,1
DA:1477,1
DA:1478,1
DA:1481,1
DA:1482,1
DA:1483,1
DA:1484,1
DA:1485,1
DA:1486,1
DA:1489,1
DA:1490,1
DA:1491,1
DA:1492,1
DA:1493,1
DA:1494,1
DA:1497,1
DA:1498,1
DA:1499,1
DA:1500,1
DA:1501,1
DA:1502,1
DA:1505,1
DA:1506,1
DA:1507,1
DA:1508,1
DA:1509,1
DA:1510,1
DA:1513,1
DA:1514,1
DA:1515,1
DA:1516,1
DA:1517,1
DA:1518,1
DA:1521,1
DA:1522,1
DA:1523,1
DA:1524,1
DA:1525,1
DA:1526,1
DA:1529,1
DA:1530,1
DA:1531,1
DA:1532,1
DA:1533,1
DA:1534,1
DA:1537,1
DA:1538,1
DA:1539,1
DA:1540,1
DA:1541,1
DA:1542,1
DA:1545,1
DA:1546,1
DA:1547,1
DA:1548,1
DA:1549,1
DA:1550,1
DA:1553,1
DA:1554,1
DA:1555,1
DA:1556,1
DA:1557,1
DA:1558,1
DA:1561,1
DA:1562,1
DA:1563,1
DA:1564,1
DA:1565,1
DA:1566,1
DA:1569,1
DA:1570,1
DA:1571,1
DA:1572,1
DA:1573,1
DA:1574,1
DA:1575,1
DA:1578,1
DA:1579,1
DA:1580,1
DA:1581,1
DA:1582,1
DA:1583,1
DA:1584,1
DA:1585,1
DA:1592,1
DA:1593,1
DA:1594,1
DA:1595,1
DA:1596,1
DA:1597,1
DA:1598,1
DA:1601,1
DA:1602,1
DA:1603,1
DA:1604,1
DA:1605,1
DA:1606,1
DA:1607,1
DA:1610,1
DA:1611,1
DA:1612,1
DA:1613,1
DA:1614,1
DA:1617,1
DA:1618,1
DA:1619,1
DA:1621,1
DA:1622,1
DA:1629,1
DA:1630,1
DA:1631,1
DA:1632,1
DA:1635,1
DA:1636,1
DA:1637,1
DA:1638,1
DA:1639,1
DA:1640,1
DA:1643,1
DA:1644,1
DA:1645,1
DA:1646,1
DA:1647,1
DA:1648,1
DA:1649,1
DA:1652,1
DA:1653,1
DA:1654,1
DA:1655,1
DA:1656,1
DA:1657,1
DA:1658,1
DA:1659,1
DA:1660,1
DA:1663,1
DA:1664,1
DA:1665,1
DA:1666,1
DA:1667,1
DA:1668,1
DA:1669,1
DA:1670,1
DA:1671,1
DA:1674,1
DA:1675,1
DA:1676,1
DA:1677,1
DA:1678,1
DA:1679,1
DA:1680,1
DA:1681,1
DA:1684,1
DA:1685,1
DA:1686,1
DA:1687,1
DA:1688,1
DA:1689,1
DA:1690,1
DA:1693,1
DA:1694,1
DA:1695,1
DA:1696,1
DA:1697,1
DA:1698,1
DA:1699,1
DA:1700,1
DA:1701,1
DA:1702,1
DA:1705,1
DA:1706,1
DA:1707,1
DA:1708,1
DA:1709,1
DA:1710,1
DA:1711,1
DA:1712,1
DA:1713,1
DA:1714,1
DA:1715,1
DA:1722,1
DA:1723,1
DA:1724,1
DA:1725,1
DA:1726,1
DA:1727,1
DA:1728,1
DA:1731,1
DA:1732,1
DA:1733,1
DA:1734,1
DA:1735,1
DA:1736,1
DA:1737,1
DA:1740,1
DA:1741,1
DA:1742,1
DA:1743,1
DA:1744,1
DA:1745,1
DA:1748,1
DA:1749,1
DA:1750,1
DA:1751,1
DA:1752,1
DA:1753,1
DA:1754,1
DA:1757,1
DA:1758,1
DA:1759,1
DA:1760,1
DA:1761,1
DA:1762,1
DA:1765,1
DA:1766,1
DA:1767,1
DA:1768,1
DA:1769,1
DA:1772,1
DA:1773,1
DA:1774,1
DA:1775,1
DA:1776,1
DA:1777,1
DA:1778,1
DA:1781,1
DA:1782,1
DA:1783,1
DA:1784,1
DA:1785,1
DA:1786,1
DA:1787,1
DA:1790,1
DA:1791,1
DA:1792,1
DA:1793,1
DA:1795,1
DA:1796,1
DA:1797,1
DA:1800,1
DA:1801,1
DA:1802,1
DA:1803,1
DA:1804,1
DA:1805,1
DA:1806,1
DA:1807,1
DA:1810,1
DA:1811,1
DA:1812,1
DA:1813,1
DA:1814,1
DA:1815,1
DA:1816,1
DA:1819,1
DA:1820,1
DA:1822,1
DA:1823,1
DA:1825,1
DA:1826,1
DA:1827,1
DA:1830,1
DA:1831,1
DA:1832,1
DA:1833,1
DA:1834,1
DA:1835,1
DA:1836,1
DA:1837,1
DA:1838,1
DA:1841,1
DA:1842,1
DA:1843,1
DA:1844,1
DA:1845,1
DA:1846,1
DA:1847,1
DA:1848,1
DA:1851,1
DA:1852,1
DA:1853,1
DA:1854,1
DA:1855,1
DA:1856,1
DA:1857,1
DA:1858,1
DA:1859,1
DA:1862,1
DA:1863,1
DA:1864,1
DA:1865,1
DA:1866,1
DA:1867,1
DA:1870,1
DA:1871,1
DA:1872,1
DA:1873,1
DA:1874,1
DA:1875,1
DA:1878,1
DA:1879,1
DA:1880,1
DA:1881,1
DA:1882,1
DA:1883,1
DA:1886,1
DA:1887,1
DA:1888,1
DA:1889,1
DA:1890,1
DA:1891,1
DA:1892,1
DA:1893,1
DA:1894,1
DA:1897,1
DA:1898,1
DA:1899,1
DA:1900,1
DA:1901,1
DA:1902,1
DA:1903,1
DA:1906,1
DA:1907,1
DA:1910,1
DA:1911,1
DA:1914,1
DA:1915,1
DA:1917,1
DA:1918,1
DA:1921,1
DA:1922,1
DA:1923,1
DA:1924,1
DA:1925,1
DA:1926,1
DA:1927,1
DA:1930,1
DA:1931,1
DA:1932,1
DA:1933,1
DA:1936,1
DA:1937,1
BRF:0
BRH:0
LF:1489
LH:1443
end_of_record
SF:/home/user/flexorama/src/gemini.rs
FN:240,_RNCNCNvMNtCsa6QFEuJDwzK_9flexorama6geminiNtB6_12GeminiClient13build_request00B8_
FN:267,_RNCNCNvMNtCsa6QFEuJDwzK_9flexorama6geminiNtB6_12GeminiClient13build_request0s0_0B8_
FN:269,_RNCNCNvMNtCsa6QFEuJDwzK_9flexorama6geminiNtB6_12GeminiClient13build_request0s1_0B8_
FN:270,_RNCNCNvMNtCsa6QFEuJDwzK_9flexorama6geminiNtB6_12GeminiClient13build_request0s2_0B8_
FN:284,_RNCNCNvMNtCsa6QFEuJDwzK_9flexorama6geminiNtB6_12GeminiClient13build_request0s3_0B8_
FN:262,_RNCNCNvMNtCsa6QFEuJDwzK_9flexorama6geminiNtB6_12GeminiClient13build_request0s_0B8_
FN:159,_RNCNCNvMNtCsa6QFEuJDwzK_9flexorama6geminiNtB6_12GeminiClient14create_message00B8_
FN:194,_RNCNCNvMNtCsa6QFEuJDwzK_9flexorama6geminiNtB6_12GeminiClient21create_message_stream00B8_
FN:371,_RNCNvMNtCsa6QFEuJDwzK_9flexorama6geminiNtB4_12GeminiClient12map_response0B6_
FN:222,_RNCNvMNtCsa6QFEuJDwzK_9flexorama6geminiNtB4_12GeminiClient13build_request0B6_
FN:310,_RNCNvMNtCsa6QFEuJDwzK_9flexorama6geminiNtB4_12GeminiClient13build_requests0_0B6_
FN:297,_RNCNvMNtCsa6QFEuJDwzK_9flexorama6geminiNtB4_12GeminiClient13build_requests_0B6_
FN:130,_RNCNvMNtCsa6QFEuJDwzK_9flexorama6geminiNtB4_12GeminiClient14create_message0B6_
FN:177,_RNCNvMNtCsa6QFEuJDwzK_9flexorama6geminiNtB4_12GeminiClient21create_message_stream0B6_
FN:331,_RNvMNtCsa6QFEuJDwzK_9flexorama6geminiNtB2_12GeminiClient12map_response
FN:211,_RNvMNtCsa6QFEuJDwzK_9flexorama6geminiNtB2_12GeminiClient13build_request
FN:121,_RNvMNtCsa6QFEuJDwzK_9flexorama6geminiNtB2_12GeminiClient14create_message
FN:167,_RNvMNtCsa6QFEuJDwzK_9flexorama6geminiNtB2_12GeminiClient21create_message_stream
FN:113,_RNvMNtCsa6QFEuJDwzK_9flexorama6geminiNtB2_12GeminiClient3new
FN:385,_RNvNtCsa6QFEuJDwzK_9flexorama6gemini14normalize_args
FNDA:0,_RNCNCNvMNtCsa6QFEuJDwzK_9flexorama6geminiNtB6_12GeminiClient13build_request00B8_
FNDA:0,_RNCNCNvMNtCsa6QFEuJDwzK_9flexorama6geminiNtB6_12GeminiClient13build_request0s0_0B8_
FNDA:0,_RNCNCNvMNtCsa6QFEuJDwzK_9flexorama6geminiNtB6_12GeminiClient13build_request0s1_0B8_
FNDA:0,_RNCNCNvMNtCsa6QFEuJDwzK_9flexorama6geminiNtB6_12GeminiClient13build_request0s2_0B8_
FNDA:2,_RNCNCNvMNtCsa6QFEuJDwzK_9flexorama6geminiNtB6_12GeminiClient13build_request0s3_0B8_
FNDA:0,_RNCNCNvMNtCsa6QFEuJDwzK_9flexorama6geminiNtB6_12GeminiClient13build_request0s_0B8_
FNDA:0,_RNCNCNvMNtCsa6QFEuJDwzK_9flexorama6geminiNtB6_12GeminiClient14create_message00B8_
FNDA:1,_RNCNCNvMNtCsa6QFEuJDwzK_9flexorama6geminiNtB6_12GeminiClient21create_message_stream00B8_
FNDA:0,_RNCNvMNtCsa6QFEuJDwzK_9flexorama6geminiNtB4_12GeminiClient12map_response0B6_
FNDA:2,_RNCNvMNtCsa6QFEuJDwzK_9flexorama6geminiNtB4_12GeminiClient13build_request0B6_
FNDA:0,_RNCNvMNtCsa6QFEuJDwzK_9flexorama6geminiNtB4_12GeminiClient13build_requests0_0B6_
FNDA:0,_RNCNvMNtCsa6QFEuJDwzK_9flexorama6geminiNtB4_12GeminiClient13build_requests_0B6_
FNDA:2,_RNCNvMNtCsa6QFEuJDwzK_9flexorama6geminiNtB4_12GeminiClient14create_message0B6_
FNDA:1,_RNCNvMNtCsa6QFEuJDwzK_9flexorama6geminiNtB4_12GeminiClient21create_message_stream0B6_
FNDA:2,_RNvMNtCsa6QFEuJDwzK_9flexorama6geminiNtB2_12GeminiClient12map_response
FNDA:2,_RNvMNtCsa6QFEuJDwzK_9flexorama6geminiNtB2_12GeminiClient13build_request
FNDA:2,_RNvMNtCsa6QFEuJDwzK_9flexorama6geminiNtB2_12GeminiClient14create_message
FNDA:1,_RNvMNtCsa6QFEuJDwzK_9flexorama6geminiNtB2_12GeminiClient21create_message_stream
FNDA:2,_RNvMNtCsa6QFEuJDwzK_9flexorama6geminiNtB2_12GeminiClient3new
FNDA:0,_RNvNtCsa6QFEuJDwzK_9flexorama6gemini14normalize_args
FNF:20
FNH:10
DA:113,2
DA:114,2
DA:115,2
DA:116,2
DA:117,2
DA:118,2
DA:119,2
DA:121,2
DA:122,2
DA:123,2
DA:124,2
DA:125,2
DA:126,2
DA:127,2
DA:128,2
DA:129,2
DA:130,2
DA:131,2
DA:132,0
DA:133,2
DA:135,2
DA:137,2
DA:138,2
DA:142,2
DA:143,2
DA:145,2
DA:146,2
DA:148,2
DA:149,0
DA:150,0
DA:151,0
DA:152,0
DA:153,0
DA:154,0
DA:155,0
DA:156,2
DA:158,2
DA:159,2
DA:160,0
DA:161,0
DA:162,0
DA:164,2
DA:165,2
DA:167,1
DA:168,1
DA:169,1
DA:170,1
DA:171,1
DA:172,1
DA:173,1
DA:174,1
DA:175,1
DA:176,1
DA:177,1
DA:179,1
DA:180,1
DA:181,1
DA:182,1
DA:183,1
DA:184,1
DA:185,1
DA:186,1
DA:187,1
DA:188,1
DA:189,1
DA:191,1
DA:192,1
DA:193,1
DA:194,1
DA:195,1
DA:196,1
DA:198,0
DA:200,1
DA:201,1
DA:202,1
DA:204,1
DA:205,1
DA:206,1
DA:208,1
DA:209,1
DA:211,2
DA:212,2
DA:213,2
DA:214,2
DA:215,2
DA:216,2
DA:217,2
DA:218,2
DA:219,2
DA:220,2
DA:221,2
DA:222,2
DA:223,2
DA:224,4
DA:225,2
DA:226,2
DA:227,2
DA:228,2
DA:229,2
DA:230,2
DA:231,2
DA:232,2
DA:233,2
DA:235,0
DA:236,0
DA:237,0
DA:238,0
DA:239,0
DA:240,0
DA:241,0
DA:242,0
DA:243,0
DA:244,0
DA:245,0
DA:246,0
DA:247,0
DA:248,0
DA:249,0
DA:250,0
DA:251,0
DA:252,0
DA:253,0
DA:258,0
DA:259,0
DA:260,0
DA:261,0
DA:262,0
DA:263,0
DA:264,0
DA:265,0
DA:266,0
DA:267,0
DA:268,0
DA:269,0
DA:270,0
DA:271,0
DA:272,0
DA:273,0
DA:274,0
DA:275,0
DA:276,0
DA:277,0
DA:278,0
DA:280,0
DA:284,2
DA:285,0
DA:286,2
DA:287,0
DA:289,2
DA:292,2
DA:293,2
DA:294,2
DA:296,2
DA:297,0
DA:298,0
DA:299,0
DA:300,0
DA:301,0
DA:302,0
DA:304,2
DA:305,2
DA:307,0
DA:308,0
DA:309,0
DA:310,0
DA:311,0
DA:312,0
DA:313,0
DA:314,0
DA:315,0
DA:316,0
DA:317,0
DA:320,2
DA:321,2
DA:322,2
DA:323,2
DA:324,2
DA:325,2
DA:326,2
DA:327,2
DA:328,2
DA:329,2
DA:331,2
DA:332,2
DA:334,2
DA:335,2
DA:336,2
DA:337,4
DA:338,2
DA:339,2
DA:340,2
DA:341,2
DA:342,0
DA:343,0
DA:344,0
DA:345,0
DA:346,0
DA:347,0
DA:348,0
DA:349,0
DA:350,0
DA:351,0
DA:352,0
DA:353,0
DA:354,0
DA:355,2
DA:356,2
DA:357,0
DA:358,0
DA:359,0
DA:360,0
DA:361,0
DA:362,0
DA:363,0
DA:364,2
DA:366,0
DA:367,0
DA:368,0
DA:370,2
DA:371,0
DA:372,0
DA:373,0
DA:374,0
DA:375,0
DA:376,0
DA:378,2
DA:379,2
DA:380,2
DA:381,2
DA:382,2
DA:385,0
DA:386,0
DA:387,0
DA:388,0
DA:389,0
DA:390,0
DA:391,0
DA:393,0
DA:395,0
BRF:0
BRH:0
LF:251
LH:134
end_of_record
SF:/home/user/flexorama/src/help.rs
FN:285,_RNvNtCsa6QFEuJDwzK_9flexorama4help20display_yolo_warning
FN:343,_RNvNtCsa6QFEuJDwzK_9flexorama4help24display_mcp_yolo_warning
FN:173,_RNvNtCsa6QFEuJDwzK_9flexorama4help10print_help
FN:30,_RNvNtCsa6QFEuJDwzK_9flexorama4help14print_mcp_help
FN:5,_RNvNtCsa6QFEuJDwzK_9flexorama4help16print_agent_help
FN:105,_RNvNtCsa6QFEuJDwzK_9flexorama4help16print_skill_help
FN:126,_RNvNtCsa6QFEuJDwzK_9flexorama4help22print_permissions_help
FN:58,_RNvNtCsa6QFEuJDwzK_9flexorama4help27print_file_permissions_help
FNDA:0,_RNvNtCsa6QFEuJDwzK_9flexorama4help20display_yolo_warning
FNDA:0,_RNvNtCsa6QFEuJDwzK_9flexorama4help24display_mcp_yolo_warning
FNDA:1,_RNvNtCsa6QFEuJDwzK_9flexorama4help10print_help
FNDA:1,_RNvNtCsa6QFEuJDwzK_9flexorama4help14print_mcp_help
FNDA:1,_RNvNtCsa6QFEuJDwzK_9flexorama4help16print_agent_help
FNDA:2,_RNvNtCsa6QFEuJDwzK_9flexorama4help16print_skill_help
FNDA:0,_RNvNtCsa6QFEuJDwzK_9flexorama4help22print_permissions_help
FNDA:0,_RNvNtCsa6QFEuJDwzK_9flexorama4help27print_file_permissions_help
FNF:8
FNH:4
DA:5,1
DA:6,1
DA:7,1
DA:8,1
DA:9,1
DA:10,1
DA:11,1
DA:12,1
DA:13,1
DA:14,1
DA:15,1
DA:16,1
DA:17,1
DA:18,1
DA:19,1
DA:20,1
DA:21,1
DA:22,1
DA:23,1
DA:24,1
DA:25,1
DA:26,1
DA:27,1
DA:30,1
DA:31,1
DA:32,1
DA:33,1
DA:34,1
DA:35,1
DA:36,1
DA:37,1
DA:38,1
DA:39,1
DA:40,1
DA:41,1
DA:42,1
DA:43,1
DA:44,1
DA:45,1
DA:46,1
DA:47,1
DA:48,1
DA:49,1
DA:50,1
DA:51,1
DA:52,1
DA:53,1
DA:54,1
DA:55,1
DA:58,0
DA:59,0
DA:60,0
DA:61,0
DA:62,0
DA:63,0
DA:65,0
DA:66,0
DA:67,0
DA:68,0
DA:69,0
DA:70,0
DA:71,0
DA:72,0
DA:73,0
DA:74,0
DA:75,0
DA:76,0
DA:77,0
DA:78,0
DA:79,0
DA:80,0
DA:81,0
DA:82,0
DA:83,0
DA:84,0
DA:85,0
DA:86,0
DA:87,0
DA:88,0
DA:89,0
DA:90,0
DA:91,0
DA:93,0
DA:94,0
DA:95,0
DA:96,0
DA:97,0
DA:98,0
DA:99,0
DA:100,0
DA:101,0
DA:102,0
DA:105,2
DA:106,2
DA:107,2
DA:108,2
DA:109,2
DA:110,2
DA:111,2
DA:112,2
DA:113,2
DA:114,2
DA:115,2
DA:116,2
DA:117,2
DA:118,2
DA:119,2
DA:120,2
DA:121,2
DA:122,2
DA:123,2
DA:126,0
DA:127,0
DA:128,0
DA:129,0
DA:130,0
DA:131,0
DA:132,0
DA:133,0
DA:134,0
DA:135,0
DA:136,0
DA:137,0
DA:138,0
DA:139,0
DA:140,0
DA:141,0
DA:142,0
DA:143,0
DA:144,0
DA:145,0
DA:146,0
DA:147,0
DA:148,0
DA:149,0
DA:150,0
DA:151,0
DA:152,0
DA:153,0
DA:154,0
DA:155,0
DA:156,0
DA:157,0
DA:158,0
DA:159,0
DA:160,0
DA:161,0
DA:162,0
DA:163,0
DA:164,0
DA:165,0
DA:166,0
DA:167,0
DA:168,0
DA:169,0
DA:170,0
DA:173,1
DA:174,1
DA:175,1
DA:176,1
DA:177,1
DA:178,1
DA:179,1
DA:180,1
DA:181,1
DA:182,1
DA:183,1
DA:184,1
DA:185,1
DA:186,1
DA:187,1
DA:188,1
DA:189,1
DA:190,1
DA:191,1
DA:192,1
DA:193,1
DA:194,1
DA:195,1
DA:196,1
DA:197,1
DA:198,1
DA:199,1
DA:200,1
DA:201,1
DA:202,1
DA:203,1
DA:204,1
DA:205,1
DA:206,1
DA:207,1
DA:208,1
DA:209,1
DA:210,1
DA:211,1
DA:212,1
DA:213,1
DA:214,1
DA:215,1
DA:216,1
DA:217,1
DA:218,1
DA:219,1
DA:220,1
DA:221,1
DA:222,1
DA:223,1
DA:224,1
DA:225,1
DA:226,1
DA:227,1
DA:228,1
DA:229,1
DA:230,1
DA:231,1
DA:232,1
DA:233,1
DA:234,1
DA:235,1
DA:236,1
DA:237,1
DA:238,1
DA:239,1
DA:240,1
DA:241,1
DA:242,1
DA:243,1
DA:244,1
DA:245,1
DA:246,1
DA:247,1
DA:248,1
DA:249,1
DA:250,1
DA:251,1
DA:252,1
DA:253,1
DA:254,1
DA:255,1
DA:256,1
DA:257,1
DA:258,1
DA:259,1
DA:260,1
DA:261,1
DA:262,1
DA:263,1
DA:264,1
DA:265,1
DA:266,1
DA:267,1
DA:268,1
DA:269,1
DA:270,1
DA:271,1
DA:272,1
DA:273,1
DA:274,1
DA:275,1
DA:276,1
DA:277,1
DA:278,1
DA:279,1
DA:281,1
DA:282,1
DA:285,0
DA:286,0
DA:287,0
DA:288,0
DA:289,0
DA:291,0
DA:292,0
DA:293,0
DA:294,0
DA:295,0
DA:297,0
DA:298,0
DA:299,0
DA:300,0
DA:302,0
DA:303,0
DA:304,0
DA:306,0
DA:307,0
DA:308,0
DA:310,0
DA:311,0
DA:312,0
DA:314,0
DA:315,0
DA:316,0
DA:317,0
DA:318,0
DA:319,0
DA:320,0
DA:322,0
DA:323,0
DA:324,0
DA:325,0
DA:326,0
DA:327,0
DA:329,0
DA:332,0
DA:333,0
DA:334,0
DA:335,0
DA:336,0
DA:337,0
DA:339,0
DA:340,0
DA:343,0
DA:344,0
DA:345,0
DA:346,0
DA:347,0
DA:348,0
DA:349,0
DA:351,0
DA:352,0
DA:353,0
DA:354,0
DA:355,0
DA:356,0
DA:358,0
DA:359,0
DA:360,0
DA:361,0
DA:363,0
DA:364,0
DA:365,0
DA:367,0
DA:368,0
DA:369,0
DA:371,0
DA:372,0
DA:373,0
DA:375,0
DA:376,0
DA:377,0
DA:378,0
DA:379,0
DA:380,0
DA:382,0
DA:383,0
DA:384,0
DA:385,0
DA:386,0
DA:387,0
DA:389,0
DA:390,0
BRF:0
BRH:0
LF:350
LH:177
end_of_record
SF:/home/user/flexorama/src/input.rs
FN:14,_RNvMNtCsa6QFEuJDwzK_9flexorama5inputNtB2_18ReverseSearchState3new
FN:23,_RNvMNtCsa6QFEuJDwzK_9flexorama5inputNtB2_18ReverseSearchState5reset
FN:109,_RNvMs_NtCsa6QFEuJDwzK_9flexorama5inputNtB4_12InputHistory11navigate_up
FN:134,_RNvMs_NtCsa6QFEuJDwzK_9flexorama5inputNtB4_12InputHistory13navigate_down
FN:151,_RNvMs_NtCsa6QFEuJDwzK_9flexorama5inputNtB4_12InputHistory16reset_navigation
FN:195,_RNvMs_NtCsa6QFEuJDwzK_9flexorama5inputNtB4_12InputHistory19reverse_search_next
FN:206,_RNvMs_NtCsa6QFEuJDwzK_9flexorama5inputNtB4_12InputHistory19reverse_search_prev
FN:158,_RNvMs_NtCsa6QFEuJDwzK_9flexorama5inputNtB4_12InputHistory20start_reverse_search
FN:234,_RNvMs_NtCsa6QFEuJDwzK_9flexorama5inputNtB4_12InputHistory21cancel_reverse_search
FN:226,_RNvMs_NtCsa6QFEuJDwzK_9flexorama5inputNtB4_12InputHistory21finish_reverse_search
FN:166,_RNvMs_NtCsa6QFEuJDwzK_9flexorama5inputNtB4_12InputHistory21update_reverse_search
FN:221,_RNvMs_NtCsa6QFEuJDwzK_9flexorama5inputNtB4_12InputHistory24get_reverse_search_state
FN:80,_RNvMs_NtCsa6QFEuJDwzK_9flexorama5inputNtB4_12InputHistory3new
FN:89,_RNvMs_NtCsa6QFEuJDwzK_9flexorama5inputNtB4_12InputHistory9add_entry
FN:40,_RNvNtNtCsa6QFEuJDwzK_9flexorama5input5testss_18test_input_history
FN:182,_RNCNvMs_NtCsa6QFEuJDwzK_9flexorama5inputNtB6_12InputHistory21update_reverse_search0B8_
FNDA:1,_RNvMNtCsa6QFEuJDwzK_9flexorama5inputNtB2_18ReverseSearchState3new
FNDA:3,_RNvMNtCsa6QFEuJDwzK_9flexorama5inputNtB2_18ReverseSearchState5reset
FNDA:1,_RNvMs_NtCsa6QFEuJDwzK_9flexorama5inputNtB4_12InputHistory11navigate_up
FNDA:1,_RNvMs_NtCsa6QFEuJDwzK_9flexorama5inputNtB4_12InputHistory13navigate_down
FNDA:0,_RNvMs_NtCsa6QFEuJDwzK_9flexorama5inputNtB4_12InputHistory16reset_navigation
FNDA:0,_RNvMs_NtCsa6QFEuJDwzK_9flexorama5inputNtB4_12InputHistory19reverse_search_next
FNDA:0,_RNvMs_NtCsa6QFEuJDwzK_9flexorama5inputNtB4_12InputHistory19reverse_search_prev
FNDA:0,_RNvMs_NtCsa6QFEuJDwzK_9flexorama5inputNtB4_12InputHistory20start_reverse_search
FNDA:0,_RNvMs_NtCsa6QFEuJDwzK_9flexorama5inputNtB4_12InputHistory21cancel_reverse_search
FNDA:0,_RNvMs_NtCsa6QFEuJDwzK_9flexorama5inputNtB4_12InputHistory21finish_reverse_search
FNDA:0,_RNvMs_NtCsa6QFEuJDwzK_9flexorama5inputNtB4_12InputHistory21update_reverse_search
FNDA:0,_RNvMs_NtCsa6QFEuJDwzK_9flexorama5inputNtB4_12InputHistory24get_reverse_search_state
FNDA:1,_RNvMs_NtCsa6QFEuJDwzK_9flexorama5inputNtB4_12InputHistory3new
FNDA:4,_RNvMs_NtCsa6QFEuJDwzK_9flexorama5inputNtB4_12InputHistory9add_entry
FNDA:1,_RNvNtNtCsa6QFEuJDwzK_9flexorama5input5testss_18test_input_history
FNDA:0,_RNCNvMs_NtCsa6QFEuJDwzK_9flexorama5inputNtB6_12InputHistory21update_reverse_search0B8_
FNF:16
FNH:7
DA:14,1
DA:15,1
DA:16,1
DA:17,1
DA:18,1
DA:19,1
DA:20,1
DA:21,1
DA:23,3
DA:24,3
DA:25,3
DA:26,3
DA:27,3
DA:28,3
DA:40,1
DA:41,1
DA:44,1
DA:45,1
DA:47,1
DA:48,1
DA:49,1
DA:52,1
DA:53,1
DA:54,1
DA:55,1
DA:57,1
DA:58,1
DA:59,1
DA:62,1
DA:63,1
DA:66,1
DA:67,1
DA:68,1
DA:80,1
DA:81,1
DA:82,1
DA:83,1
DA:84,1
DA:85,1
DA:86,1
DA:87,1
DA:89,4
DA:91,4
DA:92,1
DA:93,3
DA:95,3
DA:96,2
DA:98,2
DA:99,0
DA:100,2
DA:101,1
DA:104,3
DA:105,3
DA:106,3
DA:107,4
DA:109,1
DA:110,1
DA:111,0
DA:112,1
DA:114,1
DA:117,1
DA:118,1
DA:119,1
DA:121,0
DA:122,0
DA:124,0
DA:125,0
DA:128,0
DA:132,1
DA:134,1
DA:135,1
DA:136,0
DA:137,1
DA:138,1
DA:140,0
DA:141,0
DA:144,1
DA:145,1
DA:149,1
DA:151,0
DA:152,0
DA:153,0
DA:154,0
DA:155,0
DA:158,0
DA:159,0
DA:160,0
DA:161,0
DA:162,0
DA:163,0
DA:166,0
DA:167,0
DA:169,0
DA:170,0
DA:171,0
DA:172,0
DA:173,0
DA:174,0
DA:177,0
DA:178,0
DA:179,0
DA:180,0
DA:181,0
DA:182,0
DA:183,0
DA:184,0
DA:186,0
DA:187,0
DA:188,0
DA:189,0
DA:190,0
DA:191,0
DA:192,0
DA:195,0
DA:196,0
DA:197,0
DA:198,0
DA:199,0
DA:200,0
DA:201,0
DA:202,0
DA:203,0
DA:206,0
DA:207,0
DA:209,0
DA:210,0
DA:212,0
DA:214,0
DA:215,0
DA:216,0
DA:217,0
DA:218,0
DA:221,0
DA:222,0
DA:223,0
DA:226,0
DA:227,0
DA:228,0
DA:229,0
DA:230,0
DA:231,0
DA:234,0
DA:235,0
DA:236,0
DA:237,0
DA:238,0
BRF:0
BRH:0
LF:147
LH:69
end_of_record
SF:/home/user/flexorama/src/interactive.rs
FN:20,_RNvNtCsa6QFEuJDwzK_9flexorama11interactive19run_tui_interactive
FN:248,_RNvNtCsa6QFEuJDwzK_9flexorama11interactive17add_context_files
FN:526,_RNCNvNtNtCsa6QFEuJDwzK_9flexorama11interactive5testss_33test_add_context_files_empty_file0B7_
FN:310,_RNCNvNtNtCsa6QFEuJDwzK_9flexorama11interactive5testss_33test_add_context_files_empty_list0B7_
FN:635,_RNCNvNtNtCsa6QFEuJDwzK_9flexorama11interactive5testss_34test_add_context_files_binary_file0B7_
FN:479,_RNCNvNtNtCsa6QFEuJDwzK_9flexorama11interactive5testss_35test_add_context_files_large_number0B7_
FN:504,_RNCNvNtNtCsa6QFEuJDwzK_9flexorama11interactive5testss_35test_add_context_files_with_content0B7_
FN:568,_RNCNvNtNtCsa6QFEuJDwzK_9flexorama11interactive5testss_37test_add_context_files_absolute_paths0B7_
FN:366,_RNCNvNtNtCsa6QFEuJDwzK_9flexorama11interactive5testss_37test_add_context_files_multiple_files0B7_
FN:547,_RNCNvNtNtCsa6QFEuJDwzK_9flexorama11interactive5testss_37test_add_context_files_relative_paths0B7_
FN:694,_RNCNvNtNtCsa6QFEuJDwzK_9flexorama11interactive5testss_37test_add_context_files_very_long_path0B7_
FN:589,_RNCNvNtNtCsa6QFEuJDwzK_9flexorama11interactive5testss_38test_add_context_files_duplicate_paths0B7_
FN:672,_RNCNvNtNtCsa6QFEuJDwzK_9flexorama11interactive5testss_38test_add_context_files_unicode_content0B7_
FN:343,_RNCNvNtNtCsa6QFEuJDwzK_9flexorama11interactive5testss_41test_add_context_files_with_existing_file0B7_
FN:612,_RNCNvNtNtCsa6QFEuJDwzK_9flexorama11interactive5testss_42test_add_context_files_with_subdirectories0B7_
FN:401,_RNCNvNtNtCsa6QFEuJDwzK_9flexorama11interactive5testss_42test_add_context_files_with_temp_directory0B7_
FN:326,_RNCNvNtNtCsa6QFEuJDwzK_9flexorama11interactive5testss_44test_add_context_files_with_nonexistent_file0B7_
FN:458,_RNCNvNtNtCsa6QFEuJDwzK_9flexorama11interactive5testss_46test_add_context_files_with_special_characters0B7_
FN:432,_RNCNvNtNtCsa6QFEuJDwzK_9flexorama11interactive5testss_49test_add_context_files_mixed_existing_nonexisting0B7_
FN:39,_RNCNCNCNCNvNtCsa6QFEuJDwzK_9flexorama11interactive19run_tui_interactive0000Bb_
FN:38,_RNCNCNCNvNtCsa6QFEuJDwzK_9flexorama11interactive19run_tui_interactive000B9_
FN:79,_RNCNCNCNvNtCsa6QFEuJDwzK_9flexorama11interactive19run_tui_interactive0s_00B9_
FN:35,_RNCNCNvNtCsa6QFEuJDwzK_9flexorama11interactive19run_tui_interactive00B7_
FN:97,_RNCNCNvNtCsa6QFEuJDwzK_9flexorama11interactive19run_tui_interactive0s0_0B7_
FN:138,_RNCNCNvNtCsa6QFEuJDwzK_9flexorama11interactive19run_tui_interactive0s1_0B7_
FN:67,_RNCNCNvNtCsa6QFEuJDwzK_9flexorama11interactive19run_tui_interactive0s_0B7_
FN:248,_RNCNvNtCsa6QFEuJDwzK_9flexorama11interactive17add_context_files0B5_
FN:27,_RNCNvNtCsa6QFEuJDwzK_9flexorama11interactive19run_tui_interactive0B5_
FN:526,_RNvNtNtCsa6QFEuJDwzK_9flexorama11interactive5testss_33test_add_context_files_empty_file
FN:310,_RNvNtNtCsa6QFEuJDwzK_9flexorama11interactive5testss_33test_add_context_files_empty_list
FN:635,_RNvNtNtCsa6QFEuJDwzK_9flexorama11interactive5testss_34test_add_context_files_binary_file
FN:479,_RNvNtNtCsa6QFEuJDwzK_9flexorama11interactive5testss_35test_add_context_files_large_number
FN:504,_RNvNtNtCsa6QFEuJDwzK_9flexorama11interactive5testss_35test_add_context_files_with_content
FN:568,_RNvNtNtCsa6QFEuJDwzK_9flexorama11interactive5testss_37test_add_context_files_absolute_paths
FN:366,_RNvNtNtCsa6QFEuJDwzK_9flexorama11interactive5testss_37test_add_context_files_multiple_files
FN:547,_RNvNtNtCsa6QFEuJDwzK_9flexorama11interactive5testss_37test_add_context_files_relative_paths
FN:694,_RNvNtNtCsa6QFEuJDwzK_9flexorama11interactive5testss_37test_add_context_files_very_long_path
FN:589,_RNvNtNtCsa6QFEuJDwzK_9flexorama11interactive5testss_38test_add_context_files_duplicate_paths
FN:672,_RNvNtNtCsa6QFEuJDwzK_9flexorama11interactive5testss_38test_add_context_files_unicode_content
FN:659,_RNvNtNtCsa6QFEuJDwzK_9flexorama11interactive5testss_40test_get_home_agents_md_path_consistency
FN:666,_RNvNtNtCsa6QFEuJDwzK_9flexorama11interactive5testss_40test_get_home_agents_md_path_is_absolute
FN:343,_RNvNtNtCsa6QFEuJDwzK_9flexorama11interactive5testss_41test_add_context_files_with_existing_file
FN:612,_RNvNtNtCsa6QFEuJDwzK_9flexorama11interactive5testss_42test_add_context_files_with_subdirectories
FN:401,_RNvNtNtCsa6QFEuJDwzK_9flexorama11interactive5testss_42test_add_context_files_with_temp_directory
FN:326,_RNvNtNtCsa6QFEuJDwzK_9flexorama11interactive5testss_44test_add_context_files_with_nonexistent_file
FN:394,_RNvNtNtCsa6QFEuJDwzK_9flexorama11interactive5testss_45test_get_home_agents_md_path_from_interactive
FN:458,_RNvNtNtCsa6QFEuJDwzK_9flexorama11interactive5testss_46test_add_context_files_with_special_characters
FN:432,_RNvNtNtCsa6QFEuJDwzK_9flexorama11interactive5testss_49test_add_context_files_mixed_existing_nonexisting
FNDA:0,_RNvNtCsa6QFEuJDwzK_9flexorama11interactive19run_tui_interactive
FNDA:17,_RNvNtCsa6QFEuJDwzK_9flexorama11interactive17add_context_files
FNDA:1,_RNCNvNtNtCsa6QFEuJDwzK_9flexorama11interactive5testss_33test_add_context_files_empty_file0B7_
FNDA:1,_RNCNvNtNtCsa6QFEuJDwzK_9flexorama11interactive5testss_33test_add_context_files_empty_list0B7_
FNDA:1,_RNCNvNtNtCsa6QFEuJDwzK_9flexorama11interactive5testss_34test_add_context_files_binary_file0B7_
FNDA:1,_RNCNvNtNtCsa6QFEuJDwzK_9flexorama11interactive5testss_35test_add_context_files_large_number0B7_
FNDA:1,_RNCNvNtNtCsa6QFEuJDwzK_9flexorama11interactive5testss_35test_add_context_files_with_content0B7_
FNDA:1,_RNCNvNtNtCsa6QFEuJDwzK_9flexorama11interactive5testss_37test_add_context_files_absolute_paths0B7_
FNDA:1,_RNCNvNtNtCsa6QFEuJDwzK_9flexorama11interactive5testss_37test_add_context_files_multiple_files0B7_
FNDA:1,_RNCNvNtNtCsa6QFEuJDwzK_9flexorama11interactive5testss_37test_add_context_files_relative_paths0B7_
FNDA:1,_RNCNvNtNtCsa6QFEuJDwzK_9flexorama11interactive5testss_37test_add_context_files_very_long_path0B7_
FNDA:1,_RNCNvNtNtCsa6QFEuJDwzK_9flexorama11interactive5testss_38test_add_context_files_duplicate_paths0B7_
FNDA:1,_RNCNvNtNtCsa6QFEuJDwzK_9flexorama11interactive5testss_38test_add_context_files_unicode_content0B7_
FNDA:1,_RNCNvNtNtCsa6QFEuJDwzK_9flexorama11interactive5testss_41test_add_context_files_with_existing_file0B7_
FNDA:1,_RNCNvNtNtCsa6QFEuJDwzK_9flexorama11interactive5testss_42test_add_context_files_with_subdirectories0B7_
FNDA:1,_RNCNvNtNtCsa6QFEuJDwzK_9flexorama11interactive5testss_42test_add_context_files_with_temp_directory0B7_
FNDA:1,_RNCNvNtNtCsa6QFEuJDwzK_9flexorama11interactive5testss_44test_add_context_files_with_nonexistent_file0B7_
FNDA:1,_RNCNvNtNtCsa6QFEuJDwzK_9flexorama11interactive5testss_46test_add_context_files_with_special_characters0B7_
FNDA:1,_RNCNvNtNtCsa6QFEuJDwzK_9flexorama11interactive5testss_49test_add_context_files_mixed_existing_nonexisting0B7_
FNDA:0,_RNCNCNCNCNvNtCsa6QFEuJDwzK_9flexorama11interactive19run_tui_interactive0000Bb_
FNDA:0,_RNCNCNCNvNtCsa6QFEuJDwzK_9flexorama11interactive19run_tui_interactive000B9_
FNDA:0,_RNCNCNCNvNtCsa6QFEuJDwzK_9flexorama11interactive19run_tui_interactive0s_00B9_
FNDA:0,_RNCNCNvNtCsa6QFEuJDwzK_9flexorama11interactive19run_tui_interactive00B7_
FNDA:0,_RNCNCNvNtCsa6QFEuJDwzK_9flexorama11interactive19run_tui_interactive0s0_0B7_
FNDA:0,_RNCNCNvNtCsa6QFEuJDwzK_9flexorama11interactive19run_tui_interactive0s1_0B7_
FNDA:0,_RNCNCNvNtCsa6QFEuJDwzK_9flexorama11interactive19run_tui_interactive0s_0B7_
FNDA:17,_RNCNvNtCsa6QFEuJDwzK_9flexorama11interactive17add_context_files0B5_
FNDA:0,_RNCNvNtCsa6QFEuJDwzK_9flexorama11interactive19run_tui_interactive0B5_
FNDA:1,_RNvNtNtCsa6QFEuJDwzK_9flexorama11interactive5testss_33test_add_context_files_empty_file
FNDA:1,_RNvNtNtCsa6QFEuJDwzK_9flexorama11interactive5testss_33test_add_context_files_empty_list
FNDA:1,_RNvNtNtCsa6QFEuJDwzK_9flexorama11interactive5testss_34test_add_context_files_binary_file
FNDA:1,_RNvNtNtCsa6QFEuJDwzK_9flexorama11interactive5testss_35test_add_context_files_large_number
FNDA:1,_RNvNtNtCsa6QFEuJDwzK_9flexorama11interactive5testss_35test_add_context_files_with_content
FNDA:1,_RNvNtNtCsa6QFEuJDwzK_9flexorama11interactive5testss_37test_add_context_files_absolute_paths
FNDA:1,_RNvNtNtCsa6QFEuJDwzK_9flexorama11interactive5testss_37test_add_context_files_multiple_files
FNDA:1,_RNvNtNtCsa6QFEuJDwzK_9flexorama11interactive5testss_37test_add_context_files_relative_paths
FNDA:1,_RNvNtNtCsa6QFEuJDwzK_9flexorama11interactive5testss_37test_add_context_files_very_long_path
FNDA:1,_RNvNtNtCsa6QFEuJDwzK_9flexorama11interactive5testss_38test_add_context_files_duplicate_paths
FNDA:1,_RNvNtNtCsa6QFEuJDwzK_9flexorama11interactive5testss_38test_add_context_files_unicode_content
FNDA:1,_RNvNtNtCsa6QFEuJDwzK_9flexorama11interactive5testss_40test_get_home_agents_md_path_consistency
FNDA:1,_RNvNtNtCsa6QFEuJDwzK_9flexorama11interactive5testss_40test_get_home_agents_md_path_is_absolute
FNDA:1,_RNvNtNtCsa6QFEuJDwzK_9flexorama11interactive5testss_41test_add_context_files_with_existing_file
FNDA:1,_RNvNtNtCsa6QFEuJDwzK_9flexorama11interactive5testss_42test_add_context_files_with_subdirectories
FNDA:1,_RNvNtNtCsa6QFEuJDwzK_9flexorama11interactive5testss_42test_add_context_files_with_temp_directory
FNDA:1,_RNvNtNtCsa6QFEuJDwzK_9flexorama11interactive5testss_44test_add_context_files_with_nonexistent_file
FNDA:1,_RNvNtNtCsa6QFEuJDwzK_9flexorama11interactive5testss_45test_get_home_agents_md_path_from_interactive
FNDA:1,_RNvNtNtCsa6QFEuJDwzK_9flexorama11interactive5testss_46test_add_context_files_with_special_characters
FNDA:1,_RNvNtNtCsa6QFEuJDwzK_9flexorama11interactive5testss_49test_add_context_files_mixed_existing_nonexisting
FNF:48
FNH:39
DA:20,0
DA:21,0
DA:22,0
DA:23,0
DA:24,0
DA:25,0
DA:26,0
DA:27,0
DA:33,0
DA:34,0
DA:35,0
DA:36,0
DA:37,0
DA:38,0
DA:39,0
DA:40,0
DA:41,0
DA:42,0
DA:43,0
DA:44,0
DA:45,0
DA:47,0
DA:48,0
DA:49,0
DA:50,0
DA:51,0
DA:52,0
DA:53,0
DA:54,0
DA:55,0
DA:56,0
DA:57,0
DA:58,0
DA:60,0
DA:61,0
DA:62,0
DA:64,0
DA:65,0
DA:66,0
DA:67,0
DA:68,0
DA:69,0
DA:70,0
DA:71,0
DA:72,0
DA:73,0
DA:75,0
DA:76,0
DA:77,0
DA:78,0
DA:79,0
DA:80,0
DA:81,0
DA:82,0
DA:84,0
DA:85,0
DA:86,0
DA:88,0
DA:89,0
DA:90,0
DA:92,0
DA:93,0
DA:94,0
DA:95,0
DA:96,0
DA:97,0
DA:98,0
DA:99,0
DA:100,0
DA:101,0
DA:102,0
DA:103,0
DA:104,0
DA:105,0
DA:107,0
DA:108,0
DA:109,0
DA:110,0
DA:113,0
DA:114,0
DA:115,0
DA:116,0
DA:117,0
DA:120,0
DA:121,0
DA:122,0
DA:123,0
DA:124,0
DA:125,0
DA:126,0
DA:127,0
DA:129,0
DA:132,0
DA:133,0
DA:136,0
DA:138,0
DA:139,0
DA:140,0
DA:141,0
DA:142,0
DA:144,0
DA:145,0
DA:146,0
DA:149,0
DA:150,0
DA:151,0
DA:152,0
DA:153,0
DA:154,0
DA:156,0
DA:157,0
DA:158,0
DA:159,0
DA:160,0
DA:161,0
DA:162,0
DA:163,0
DA:164,0
DA:167,0
DA:168,0
DA:170,0
DA:171,0
DA:172,0
DA:173,0
DA:177,0
DA:178,0
DA:179,0
DA:181,0
DA:182,0
DA:183,0
DA:184,0
DA:185,0
DA:187,0
DA:188,0
DA:189,0
DA:190,0
DA:191,0
DA:192,0
DA:193,0
DA:194,0
DA:196,0
DA:197,0
DA:198,0
DA:199,0
DA:200,0
DA:201,0
DA:202,0
DA:203,0
DA:205,0
DA:206,0
DA:207,0
DA:208,0
DA:209,0
DA:210,0
DA:211,0
DA:212,0
DA:214,0
DA:215,0
DA:216,0
DA:217,0
DA:218,0
DA:219,0
DA:220,0
DA:221,0
DA:223,0
DA:224,0
DA:225,0
DA:226,0
DA:227,0
DA:228,0
DA:229,0
DA:230,0
DA:231,0
DA:232,0
DA:233,0
DA:234,0
DA:235,0
DA:236,0
DA:237,0
DA:238,0
DA:239,0
DA:240,0
DA:243,0
DA:244,0
DA:245,0
DA:248,17
DA:250,17
DA:251,17
DA:252,0
DA:253,0
DA:254,0
DA:255,0
DA:257,0
DA:258,0
DA:259,0
DA:260,0
DA:262,0
DA:263,0
DA:264,0
DA:265,0
DA:269,17
DA:272,17
DA:273,17
DA:274,17
DA:275,17
DA:276,0
DA:277,0
DA:278,0
DA:282,0
DA:285,60
DA:286,43
DA:287,43
DA:288,37
DA:289,6
DA:290,6
DA:291,6
DA:298,17
DA:299,17
DA:310,1
DA:311,1
DA:312,1
DA:313,1
DA:314,1
DA:315,1
DA:316,1
DA:317,1
DA:318,1
DA:319,1
DA:321,1
DA:322,1
DA:323,1
DA:326,1
DA:327,1
DA:328,1
DA:329,1
DA:330,1
DA:331,1
DA:332,1
DA:333,1
DA:334,1
DA:335,1
DA:338,1
DA:339,1
DA:340,1
DA:343,1
DA:344,1
DA:345,1
DA:346,1
DA:347,1
DA:348,1
DA:349,1
DA:350,1
DA:351,1
DA:354,1
DA:355,1
DA:356,1
DA:357,1
DA:359,1
DA:361,1
DA:362,1
DA:363,1
DA:366,1
DA:367,1
DA:368,1
DA:369,1
DA:370,1
DA:371,1
DA:372,1
DA:373,1
DA:374,1
DA:377,1
DA:378,1
DA:379,1
DA:381,1
DA:382,1
DA:384,1
DA:385,1
DA:386,1
DA:389,1
DA:390,1
DA:391,1
DA:394,1
DA:395,1
DA:396,1
DA:397,1
DA:398,1
DA:401,1
DA:402,1
DA:403,1
DA:404,1
DA:405,1
DA:406,1
DA:407,1
DA:408,1
DA:409,1
DA:412,1
DA:413,1
DA:414,1
DA:415,1
DA:417,1
DA:418,1
DA:419,1
DA:421,1
DA:422,1
DA:423,1
DA:424,1
DA:427,1
DA:428,1
DA:429,1
DA:432,1
DA:433,1
DA:434,1
DA:435,1
DA:436,1
DA:437,1
DA:438,1
DA:439,1
DA:440,1
DA:442,1
DA:443,1
DA:444,1
DA:446,1
DA:447,1
DA:448,1
DA:449,1
DA:453,1
DA:454,1
DA:455,1
DA:458,1
DA:459,1
DA:460,1
DA:461,1
DA:462,1
DA:463,1
DA:464,1
DA:465,1
DA:466,1
DA:468,1
DA:469,1
DA:470,1
DA:472,1
DA:474,1
DA:475,1
DA:476,1
DA:479,1
DA:480,1
DA:481,1
DA:482,1
DA:483,1
DA:484,1
DA:485,1
DA:486,1
DA:487,1
DA:489,1
DA:490,1
DA:493,21
DA:494,20
DA:495,20
DA:496,20
DA:497,20
DA:499,1
DA:500,1
DA:501,1
DA:504,1
DA:505,1
DA:506,1
DA:507,1
DA:508,1
DA:509,1
DA:510,1
DA:511,1
DA:512,1
DA:514,1
DA:515,1
DA:516,1
DA:517,1
DA:519,1
DA:521,1
DA:522,1
DA:523,1
DA:526,1
DA:527,1
DA:528,1
DA:529,1
DA:530,1
DA:531,1
DA:532,1
DA:533,1
DA:534,1
DA:536,1
DA:537,1
DA:538,1
DA:540,1
DA:542,1
DA:543,1
DA:544,1
DA:547,1
DA:548,1
DA:549,1
DA:550,1
DA:551,1
DA:552,1
DA:553,1
DA:554,1
DA:555,1
DA:557,1
DA:558,1
DA:559,1
DA:563,1
DA:564,1
DA:565,1
DA:568,1
DA:569,1
DA:570,1
DA:571,1
DA:572,1
DA:573,1
DA:574,1
DA:575,1
DA:576,1
DA:578,1
DA:579,1
DA:580,1
DA:582,1
DA:584,1
DA:585,1
DA:586,1
DA:589,1
DA:590,1
DA:591,1
DA:592,1
DA:593,1
DA:594,1
DA:595,1
DA:596,1
DA:597,1
DA:599,1
DA:600,1
DA:601,1
DA:603,1
DA:604,1
DA:607,1
DA:608,1
DA:609,1
DA:612,1
DA:613,1
DA:614,1
DA:615,1
DA:616,1
DA:617,1
DA:618,1
DA:619,1
DA:620,1
DA:622,1
DA:623,1
DA:624,1
DA:625,1
DA:626,1
DA:628,1
DA:630,1
DA:631,1
DA:632,1
DA:635,1
DA:636,1
DA:637,1
DA:638,1
DA:639,1
DA:640,1
DA:641,1
DA:642,1
DA:643,1
DA:645,1
DA:646,1
DA:647,1
DA:649,1
DA:651,1
DA:654,1
DA:655,1
DA:656,1
DA:659,1
DA:660,1
DA:661,1
DA:662,1
DA:663,1
DA:666,1
DA:667,1
DA:668,1
DA:669,1
DA:672,1
DA:673,1
DA:674,1
DA:675,1
DA:676,1
DA:677,1
DA:678,1
DA:679,1
DA:680,1
DA:682,1
DA:683,1
DA:684,1
DA:685,1
DA:687,1
DA:689,1
DA:690,1
DA:691,1
DA:694,1
DA:695,1
DA:696,1
DA:697,1
DA:698,1
DA:699,1
DA:700,1
DA:701,1
DA:702,1
DA:705,1
DA:706,1
DA:707,11
DA:708,10
DA:709,10
DA:710,1
DA:711,1
DA:712,1
DA:714,1
DA:716,1
DA:717,1
DA:718,1
BRF:0
BRH:0
LF:568
LH:360
end_of_record
SF:/home/user/flexorama/src/llm.rs
FN:153,_RNvMNtCsa6QFEuJDwzK_9flexorama3llmNtB2_9LlmClient14create_message
FN:139,_RNvMNtCsa6QFEuJDwzK_9flexorama3llmNtB2_9LlmClient17has_gemini_client
FN:149,_RNvMNtCsa6QFEuJDwzK_9flexorama3llmNtB2_9LlmClient17has_openai_client
FN:201,_RNvMNtCsa6QFEuJDwzK_9flexorama3llmNtB2_9LlmClient18convert_tool_calls
FN:144,_RNvMNtCsa6QFEuJDwzK_9flexorama3llmNtB2_9LlmClient18has_mistral_client
FN:134,_RNvMNtCsa6QFEuJDwzK_9flexorama3llmNtB2_9LlmClient20has_anthropic_client
FN:176,_RNvMNtCsa6QFEuJDwzK_9flexorama3llmNtB2_9LlmClient21create_message_stream
FN:205,_RNvMNtCsa6QFEuJDwzK_9flexorama3llmNtB2_9LlmClient23create_response_content
FN:75,_RNvMNtCsa6QFEuJDwzK_9flexorama3llmNtB2_9LlmClient3new
FN:129,_RNvMNtCsa6QFEuJDwzK_9flexorama3llmNtB2_9LlmClient8provider
FN:210,_RNvNtCsa6QFEuJDwzK_9flexorama3llm18convert_tool_calls
FN:228,_RNvNtCsa6QFEuJDwzK_9flexorama3llm23create_response_content
FN:271,_RNvMNtNtCsa6QFEuJDwzK_9flexorama3llm5testsNtB2_10RequestLog14recorded_paths
FN:262,_RNvMNtNtCsa6QFEuJDwzK_9flexorama3llm5testsNtB2_10RequestLog6record
FN:267,_RNvMNtNtCsa6QFEuJDwzK_9flexorama3llm5testsNtB2_10RequestLog9hit_count
FN:276,_RNvNtNtCsa6QFEuJDwzK_9flexorama3llm5tests12spawn_server
FN:318,_RNvNtNtCsa6QFEuJDwzK_9flexorama3llm5tests14gemini_handler
FN:334,_RNvNtNtCsa6QFEuJDwzK_9flexorama3llm5tests14openai_handler
FN:293,_RNvNtNtCsa6QFEuJDwzK_9flexorama3llm5tests17anthropic_handler
FN:288,_RNvNtNtCsa6QFEuJDwzK_9flexorama3llm5tests18configure_no_proxy
FN:565,_RNvNtNtCsa6QFEuJDwzK_9flexorama3llm5testss_22routes_gemini_provider
FN:516,_RNvNtNtCsa6QFEuJDwzK_9flexorama3llm5testss_22routes_openai_provider
FN:466,_RNvNtNtCsa6QFEuJDwzK_9flexorama3llm5testss_23routes_mistral_provider
FN:414,_RNvNtNtCsa6QFEuJDwzK_9flexorama3llm5testss_32routes_anthropic_based_providers
FN:351,_RNvNtNtCsa6QFEuJDwzK_9flexorama3llm5testss_33provider_returns_expected_variant
FN:282,_RNCNCNvNtNtCsa6QFEuJDwzK_9flexorama3llm5tests12spawn_server00B9_
FN:301,_RNCNCNvNtNtCsa6QFEuJDwzK_9flexorama3llm5tests17anthropic_handler00B9_
FN:601,_RNCNCNvNtNtCsa6QFEuJDwzK_9flexorama3llm5testss_22routes_gemini_provider00B9_
FN:552,_RNCNCNvNtNtCsa6QFEuJDwzK_9flexorama3llm5testss_22routes_openai_provider00B9_
FN:503,_RNCNCNvNtNtCsa6QFEuJDwzK_9flexorama3llm5testss_23routes_mistral_provider00B9_
FN:452,_RNCNCNvNtNtCsa6QFEuJDwzK_9flexorama3llm5testss_32routes_anthropic_based_providers00B9_
FN:276,_RNCNvNtNtCsa6QFEuJDwzK_9flexorama3llm5tests12spawn_server0B7_
FN:322,_RNCNvNtNtCsa6QFEuJDwzK_9flexorama3llm5tests14gemini_handler0B7_
FN:338,_RNCNvNtNtCsa6QFEuJDwzK_9flexorama3llm5tests14openai_handler0B7_
FN:297,_RNCNvNtNtCsa6QFEuJDwzK_9flexorama3llm5tests17anthropic_handler0B7_
FN:565,_RNCNvNtNtCsa6QFEuJDwzK_9flexorama3llm5testss_22routes_gemini_provider0B7_
FN:516,_RNCNvNtNtCsa6QFEuJDwzK_9flexorama3llm5testss_22routes_openai_provider0B7_
FN:466,_RNCNvNtNtCsa6QFEuJDwzK_9flexorama3llm5testss_23routes_mistral_provider0B7_
FN:414,_RNCNvNtNtCsa6QFEuJDwzK_9flexorama3llm5testss_32routes_anthropic_based_providers0B7_
FN:351,_RNCNvNtNtCsa6QFEuJDwzK_9flexorama3llm5testss_33provider_returns_expected_variant0B7_
FN:162,_RNCNvMNtCsa6QFEuJDwzK_9flexorama3llmNtB4_9LlmClient14create_message0B6_
FN:186,_RNCNvMNtCsa6QFEuJDwzK_9flexorama3llmNtB4_9LlmClient21create_message_stream0B6_
FN:213,_RNCNvNtCsa6QFEuJDwzK_9flexorama3llm18convert_tool_calls0B5_
FN:231,_RNCNvNtCsa6QFEuJDwzK_9flexorama3llm23create_response_content0B5_
FNDA:5,_RNvMNtCsa6QFEuJDwzK_9flexorama3llmNtB2_9LlmClient14create_message
FNDA:5,_RNvMNtCsa6QFEuJDwzK_9flexorama3llmNtB2_9LlmClient17has_gemini_client
FNDA:5,_RNvMNtCsa6QFEuJDwzK_9flexorama3llmNtB2_9LlmClient17has_openai_client
FNDA:0,_RNvMNtCsa6QFEuJDwzK_9flexorama3llmNtB2_9LlmClient18convert_tool_calls
FNDA:3,_RNvMNtCsa6QFEuJDwzK_9flexorama3llmNtB2_9LlmClient18has_mistral_client
FNDA:5,_RNvMNtCsa6QFEuJDwzK_9flexorama3llmNtB2_9LlmClient20has_anthropic_client
FNDA:5,_RNvMNtCsa6QFEuJDwzK_9flexorama3llmNtB2_9LlmClient21create_message_stream
FNDA:0,_RNvMNtCsa6QFEuJDwzK_9flexorama3llmNtB2_9LlmClient23create_response_content
FNDA:122,_RNvMNtCsa6QFEuJDwzK_9flexorama3llmNtB2_9LlmClient3new
FNDA:5,_RNvMNtCsa6QFEuJDwzK_9flexorama3llmNtB2_9LlmClient8provider
FNDA:0,_RNvNtCsa6QFEuJDwzK_9flexorama3llm18convert_tool_calls
FNDA:0,_RNvNtCsa6QFEuJDwzK_9flexorama3llm23create_response_content
FNDA:4,_RNvMNtNtCsa6QFEuJDwzK_9flexorama3llm5testsNtB2_10RequestLog14recorded_paths
FNDA:10,_RNvMNtNtCsa6QFEuJDwzK_9flexorama3llm5testsNtB2_10RequestLog6record
FNDA:4,_RNvMNtNtCsa6QFEuJDwzK_9flexorama3llm5testsNtB2_10RequestLog9hit_count
FNDA:4,_RNvNtNtCsa6QFEuJDwzK_9flexorama3llm5tests12spawn_server
FNDA:2,_RNvNtNtCsa6QFEuJDwzK_9flexorama3llm5tests14gemini_handler
FNDA:4,_RNvNtNtCsa6QFEuJDwzK_9flexorama3llm5tests14openai_handler
FNDA:4,_RNvNtNtCsa6QFEuJDwzK_9flexorama3llm5tests17anthropic_handler
FNDA:5,_RNvNtNtCsa6QFEuJDwzK_9flexorama3llm5tests18configure_no_proxy
FNDA:1,_RNvNtNtCsa6QFEuJDwzK_9flexorama3llm5testss_22routes_gemini_provider
FNDA:1,_RNvNtNtCsa6QFEuJDwzK_9flexorama3llm5testss_22routes_openai_provider
FNDA:1,_RNvNtNtCsa6QFEuJDwzK_9flexorama3llm5testss_23routes_mistral_provider
FNDA:1,_RNvNtNtCsa6QFEuJDwzK_9flexorama3llm5testss_32routes_anthropic_based_providers
FNDA:1,_RNvNtNtCsa6QFEuJDwzK_9flexorama3llm5testss_33provider_returns_expected_variant
FNDA:4,_RNCNCNvNtNtCsa6QFEuJDwzK_9flexorama3llm5tests12spawn_server00B9_
FNDA:4,_RNCNCNvNtNtCsa6QFEuJDwzK_9flexorama3llm5tests17anthropic_handler00B9_
FNDA:1,_RNCNCNvNtNtCsa6QFEuJDwzK_9flexorama3llm5testss_22routes_gemini_provider00B9_
FNDA:0,_RNCNCNvNtNtCsa6QFEuJDwzK_9flexorama3llm5testss_22routes_openai_provider00B9_
FNDA:0,_RNCNCNvNtNtCsa6QFEuJDwzK_9flexorama3llm5testss_23routes_mistral_provider00B9_
FNDA:2,_RNCNCNvNtNtCsa6QFEuJDwzK_9flexorama3llm5testss_32routes_anthropic_based_providers00B9_
FNDA:4,_RNCNvNtNtCsa6QFEuJDwzK_9flexorama3llm5tests12spawn_server0B7_
FNDA:2,_RNCNvNtNtCsa6QFEuJDwzK_9flexorama3llm5tests14gemini_handler0B7_
FNDA:4,_RNCNvNtNtCsa6QFEuJDwzK_9flexorama3llm5tests14openai_handler0B7_
FNDA:4,_RNCNvNtNtCsa6QFEuJDwzK_9flexorama3llm5tests17anthropic_handler0B7_
FNDA:1,_RNCNvNtNtCsa6QFEuJDwzK_9flexorama3llm5testss_22routes_gemini_provider0B7_
FNDA:1,_RNCNvNtNtCsa6QFEuJDwzK_9flexorama3llm5testss_22routes_openai_provider0B7_
FNDA:1,_RNCNvNtNtCsa6QFEuJDwzK_9flexorama3llm5testss_23routes_mistral_provider0B7_
FNDA:1,_RNCNvNtNtCsa6QFEuJDwzK_9flexorama3llm5testss_32routes_anthropic_based_providers0B7_
FNDA:1,_RNCNvNtNtCsa6QFEuJDwzK_9flexorama3llm5testss_33provider_returns_expected_variant0B7_
FNDA:5,_RNCNvMNtCsa6QFEuJDwzK_9flexorama3llmNtB4_9LlmClient14create_message0B6_
FNDA:5,_RNCNvMNtCsa6QFEuJDwzK_9flexorama3llmNtB4_9LlmClient21create_message_stream0B6_
FNDA:0,_RNCNvNtCsa6QFEuJDwzK_9flexorama3llm18convert_tool_calls0B5_
FNDA:0,_RNCNvNtCsa6QFEuJDwzK_9flexorama3llm23create_response_content0B5_
FNF:44
FNH:36
DA:75,122
DA:76,122
DA:77,114
DA:78,114
DA:79,114
DA:80,114
DA:81,114
DA:82,114
DA:83,114
DA:84,114
DA:85,2
DA:86,2
DA:87,2
DA:88,2
DA:89,2
DA:90,2
DA:91,2
DA:92,2
DA:93,2
DA:94,2
DA:95,2
DA:96,2
DA:97,2
DA:98,2
DA:99,2
DA:100,2
DA:101,2
DA:102,2
DA:103,2
DA:104,2
DA:105,2
DA:106,2
DA:107,2
DA:108,2
DA:109,2
DA:110,2
DA:111,2
DA:112,2
DA:113,2
DA:114,2
DA:115,2
DA:116,2
DA:117,0
DA:118,0
DA:119,0
DA:120,0
DA:121,0
DA:122,0
DA:123,0
DA:124,0
DA:126,122
DA:129,5
DA:130,5
DA:131,5
DA:134,5
DA:135,5
DA:136,5
DA:139,5
DA:140,5
DA:141,5
DA:144,3
DA:145,3
DA:146,3
DA:149,5
DA:150,5
DA:151,5
DA:153,5
DA:154,5
DA:155,5
DA:156,5
DA:157,5
DA:158,5
DA:159,5
DA:160,5
DA:161,5
DA:162,5
DA:163,5
DA:166,1
DA:167,1
DA:168,1
DA:169,1
DA:170,1
DA:171,1
DA:172,1
DA:174,5
DA:176,5
DA:177,5
DA:178,5
DA:179,5
DA:180,5
DA:181,5
DA:182,5
DA:183,5
DA:184,5
DA:185,5
DA:186,5
DA:187,5
DA:190,1
DA:191,1
DA:192,1
DA:193,1
DA:194,1
DA:195,1
DA:196,1
DA:197,1
DA:199,5
DA:201,0
DA:202,0
DA:203,0
DA:205,0
DA:206,0
DA:207,0
DA:210,0
DA:211,0
DA:212,0
DA:213,0
DA:214,0
DA:215,0
DA:216,0
DA:217,0
DA:218,0
DA:219,0
DA:220,0
DA:222,0
DA:224,0
DA:225,0
DA:226,0
DA:228,0
DA:229,0
DA:230,0
DA:231,0
DA:232,0
DA:233,0
DA:235,0
DA:237,0
DA:238,0
DA:239,0
DA:240,0
DA:262,10
DA:263,10
DA:264,10
DA:265,10
DA:267,4
DA:268,4
DA:269,4
DA:271,4
DA:272,4
DA:273,4
DA:276,4
DA:277,4
DA:278,4
DA:279,4
DA:280,4
DA:281,4
DA:282,4
DA:283,4
DA:284,0
DA:285,4
DA:286,4
DA:288,5
DA:289,5
DA:290,5
DA:291,5
DA:293,4
DA:294,4
DA:295,4
DA:296,4
DA:297,4
DA:298,4
DA:299,4
DA:300,4
DA:301,4
DA:302,4
DA:304,4
DA:305,2
DA:312,2
DA:314,2
DA:316,4
DA:318,2
DA:319,2
DA:320,2
DA:321,2
DA:322,2
DA:323,2
DA:324,2
DA:325,2
DA:326,2
DA:327,2
DA:328,2
DA:329,2
DA:330,2
DA:331,2
DA:332,2
DA:334,4
DA:335,4
DA:336,4
DA:337,4
DA:338,4
DA:339,4
DA:340,4
DA:341,4
DA:342,4
DA:343,4
DA:344,4
DA:345,4
DA:346,4
DA:347,4
DA:348,4
DA:351,1
DA:352,1
DA:355,1
DA:356,1
DA:357,1
DA:358,1
DA:360,1
DA:361,1
DA:362,1
DA:363,1
DA:366,1
DA:367,1
DA:368,1
DA:369,1
DA:371,1
DA:372,1
DA:373,1
DA:374,1
DA:377,1
DA:378,1
DA:379,1
DA:380,1
DA:382,1
DA:383,1
DA:384,1
DA:385,1
DA:386,1
DA:389,1
DA:390,1
DA:391,1
DA:392,1
DA:394,1
DA:395,1
DA:396,1
DA:397,1
DA:398,1
DA:401,1
DA:402,1
DA:403,1
DA:404,1
DA:406,1
DA:407,1
DA:408,1
DA:409,1
DA:410,1
DA:411,1
DA:414,1
DA:415,1
DA:416,1
DA:417,1
DA:418,1
DA:419,1
DA:420,1
DA:422,1
DA:423,3
DA:424,2
DA:425,2
DA:426,2
DA:427,2
DA:428,2
DA:429,2
DA:431,2
DA:432,2
DA:433,2
DA:434,2
DA:435,2
DA:436,2
DA:437,2
DA:438,2
DA:439,2
DA:440,2
DA:441,2
DA:442,2
DA:444,2
DA:445,2
DA:446,2
DA:447,2
DA:448,2
DA:451,2
DA:452,2
DA:453,2
DA:455,2
DA:456,2
DA:459,1
DA:460,4
DA:461,4
DA:462,1
DA:463,1
DA:466,1
DA:467,1
DA:469,1
DA:470,1
DA:471,1
DA:472,1
DA:473,1
DA:475,1
DA:476,1
DA:477,1
DA:478,1
DA:479,1
DA:480,1
DA:482,1
DA:483,1
DA:484,1
DA:485,1
DA:486,1
DA:487,1
DA:488,1
DA:489,1
DA:490,1
DA:491,1
DA:492,1
DA:493,1
DA:495,1
DA:496,1
DA:497,1
DA:498,1
DA:499,1
DA:502,1
DA:503,1
DA:504,1
DA:506,1
DA:507,1
DA:509,1
DA:510,2
DA:511,2
DA:512,1
DA:513,1
DA:516,1
DA:517,1
DA:518,1
DA:519,1
DA:520,1
DA:521,1
DA:522,1
DA:524,1
DA:525,1
DA:526,1
DA:527,1
DA:528,1
DA:529,1
DA:531,1
DA:532,1
DA:533,1
DA:534,1
DA:535,1
DA:536,1
DA:537,1
DA:538,1
DA:539,1
DA:540,1
DA:541,1
DA:542,1
DA:544,1
DA:545,1
DA:546,1
DA:547,1
DA:548,1
DA:551,1
DA:552,1
DA:553,1
DA:555,1
DA:556,1
DA:558,1
DA:559,2
DA:560,2
DA:561,1
DA:562,1
DA:565,1
DA:566,1
DA:567,1
DA:568,1
DA:569,1
DA:570,1
DA:571,1
DA:573,1
DA:574,1
DA:575,1
DA:576,1
DA:577,1
DA:578,1
DA:580,1
DA:581,1
DA:582,1
DA:583,1
DA:584,1
DA:585,1
DA:586,1
DA:587,1
DA:588,1
DA:589,1
DA:590,1
DA:591,1
DA:593,1
DA:594,1
DA:595,1
DA:596,1
DA:597,1
DA:600,1
DA:601,1
DA:602,1
DA:604,1
DA:605,1
DA:607,1
DA:608,2
DA:609,2
DA:610,1
DA:611,1
BRF:0
BRH:0
LF:444
LH:399
end_of_record
SF:/home/user/flexorama/src/logo.rs
FN:33,_RNvNtCsa6QFEuJDwzK_9flexorama4logo12display_logo
FN:18,_RNvNtCsa6QFEuJDwzK_9flexorama4logo21get_logo_for_terminal
FNDA:0,_RNvNtCsa6QFEuJDwzK_9flexorama4logo12display_logo
FNDA:0,_RNvNtCsa6QFEuJDwzK_9flexorama4logo21get_logo_for_terminal
FNF:2
FNH:0
DA:18,0
DA:20,0
DA:21,0
DA:22,0
DA:24,0
DA:28,0
DA:30,0
DA:33,0
DA:34,0
DA:35,0
DA:36,0
DA:37,0
DA:38,0
DA:39,0
DA:40,0
DA:41,0
DA:42,0
DA:43,0
DA:44,0
DA:45,0
DA:46,0
DA:48,0
DA:49,0
DA:51,0
DA:53,0
DA:55,0
DA:56,0
DA:57,0
DA:58,0
DA:59,0
DA:60,0
DA:61,0
DA:62,0
DA:64,0
DA:65,0
DA:67,0
DA:69,0
DA:70,0
DA:71,0
DA:72,0
DA:80,0
DA:81,0
DA:84,0
DA:85,0
DA:86,0
DA:87,0
DA:89,0
DA:91,0
DA:92,0
DA:93,0
DA:94,0
DA:95,0
DA:97,0
DA:100,0
DA:101,0
DA:102,0
DA:104,0
DA:105,0
DA:108,0
DA:109,0
DA:113,0
DA:116,0
DA:121,0
DA:122,0
DA:123,0
DA:124,0
DA:126,0
DA:127,0
DA:130,0
DA:131,0
DA:134,0
DA:135,0
DA:139,0
DA:142,0
DA:143,0
DA:144,0
BRF:0
BRH:0
LF:76
LH:0
end_of_record
SF:/home/user/flexorama/src/main.rs
FN:79,_RNCNCNvCsiyJ9C6NSxZs_3flx4main00B5_
FN:167,_RNCNCNvCsiyJ9C6NSxZs_3flx4main0s_0B5_
FN:336,_RNCNvCsiyJ9C6NSxZs_3flx12run_web_mode0B3_
FN:436,_RNCNvCsiyJ9C6NSxZs_3flx20run_interactive_mode0B3_
FN:411,_RNCNvCsiyJ9C6NSxZs_3flx23run_single_message_mode0B3_
FN:420,_RNCNvCsiyJ9C6NSxZs_3flx24run_non_interactive_mode0B3_
FN:372,_RNCNvCsiyJ9C6NSxZs_3flx27run_message_with_formatting0B3_
FN:28,_RNCNvCsiyJ9C6NSxZs_3flx4main0B3_
FN:330,_RNvCsiyJ9C6NSxZs_3flx12run_web_mode
FN:429,_RNvCsiyJ9C6NSxZs_3flx20run_interactive_mode
FN:406,_RNvCsiyJ9C6NSxZs_3flx23run_single_message_mode
FN:416,_RNvCsiyJ9C6NSxZs_3flx24run_non_interactive_mode
FN:367,_RNvCsiyJ9C6NSxZs_3flx27run_message_with_formatting
FN:28,_RNvCsiyJ9C6NSxZs_3flx4main
FNDA:0,_RNCNCNvCsiyJ9C6NSxZs_3flx4main00B5_
FNDA:0,_RNCNCNvCsiyJ9C6NSxZs_3flx4main0s_0B5_
FNDA:0,_RNCNvCsiyJ9C6NSxZs_3flx12run_web_mode0B3_
FNDA:0,_RNCNvCsiyJ9C6NSxZs_3flx20run_interactive_mode0B3_
FNDA:0,_RNCNvCsiyJ9C6NSxZs_3flx23run_single_message_mode0B3_
FNDA:0,_RNCNvCsiyJ9C6NSxZs_3flx24run_non_interactive_mode0B3_
FNDA:0,_RNCNvCsiyJ9C6NSxZs_3flx27run_message_with_formatting0B3_
FNDA:0,_RNCNvCsiyJ9C6NSxZs_3flx4main0B3_
FNDA:0,_RNvCsiyJ9C6NSxZs_3flx12run_web_mode
FNDA:0,_RNvCsiyJ9C6NSxZs_3flx20run_interactive_mode
FNDA:0,_RNvCsiyJ9C6NSxZs_3flx23run_single_message_mode
FNDA:0,_RNvCsiyJ9C6NSxZs_3flx24run_non_interactive_mode
FNDA:0,_RNvCsiyJ9C6NSxZs_3flx27run_message_with_formatting
FNDA:0,_RNvCsiyJ9C6NSxZs_3flx4main
FNF:14
FNH:0
DA:28,0
DA:29,0
DA:31,0
DA:32,0
DA:35,0
DA:36,0
DA:37,0
DA:39,0
DA:43,0
DA:44,0
DA:47,0
DA:48,0
DA:49,0
DA:52,0
DA:55,0
DA:56,0
DA:57,0
DA:60,0
DA:61,0
DA:62,0
DA:63,0
DA:64,0
DA:65,0
DA:69,0
DA:70,0
DA:71,0
DA:72,0
DA:73,0
DA:74,0
DA:76,0
DA:77,0
DA:78,0
DA:79,0
DA:81,0
DA:82,0
DA:83,0
DA:84,0
DA:87,0
DA:88,0
DA:89,0
DA:90,0
DA:91,0
DA:92,0
DA:95,0
DA:96,0
DA:97,0
DA:98,0
DA:99,0
DA:100,0
DA:101,0
DA:102,0
DA:104,0
DA:105,0
DA:106,0
DA:107,0
DA:108,0
DA:109,0
DA:110,0
DA:112,0
DA:113,0
DA:114,0
DA:117,0
DA:119,0
DA:120,0
DA:121,0
DA:122,0
DA:123,0
DA:124,0
DA:125,0
DA:128,0
DA:134,0
DA:135,0
DA:138,0
DA:139,0
DA:140,0
DA:143,0
DA:144,0
DA:147,0
DA:148,0
DA:149,0
DA:150,0
DA:151,0
DA:152,0
DA:154,0
DA:155,0
DA:156,0
DA:159,0
DA:160,0
DA:161,0
DA:163,0
DA:164,0
DA:165,0
DA:166,0
DA:167,0
DA:168,0
DA:170,0
DA:173,0
DA:174,0
DA:175,0
DA:176,0
DA:179,0
DA:180,0
DA:181,0
DA:182,0
DA:184,0
DA:188,0
DA:191,0
DA:192,0
DA:193,0
DA:194,0
DA:195,0
DA:196,0
DA:198,0
DA:200,0
DA:202,0
DA:203,0
DA:204,0
DA:205,0
DA:206,0
DA:207,0
DA:208,0
DA:209,0
DA:212,0
DA:213,0
DA:214,0
DA:215,0
DA:216,0
DA:221,0
DA:222,0
DA:223,0
DA:224,0
DA:225,0
DA:226,0
DA:228,0
DA:230,0
DA:232,0
DA:233,0
DA:234,0
DA:235,0
DA:236,0
DA:237,0
DA:238,0
DA:241,0
DA:242,0
DA:243,0
DA:244,0
DA:245,0
DA:250,0
DA:251,0
DA:252,0
DA:255,0
DA:256,0
DA:257,0
DA:258,0
DA:259,0
DA:260,0
DA:261,0
DA:262,0
DA:263,0
DA:266,0
DA:267,0
DA:268,0
DA:269,0
DA:273,0
DA:274,0
DA:275,0
DA:276,0
DA:277,0
DA:278,0
DA:279,0
DA:282,0
DA:285,0
DA:286,0
DA:287,0
DA:289,0
DA:290,0
DA:295,0
DA:296,0
DA:297,0
DA:298,0
DA:299,0
DA:300,0
DA:301,0
DA:302,0
DA:303,0
DA:304,0
DA:305,0
DA:306,0
DA:307,0
DA:309,0
DA:310,0
DA:311,0
DA:312,0
DA:313,0
DA:314,0
DA:315,0
DA:316,0
DA:317,0
DA:321,0
DA:322,0
DA:323,0
DA:324,0
DA:326,0
DA:327,0
DA:330,0
DA:331,0
DA:332,0
DA:333,0
DA:334,0
DA:335,0
DA:336,0
DA:337,0
DA:338,0
DA:339,0
DA:340,0
DA:341,0
DA:342,0
DA:344,0
DA:345,0
DA:347,0
DA:348,0
DA:351,0
DA:352,0
DA:353,0
DA:354,0
DA:355,0
DA:356,0
DA:357,0
DA:358,0
DA:359,0
DA:360,0
DA:362,0
DA:363,0
DA:364,0
DA:367,0
DA:368,0
DA:369,0
DA:370,0
DA:371,0
DA:372,0
DA:373,0
DA:374,0
DA:376,0
DA:378,0
DA:379,0
DA:380,0
DA:381,0
DA:382,0
DA:383,0
DA:384,0
DA:385,0
DA:386,0
DA:387,0
DA:388,0
DA:389,0
DA:390,0
DA:391,0
DA:392,0
DA:393,0
DA:395,0
DA:396,0
DA:397,0
DA:398,0
DA:401,0
DA:402,0
DA:403,0
DA:406,0
DA:407,0
DA:408,0
DA:409,0
DA:410,0
DA:411,0
DA:412,0
DA:413,0
DA:416,0
DA:417,0
DA:418,0
DA:419,0
DA:420,0
DA:421,0
DA:422,0
DA:423,0
DA:425,0
DA:426,0
DA:429,0
DA:430,0
DA:431,0
DA:432,0
DA:433,0
DA:434,0
DA:435,0
DA:436,0
DA:437,0
DA:438,0
DA:439,0
DA:440,0
DA:441,0
DA:442,0
DA:443,0
DA:444,0
DA:445,0
DA:446,0
DA:447,0
DA:449,0
DA:451,0
DA:452,0
BRF:0
BRH:0
LF:315
LH:0
end_of_record
SF:/home/user/flexorama/src/mcp.rs
FN:426,_RNvMNtCsa6QFEuJDwzK_9flexorama3mcpNtB2_13McpConnection19find_npx_on_windows
FN:1693,_RNCNCNvNtNtCsa6QFEuJDwzK_9flexorama3mcp5testss_29test_mcp_manager_list_servers00B9_
FN:1694,_RNCNCNvNtNtCsa6QFEuJDwzK_9flexorama3mcp5testss_29test_mcp_manager_list_servers0s_0B9_
FN:1755,_RNCNCNvNtNtCsa6QFEuJDwzK_9flexorama3mcp5testss_30test_mcp_manager_get_all_tools00B9_
FN:1757,_RNCNCNvNtNtCsa6QFEuJDwzK_9flexorama3mcp5testss_30test_mcp_manager_get_all_tools0s0_0B9_
FN:1756,_RNCNCNvNtNtCsa6QFEuJDwzK_9flexorama3mcp5testss_30test_mcp_manager_get_all_tools0s_0B9_
FN:1963,_RNCNvNtNtCsa6QFEuJDwzK_9flexorama3mcp5testss_23test_next_id_sequential0B7_
FN:1594,_RNCNvNtNtCsa6QFEuJDwzK_9flexorama3mcp5testss_27test_mcp_manager_get_server0B7_
FN:1578,_RNCNvNtNtCsa6QFEuJDwzK_9flexorama3mcp5testss_27test_mcp_manager_initialize0B7_
FN:1612,_RNCNvNtNtCsa6QFEuJDwzK_9flexorama3mcp5testss_29test_mcp_manager_is_connected0B7_
FN:1674,_RNCNvNtNtCsa6QFEuJDwzK_9flexorama3mcp5testss_29test_mcp_manager_list_servers0B7_
FN:1716,_RNCNvNtNtCsa6QFEuJDwzK_9flexorama3mcp5testss_30test_mcp_manager_get_all_tools0B7_
FN:1769,_RNCNvNtNtCsa6QFEuJDwzK_9flexorama3mcp5testss_31test_mcp_manager_disconnect_all0B7_
FN:1471,_RNCNvNtNtCsa6QFEuJDwzK_9flexorama3mcp5testss_35test_mcp_connection_get_tools_empty0B7_
FN:1667,_RNCNvNtNtCsa6QFEuJDwzK_9flexorama3mcp5testss_35test_mcp_manager_list_servers_empty0B7_
FN:1709,_RNCNvNtNtCsa6QFEuJDwzK_9flexorama3mcp5testss_36test_mcp_manager_get_all_tools_empty0B7_
FN:1478,_RNCNvNtNtCsa6QFEuJDwzK_9flexorama3mcp5testss_37test_mcp_connection_get_tools_version0B7_
FN:1798,_RNCNvNtNtCsa6QFEuJDwzK_9flexorama3mcp5testss_40test_mcp_manager_call_tool_not_connected0B7_
FN:1632,_RNCNvNtNtCsa6QFEuJDwzK_9flexorama3mcp5testss_40test_mcp_manager_get_tools_version_empty0B7_
FN:1972,_RNCNvNtNtCsa6QFEuJDwzK_9flexorama3mcp5testss_41test_mcp_connection_disconnect_no_process0B7_
FN:1485,_RNCNvNtNtCsa6QFEuJDwzK_9flexorama3mcp5testss_43test_mcp_connection_tools_version_increment0B7_
FN:1639,_RNCNvNtNtCsa6QFEuJDwzK_9flexorama3mcp5testss_51test_mcp_manager_get_tools_version_with_connections0B7_
FN:846,_RNvMNtCsa6QFEuJDwzK_9flexorama3mcpNtB2_13McpConnection10disconnect
FN:477,_RNvMNtCsa6QFEuJDwzK_9flexorama3mcpNtB2_13McpConnection10initialize
FN:520,_RNvMNtCsa6QFEuJDwzK_9flexorama3mcpNtB2_13McpConnection10load_tools
FN:782,_RNvMNtCsa6QFEuJDwzK_9flexorama3mcpNtB2_13McpConnection12send_request
FN:176,_RNvMNtCsa6QFEuJDwzK_9flexorama3mcpNtB2_13McpConnection13connect_stdio
FN:123,_RNvMNtCsa6QFEuJDwzK_9flexorama3mcpNtB2_13McpConnection16log_tool_details
FN:466,_RNvMNtCsa6QFEuJDwzK_9flexorama3mcpNtB2_13McpConnection17connect_websocket
FN:421,_RNvMNtCsa6QFEuJDwzK_9flexorama3mcpNtB2_13McpConnection17get_tools_version
FN:815,_RNvMNtCsa6QFEuJDwzK_9flexorama3mcpNtB2_13McpConnection17send_notification
FN:108,_RNvMNtCsa6QFEuJDwzK_9flexorama3mcpNtB2_13McpConnection3new
FN:840,_RNvMNtCsa6QFEuJDwzK_9flexorama3mcpNtB2_13McpConnection7next_id
FN:707,_RNvMNtCsa6QFEuJDwzK_9flexorama3mcpNtB2_13McpConnection9call_tool
FN:836,_RNvMNtCsa6QFEuJDwzK_9flexorama3mcpNtB2_13McpConnection9get_tools
FN:926,_RNvMs_NtCsa6QFEuJDwzK_9flexorama3mcpNtB4_10McpManager10add_server
FN:921,_RNvMs_NtCsa6QFEuJDwzK_9flexorama3mcpNtB4_10McpManager10get_server
FN:886,_RNvMs_NtCsa6QFEuJDwzK_9flexorama3mcpNtB4_10McpManager10initialize
FN:917,_RNvMs_NtCsa6QFEuJDwzK_9flexorama3mcpNtB4_10McpManager11load_config
FN:1092,_RNvMs_NtCsa6QFEuJDwzK_9flexorama3mcpNtB4_10McpManager12is_connected
FN:1053,_RNvMs_NtCsa6QFEuJDwzK_9flexorama3mcpNtB4_10McpManager12list_servers
FN:1066,_RNvMs_NtCsa6QFEuJDwzK_9flexorama3mcpNtB4_10McpManager13get_all_tools
FN:934,_RNvMs_NtCsa6QFEuJDwzK_9flexorama3mcpNtB4_10McpManager13remove_server
FN:949,_RNvMs_NtCsa6QFEuJDwzK_9flexorama3mcpNtB4_10McpManager13upsert_server
FN:967,_RNvMs_NtCsa6QFEuJDwzK_9flexorama3mcpNtB4_10McpManager14connect_server
FN:1080,_RNvMs_NtCsa6QFEuJDwzK_9flexorama3mcpNtB4_10McpManager14disconnect_all
FN:1047,_RNvMs_NtCsa6QFEuJDwzK_9flexorama3mcpNtB4_10McpManager16reconnect_server
FN:1038,_RNvMs_NtCsa6QFEuJDwzK_9flexorama3mcpNtB4_10McpManager17disconnect_server
FN:1098,_RNvMs_NtCsa6QFEuJDwzK_9flexorama3mcpNtB4_10McpManager17get_tools_version
FN:1123,_RNvMs_NtCsa6QFEuJDwzK_9flexorama3mcpNtB4_10McpManager19connect_all_enabled
FN:896,_RNvMs_NtCsa6QFEuJDwzK_9flexorama3mcpNtB4_10McpManager19save_to_config_file
FN:877,_RNvMs_NtCsa6QFEuJDwzK_9flexorama3mcpNtB4_10McpManager20new_with_config_path
FN:868,_RNvMs_NtCsa6QFEuJDwzK_9flexorama3mcpNtB4_10McpManager3new
FN:1109,_RNvMs_NtCsa6QFEuJDwzK_9flexorama3mcpNtB4_10McpManager9call_tool
FN:1199,_RNvXs0_NtCsa6QFEuJDwzK_9flexorama3mcpNtB5_10McpManagerNtNtCs3XFJfFEDSOQ_4core7default7Default7default
FN:1212,_RNvNtNtCsa6QFEuJDwzK_9flexorama3mcp5tests15temp_config_dir
FN:1217,_RNvNtNtCsa6QFEuJDwzK_9flexorama3mcp5tests18test_server_config
FN:1557,_RNvNtNtCsa6QFEuJDwzK_9flexorama3mcp5testss_20test_mcp_manager_new
FN:1501,_RNvNtNtCsa6QFEuJDwzK_9flexorama3mcp5testss_21test_log_tool_details
FN:1909,_RNvNtNtCsa6QFEuJDwzK_9flexorama3mcp5testss_22test_mcp_error_no_data
FN:1451,_RNvNtNtCsa6QFEuJDwzK_9flexorama3mcp5testss_23test_mcp_connection_new
FN:1960,_RNvNtNtCsa6QFEuJDwzK_9flexorama3mcp5testss_23test_next_id_sequential
FN:1366,_RNvNtNtCsa6QFEuJDwzK_9flexorama3mcp5testss_24test_mcp_error_with_data
FN:1572,_RNvNtNtCsa6QFEuJDwzK_9flexorama3mcp5testss_24test_mcp_manager_default
FN:1462,_RNvNtNtCsa6QFEuJDwzK_9flexorama3mcp5testss_27test_mcp_connection_next_id
FN:1594,_RNvNtNtCsa6QFEuJDwzK_9flexorama3mcp5testss_27test_mcp_manager_get_server
FN:1578,_RNvNtNtCsa6QFEuJDwzK_9flexorama3mcp5testss_27test_mcp_manager_initialize
FN:1895,_RNvNtNtCsa6QFEuJDwzK_9flexorama3mcp5testss_28test_mcp_error_serialization
FN:1863,_RNvNtNtCsa6QFEuJDwzK_9flexorama3mcp5testss_28test_mcp_tool_complex_schema
FN:1435,_RNvNtNtCsa6QFEuJDwzK_9flexorama3mcp5testss_28test_mcp_tool_no_description
FN:1612,_RNvNtNtCsa6QFEuJDwzK_9flexorama3mcp5testss_29test_mcp_manager_is_connected
FN:1674,_RNvNtNtCsa6QFEuJDwzK_9flexorama3mcp5testss_29test_mcp_manager_list_servers
FN:1716,_RNvNtNtCsa6QFEuJDwzK_9flexorama3mcp5testss_30test_mcp_manager_get_all_tools
FN:1843,_RNvNtNtCsa6QFEuJDwzK_9flexorama3mcp5testss_30test_mcp_tool_empty_properties
FN:1769,_RNvNtNtCsa6QFEuJDwzK_9flexorama3mcp5testss_31test_mcp_manager_disconnect_all
FN:1830,_RNvNtNtCsa6QFEuJDwzK_9flexorama3mcp5testss_34test_mcp_client_info_serialization
FN:1471,_RNvNtNtCsa6QFEuJDwzK_9flexorama3mcp5testss_35test_mcp_connection_get_tools_empty
FN:1667,_RNvNtNtCsa6QFEuJDwzK_9flexorama3mcp5testss_35test_mcp_manager_list_servers_empty
FN:1298,_RNvNtNtCsa6QFEuJDwzK_9flexorama3mcp5testss_35test_mcp_request_ping_serialization
FN:1543,_RNvNtNtCsa6QFEuJDwzK_9flexorama3mcp5testss_36test_log_tool_details_invalid_schema
FN:1527,_RNvNtNtCsa6QFEuJDwzK_9flexorama3mcp5testss_36test_log_tool_details_no_description
FN:1709,_RNvNtNtCsa6QFEuJDwzK_9flexorama3mcp5testss_36test_mcp_manager_get_all_tools_empty
FN:1821,_RNvNtNtCsa6QFEuJDwzK_9flexorama3mcp5testss_37test_mcp_client_capabilities_no_tools
FN:1478,_RNvNtNtCsa6QFEuJDwzK_9flexorama3mcp5testss_37test_mcp_connection_get_tools_version
FN:1563,_RNvNtNtCsa6QFEuJDwzK_9flexorama3mcp5testss_37test_mcp_manager_new_with_config_path
FN:1939,_RNvNtNtCsa6QFEuJDwzK_9flexorama3mcp5testss_37test_mcp_response_error_serialization
FN:1344,_RNvNtNtCsa6QFEuJDwzK_9flexorama3mcp5testss_39test_mcp_response_error_deserialization
FN:1923,_RNvNtNtCsa6QFEuJDwzK_9flexorama3mcp5testss_39test_mcp_response_success_serialization
FN:1798,_RNvNtNtCsa6QFEuJDwzK_9flexorama3mcp5testss_40test_mcp_manager_call_tool_not_connected
FN:1632,_RNvNtNtCsa6QFEuJDwzK_9flexorama3mcp5testss_40test_mcp_manager_get_tools_version_empty
FN:1274,_RNvNtNtCsa6QFEuJDwzK_9flexorama3mcp5testss_40test_mcp_request_call_tool_serialization
FN:1388,_RNvNtNtCsa6QFEuJDwzK_9flexorama3mcp5testss_40test_mcp_tool_deserialization_camel_case
FN:1411,_RNvNtNtCsa6QFEuJDwzK_9flexorama3mcp5testss_40test_mcp_tool_deserialization_snake_case
FN:1972,_RNvNtNtCsa6QFEuJDwzK_9flexorama3mcp5testss_41test_mcp_connection_disconnect_no_process
FN:1230,_RNvNtNtCsa6QFEuJDwzK_9flexorama3mcp5testss_41test_mcp_request_initialize_serialization
FN:1260,_RNvNtNtCsa6QFEuJDwzK_9flexorama3mcp5testss_41test_mcp_request_list_tools_serialization
FN:1327,_RNvNtNtCsa6QFEuJDwzK_9flexorama3mcp5testss_41test_mcp_response_success_deserialization
FN:1809,_RNvNtNtCsa6QFEuJDwzK_9flexorama3mcp5testss_42test_mcp_client_capabilities_serialization
FN:1312,_RNvNtNtCsa6QFEuJDwzK_9flexorama3mcp5testss_42test_mcp_request_initialized_serialization
FN:1485,_RNvNtNtCsa6QFEuJDwzK_9flexorama3mcp5testss_43test_mcp_connection_tools_version_increment
FN:1639,_RNvNtNtCsa6QFEuJDwzK_9flexorama3mcp5testss_51test_mcp_manager_get_tools_version_with_connections
FN:299,_RNCNCNCNvMNtCsa6QFEuJDwzK_9flexorama3mcpNtB8_13McpConnection13connect_stdio0s1_00Ba_
FN:306,_RNCNCNCNvMNtCsa6QFEuJDwzK_9flexorama3mcpNtB8_13McpConnection13connect_stdio0s1_0s0_0Ba_
FN:273,_RNCNCNCNvMNtCsa6QFEuJDwzK_9flexorama3mcpNtB8_13McpConnection13connect_stdio0s1_0s1_0Ba_
FN:294,_RNCNCNCNvMNtCsa6QFEuJDwzK_9flexorama3mcpNtB8_13McpConnection13connect_stdio0s1_0s2_0Ba_
FN:326,_RNCNCNCNvMNtCsa6QFEuJDwzK_9flexorama3mcpNtB8_13McpConnection13connect_stdio0s1_0s3_0Ba_
FN:305,_RNCNCNCNvMNtCsa6QFEuJDwzK_9flexorama3mcpNtB8_13McpConnection13connect_stdio0s1_0s_0Ba_
FN:644,_RNCNCNvMNtCsa6QFEuJDwzK_9flexorama3mcpNtB6_13McpConnection10load_tools00B8_
FN:651,_RNCNCNvMNtCsa6QFEuJDwzK_9flexorama3mcpNtB6_13McpConnection10load_tools0s0_0B8_
FN:590,_RNCNCNvMNtCsa6QFEuJDwzK_9flexorama3mcpNtB6_13McpConnection10load_tools0s1_0B8_
FN:598,_RNCNCNvMNtCsa6QFEuJDwzK_9flexorama3mcpNtB6_13McpConnection10load_tools0s2_0B8_
FN:609,_RNCNCNvMNtCsa6QFEuJDwzK_9flexorama3mcpNtB6_13McpConnection10load_tools0s3_0B8_
FN:629,_RNCNCNvMNtCsa6QFEuJDwzK_9flexorama3mcpNtB6_13McpConnection10load_tools0s4_0B8_
FN:640,_RNCNCNvMNtCsa6QFEuJDwzK_9flexorama3mcpNtB6_13McpConnection10load_tools0s5_0B8_
FN:650,_RNCNCNvMNtCsa6QFEuJDwzK_9flexorama3mcpNtB6_13McpConnection10load_tools0s_0B8_
FN:809,_RNCNCNvMNtCsa6QFEuJDwzK_9flexorama3mcpNtB6_13McpConnection12send_request00B8_
FN:810,_RNCNCNvMNtCsa6QFEuJDwzK_9flexorama3mcpNtB6_13McpConnection12send_request0s_0B8_
FN:221,_RNCNCNvMNtCsa6QFEuJDwzK_9flexorama3mcpNtB6_13McpConnection13connect_stdio00B8_
FN:230,_RNCNCNvMNtCsa6QFEuJDwzK_9flexorama3mcpNtB6_13McpConnection13connect_stdio0s0_0B8_
FN:243,_RNCNCNvMNtCsa6QFEuJDwzK_9flexorama3mcpNtB6_13McpConnection13connect_stdio0s1_0B8_
FN:226,_RNCNCNvMNtCsa6QFEuJDwzK_9flexorama3mcpNtB6_13McpConnection13connect_stdio0s_0B8_
FN:152,_RNCNCNvMNtCsa6QFEuJDwzK_9flexorama3mcpNtB6_13McpConnection16log_tool_detailss2_00B8_
FN:738,_RNCNCNvMNtCsa6QFEuJDwzK_9flexorama3mcpNtB6_13McpConnection9call_tool00B8_
FN:775,_RNCNCNvMNtCsa6QFEuJDwzK_9flexorama3mcpNtB6_13McpConnection9call_tool0s_0B8_
FN:972,_RNCNCNvMs_NtCsa6QFEuJDwzK_9flexorama3mcpNtB8_10McpManager14connect_server00Ba_
FN:902,_RNCNCNvMs_NtCsa6QFEuJDwzK_9flexorama3mcpNtB8_10McpManager19save_to_config_file00Ba_
FN:846,_RNCNvMNtCsa6QFEuJDwzK_9flexorama3mcpNtB4_13McpConnection10disconnect0B6_
FN:477,_RNCNvMNtCsa6QFEuJDwzK_9flexorama3mcpNtB4_13McpConnection10initialize0B6_
FN:520,_RNCNvMNtCsa6QFEuJDwzK_9flexorama3mcpNtB4_13McpConnection10load_tools0B6_
FN:782,_RNCNvMNtCsa6QFEuJDwzK_9flexorama3mcpNtB4_13McpConnection12send_request0B6_
FN:181,_RNCNvMNtCsa6QFEuJDwzK_9flexorama3mcpNtB4_13McpConnection13connect_stdio0B6_
FN:135,_RNCNvMNtCsa6QFEuJDwzK_9flexorama3mcpNtB4_13McpConnection16log_tool_details0B6_
FN:147,_RNCNvMNtCsa6QFEuJDwzK_9flexorama3mcpNtB4_13McpConnection16log_tool_detailss0_0B6_
FN:151,_RNCNvMNtCsa6QFEuJDwzK_9flexorama3mcpNtB4_13McpConnection16log_tool_detailss1_0B6_
FN:152,_RNCNvMNtCsa6QFEuJDwzK_9flexorama3mcpNtB4_13McpConnection16log_tool_detailss2_0B6_
FN:172,_RNCNvMNtCsa6QFEuJDwzK_9flexorama3mcpNtB4_13McpConnection16log_tool_detailss3_0B6_
FN:143,_RNCNvMNtCsa6QFEuJDwzK_9flexorama3mcpNtB4_13McpConnection16log_tool_detailss_0B6_
FN:466,_RNCNvMNtCsa6QFEuJDwzK_9flexorama3mcpNtB4_13McpConnection17connect_websocket0B6_
FN:421,_RNCNvMNtCsa6QFEuJDwzK_9flexorama3mcpNtB4_13McpConnection17get_tools_version0B6_
FN:815,_RNCNvMNtCsa6QFEuJDwzK_9flexorama3mcpNtB4_13McpConnection17send_notification0B6_
FN:426,_RNCNvMNtCsa6QFEuJDwzK_9flexorama3mcpNtB4_13McpConnection19find_npx_on_windows0B6_
FN:707,_RNCNvMNtCsa6QFEuJDwzK_9flexorama3mcpNtB4_13McpConnection9call_tool0B6_
FN:836,_RNCNvMNtCsa6QFEuJDwzK_9flexorama3mcpNtB4_13McpConnection9get_tools0B6_
FN:926,_RNCNvMs_NtCsa6QFEuJDwzK_9flexorama3mcpNtB6_10McpManager10add_server0B8_
FN:921,_RNCNvMs_NtCsa6QFEuJDwzK_9flexorama3mcpNtB6_10McpManager10get_server0B8_
FN:886,_RNCNvMs_NtCsa6QFEuJDwzK_9flexorama3mcpNtB6_10McpManager10initialize0B8_
FN:917,_RNCNvMs_NtCsa6QFEuJDwzK_9flexorama3mcpNtB6_10McpManager11load_config0B8_
FN:1092,_RNCNvMs_NtCsa6QFEuJDwzK_9flexorama3mcpNtB6_10McpManager12is_connected0B8_
FN:1053,_RNCNvMs_NtCsa6QFEuJDwzK_9flexorama3mcpNtB6_10McpManager12list_servers0B8_
FN:1066,_RNCNvMs_NtCsa6QFEuJDwzK_9flexorama3mcpNtB6_10McpManager13get_all_tools0B8_
FN:934,_RNCNvMs_NtCsa6QFEuJDwzK_9flexorama3mcpNtB6_10McpManager13remove_server0B8_
FN:949,_RNCNvMs_NtCsa6QFEuJDwzK_9flexorama3mcpNtB6_10McpManager13upsert_server0B8_
FN:967,_RNCNvMs_NtCsa6QFEuJDwzK_9flexorama3mcpNtB6_10McpManager14connect_server0B8_
FN:1080,_RNCNvMs_NtCsa6QFEuJDwzK_9flexorama3mcpNtB6_10McpManager14disconnect_all0B8_
FN:1047,_RNCNvMs_NtCsa6QFEuJDwzK_9flexorama3mcpNtB6_10McpManager16reconnect_server0B8_
FN:1038,_RNCNvMs_NtCsa6QFEuJDwzK_9flexorama3mcpNtB6_10McpManager17disconnect_server0B8_
FN:1098,_RNCNvMs_NtCsa6QFEuJDwzK_9flexorama3mcpNtB6_10McpManager17get_tools_version0B8_
FN:1123,_RNCNvMs_NtCsa6QFEuJDwzK_9flexorama3mcpNtB6_10McpManager19connect_all_enabled0B8_
FN:896,_RNCNvMs_NtCsa6QFEuJDwzK_9flexorama3mcpNtB6_10McpManager19save_to_config_file0B8_
FN:1114,_RNCNvMs_NtCsa6QFEuJDwzK_9flexorama3mcpNtB6_10McpManager9call_tool0B8_
FNDA:0,_RNvMNtCsa6QFEuJDwzK_9flexorama3mcpNtB2_13McpConnection19find_npx_on_windows
FNDA:2,_RNCNCNvNtNtCsa6QFEuJDwzK_9flexorama3mcp5testss_29test_mcp_manager_list_servers00B9_
FNDA:1,_RNCNCNvNtNtCsa6QFEuJDwzK_9flexorama3mcp5testss_29test_mcp_manager_list_servers0s_0B9_
FNDA:1,_RNCNCNvNtNtCsa6QFEuJDwzK_9flexorama3mcp5testss_30test_mcp_manager_get_all_tools00B9_
FNDA:3,_RNCNCNvNtNtCsa6QFEuJDwzK_9flexorama3mcp5testss_30test_mcp_manager_get_all_tools0s0_0B9_
FNDA:2,_RNCNCNvNtNtCsa6QFEuJDwzK_9flexorama3mcp5testss_30test_mcp_manager_get_all_tools0s_0B9_
FNDA:10,_RNCNvNtNtCsa6QFEuJDwzK_9flexorama3mcp5testss_23test_next_id_sequential0B7_
FNDA:1,_RNCNvNtNtCsa6QFEuJDwzK_9flexorama3mcp5testss_27test_mcp_manager_get_server0B7_
FNDA:1,_RNCNvNtNtCsa6QFEuJDwzK_9flexorama3mcp5testss_27test_mcp_manager_initialize0B7_
FNDA:1,_RNCNvNtNtCsa6QFEuJDwzK_9flexorama3mcp5testss_29test_mcp_manager_is_connected0B7_
FNDA:1,_RNCNvNtNtCsa6QFEuJDwzK_9flexorama3mcp5testss_29test_mcp_manager_list_servers0B7_
FNDA:1,_RNCNvNtNtCsa6QFEuJDwzK_9flexorama3mcp5testss_30test_mcp_manager_get_all_tools0B7_
FNDA:1,_RNCNvNtNtCsa6QFEuJDwzK_9flexorama3mcp5testss_31test_mcp_manager_disconnect_all0B7_
FNDA:1,_RNCNvNtNtCsa6QFEuJDwzK_9flexorama3mcp5testss_35test_mcp_connection_get_tools_empty0B7_
FNDA:1,_RNCNvNtNtCsa6QFEuJDwzK_9flexorama3mcp5testss_35test_mcp_manager_list_servers_empty0B7_
FNDA:1,_RNCNvNtNtCsa6QFEuJDwzK_9flexorama3mcp5testss_36test_mcp_manager_get_all_tools_empty0B7_
FNDA:1,_RNCNvNtNtCsa6QFEuJDwzK_9flexorama3mcp5testss_37test_mcp_connection_get_tools_version0B7_
FNDA:1,_RNCNvNtNtCsa6QFEuJDwzK_9flexorama3mcp5testss_40test_mcp_manager_call_tool_not_connected0B7_
FNDA:1,_RNCNvNtNtCsa6QFEuJDwzK_9flexorama3mcp5testss_40test_mcp_manager_get_tools_version_empty0B7_
FNDA:1,_RNCNvNtNtCsa6QFEuJDwzK_9flexorama3mcp5testss_41test_mcp_connection_disconnect_no_process0B7_
FNDA:1,_RNCNvNtNtCsa6QFEuJDwzK_9flexorama3mcp5testss_43test_mcp_connection_tools_version_increment0B7_
FNDA:1,_RNCNvNtNtCsa6QFEuJDwzK_9flexorama3mcp5testss_51test_mcp_manager_get_tools_version_with_connections0B7_
FNDA:3,_RNvMNtCsa6QFEuJDwzK_9flexorama3mcpNtB2_13McpConnection10disconnect
FNDA:0,_RNvMNtCsa6QFEuJDwzK_9flexorama3mcpNtB2_13McpConnection10initialize
FNDA:0,_RNvMNtCsa6QFEuJDwzK_9flexorama3mcpNtB2_13McpConnection10load_tools
FNDA:0,_RNvMNtCsa6QFEuJDwzK_9flexorama3mcpNtB2_13McpConnection12send_request
FNDA:0,_RNvMNtCsa6QFEuJDwzK_9flexorama3mcpNtB2_13McpConnection13connect_stdio
FNDA:3,_RNvMNtCsa6QFEuJDwzK_9flexorama3mcpNtB2_13McpConnection16log_tool_details
FNDA:0,_RNvMNtCsa6QFEuJDwzK_9flexorama3mcpNtB2_13McpConnection17connect_websocket
FNDA:5,_RNvMNtCsa6QFEuJDwzK_9flexorama3mcpNtB2_13McpConnection17get_tools_version
FNDA:0,_RNvMNtCsa6QFEuJDwzK_9flexorama3mcpNtB2_13McpConnection17send_notification
FNDA:17,_RNvMNtCsa6QFEuJDwzK_9flexorama3mcpNtB2_13McpConnection3new
FNDA:13,_RNvMNtCsa6QFEuJDwzK_9flexorama3mcpNtB2_13McpConnection7next_id
FNDA:0,_RNvMNtCsa6QFEuJDwzK_9flexorama3mcpNtB2_13McpConnection9call_tool
FNDA:3,_RNvMNtCsa6QFEuJDwzK_9flexorama3mcpNtB2_13McpConnection9get_tools
FNDA:0,_RNvMs_NtCsa6QFEuJDwzK_9flexorama3mcpNtB4_10McpManager10add_server
FNDA:5,_RNvMs_NtCsa6QFEuJDwzK_9flexorama3mcpNtB4_10McpManager10get_server
FNDA:3,_RNvMs_NtCsa6QFEuJDwzK_9flexorama3mcpNtB4_10McpManager10initialize
FNDA:1,_RNvMs_NtCsa6QFEuJDwzK_9flexorama3mcpNtB4_10McpManager11load_config
FNDA:7,_RNvMs_NtCsa6QFEuJDwzK_9flexorama3mcpNtB4_10McpManager12is_connected
FNDA:4,_RNvMs_NtCsa6QFEuJDwzK_9flexorama3mcpNtB4_10McpManager12list_servers
FNDA:3,_RNvMs_NtCsa6QFEuJDwzK_9flexorama3mcpNtB4_10McpManager13get_all_tools
FNDA:1,_RNvMs_NtCsa6QFEuJDwzK_9flexorama3mcpNtB4_10McpManager13remove_server
FNDA:3,_RNvMs_NtCsa6QFEuJDwzK_9flexorama3mcpNtB4_10McpManager13upsert_server
FNDA:0,_RNvMs_NtCsa6QFEuJDwzK_9flexorama3mcpNtB4_10McpManager14connect_server
FNDA:1,_RNvMs_NtCsa6QFEuJDwzK_9flexorama3mcpNtB4_10McpManager14disconnect_all
FNDA:0,_RNvMs_NtCsa6QFEuJDwzK_9flexorama3mcpNtB4_10McpManager16reconnect_server
FNDA:5,_RNvMs_NtCsa6QFEuJDwzK_9flexorama3mcpNtB4_10McpManager17disconnect_server
FNDA:2,_RNvMs_NtCsa6QFEuJDwzK_9flexorama3mcpNtB4_10McpManager17get_tools_version
FNDA:0,_RNvMs_NtCsa6QFEuJDwzK_9flexorama3mcpNtB4_10McpManager19connect_all_enabled
FNDA:4,_RNvMs_NtCsa6QFEuJDwzK_9flexorama3mcpNtB4_10McpManager19save_to_config_file
FNDA:41,_RNvMs_NtCsa6QFEuJDwzK_9flexorama3mcpNtB4_10McpManager20new_with_config_path
FNDA:31,_RNvMs_NtCsa6QFEuJDwzK_9flexorama3mcpNtB4_10McpManager3new
FNDA:2,_RNvMs_NtCsa6QFEuJDwzK_9flexorama3mcpNtB4_10McpManager9call_tool
FNDA:1,_RNvXs0_NtCsa6QFEuJDwzK_9flexorama3mcpNtB5_10McpManagerNtNtCs3XFJfFEDSOQ_4core7default7Default7default
FNDA:1,_RNvNtNtCsa6QFEuJDwzK_9flexorama3mcp5tests15temp_config_dir
FNDA:4,_RNvNtNtCsa6QFEuJDwzK_9flexorama3mcp5tests18test_server_config
FNDA:1,_RNvNtNtCsa6QFEuJDwzK_9flexorama3mcp5testss_20test_mcp_manager_new
FNDA:1,_RNvNtNtCsa6QFEuJDwzK_9flexorama3mcp5testss_21test_log_tool_details
FNDA:1,_RNvNtNtCsa6QFEuJDwzK_9flexorama3mcp5testss_22test_mcp_error_no_data
FNDA:1,_RNvNtNtCsa6QFEuJDwzK_9flexorama3mcp5testss_23test_mcp_connection_new
FNDA:1,_RNvNtNtCsa6QFEuJDwzK_9flexorama3mcp5testss_23test_next_id_sequential
FNDA:1,_RNvNtNtCsa6QFEuJDwzK_9flexorama3mcp5testss_24test_mcp_error_with_data
FNDA:1,_RNvNtNtCsa6QFEuJDwzK_9flexorama3mcp5testss_24test_mcp_manager_default
FNDA:1,_RNvNtNtCsa6QFEuJDwzK_9flexorama3mcp5testss_27test_mcp_connection_next_id
FNDA:1,_RNvNtNtCsa6QFEuJDwzK_9flexorama3mcp5testss_27test_mcp_manager_get_server
FNDA:1,_RNvNtNtCsa6QFEuJDwzK_9flexorama3mcp5testss_27test_mcp_manager_initialize
FNDA:1,_RNvNtNtCsa6QFEuJDwzK_9flexorama3mcp5testss_28test_mcp_error_serialization
FNDA:1,_RNvNtNtCsa6QFEuJDwzK_9flexorama3mcp5testss_28test_mcp_tool_complex_schema
FNDA:1,_RNvNtNtCsa6QFEuJDwzK_9flexorama3mcp5testss_28test_mcp_tool_no_description
FNDA:1,_RNvNtNtCsa6QFEuJDwzK_9flexorama3mcp5testss_29test_mcp_manager_is_connected
FNDA:1,_RNvNtNtCsa6QFEuJDwzK_9flexorama3mcp5testss_29test_mcp_manager_list_servers
FNDA:1,_RNvNtNtCsa6QFEuJDwzK_9flexorama3mcp5testss_30test_mcp_manager_get_all_tools
FNDA:1,_RNvNtNtCsa6QFEuJDwzK_9flexorama3mcp5testss_30test_mcp_tool_empty_properties
FNDA:1,_RNvNtNtCsa6QFEuJDwzK_9flexorama3mcp5testss_31test_mcp_manager_disconnect_all
FNDA:1,_RNvNtNtCsa6QFEuJDwzK_9flexorama3mcp5testss_34test_mcp_client_info_serialization
FNDA:1,_RNvNtNtCsa6QFEuJDwzK_9flexorama3mcp5testss_35test_mcp_connection_get_tools_empty
FNDA:1,_RNvNtNtCsa6QFEuJDwzK_9flexorama3mcp5testss_35test_mcp_manager_list_servers_empty
FNDA:1,_RNvNtNtCsa6QFEuJDwzK_9flexorama3mcp5testss_35test_mcp_request_ping_serialization
FNDA:1,_RNvNtNtCsa6QFEuJDwzK_9flexorama3mcp5testss_36test_log_tool_details_invalid_schema
FNDA:1,_RNvNtNtCsa6QFEuJDwzK_9flexorama3mcp5testss_36test_log_tool_details_no_description
FNDA:1,_RNvNtNtCsa6QFEuJDwzK_9flexorama3mcp5testss_36test_mcp_manager_get_all_tools_empty
FNDA:1,_RNvNtNtCsa6QFEuJDwzK_9flexorama3mcp5testss_37test_mcp_client_capabilities_no_tools
FNDA:1,_RNvNtNtCsa6QFEuJDwzK_9flexorama3mcp5testss_37test_mcp_connection_get_tools_version
FNDA:1,_RNvNtNtCsa6QFEuJDwzK_9flexorama3mcp5testss_37test_mcp_manager_new_with_config_path
FNDA:1,_RNvNtNtCsa6QFEuJDwzK_9flexorama3mcp5testss_37test_mcp_response_error_serialization
FNDA:1,_RNvNtNtCsa6QFEuJDwzK_9flexorama3mcp5testss_39test_mcp_response_error_deserialization
FNDA:1,_RNvNtNtCsa6QFEuJDwzK_9flexorama3mcp5testss_39test_mcp_response_success_serialization
FNDA:1,_RNvNtNtCsa6QFEuJDwzK_9flexorama3mcp5testss_40test_mcp_manager_call_tool_not_connected
FNDA:1,_RNvNtNtCsa6QFEuJDwzK_9flexorama3mcp5testss_40test_mcp_manager_get_tools_version_empty
FNDA:1,_RNvNtNtCsa6QFEuJDwzK_9flexorama3mcp5testss_40test_mcp_request_call_tool_serialization
FNDA:1,_RNvNtNtCsa6QFEuJDwzK_9flexorama3mcp5testss_40test_mcp_tool_deserialization_camel_case
FNDA:1,_RNvNtNtCsa6QFEuJDwzK_9flexorama3mcp5testss_40test_mcp_tool_deserialization_snake_case
FNDA:1,_RNvNtNtCsa6QFEuJDwzK_9flexorama3mcp5testss_41test_mcp_connection_disconnect_no_process
FNDA:1,_RNvNtNtCsa6QFEuJDwzK_9flexorama3mcp5testss_41test_mcp_request_initialize_serialization
FNDA:1,_RNvNtNtCsa6QFEuJDwzK_9flexorama3mcp5testss_41test_mcp_request_list_tools_serialization
FNDA:1,_RNvNtNtCsa6QFEuJDwzK_9flexorama3mcp5testss_41test_mcp_response_success_deserialization
FNDA:1,_RNvNtNtCsa6QFEuJDwzK_9flexorama3mcp5testss_42test_mcp_client_capabilities_serialization
FNDA:1,_RNvNtNtCsa6QFEuJDwzK_9flexorama3mcp5testss_42test_mcp_request_initialized_serialization
FNDA:1,_RNvNtNtCsa6QFEuJDwzK_9flexorama3mcp5testss_43test_mcp_connection_tools_version_increment
FNDA:1,_RNvNtNtCsa6QFEuJDwzK_9flexorama3mcp5testss_51test_mcp_manager_get_tools_version_with_connections
FNDA:0,_RNCNCNCNvMNtCsa6QFEuJDwzK_9flexorama3mcpNtB8_13McpConnection13connect_stdio0s1_00Ba_
FNDA:0,_RNCNCNCNvMNtCsa6QFEuJDwzK_9flexorama3mcpNtB8_13McpConnection13connect_stdio0s1_0s0_0Ba_
FNDA:0,_RNCNCNCNvMNtCsa6QFEuJDwzK_9flexorama3mcpNtB8_13McpConnection13connect_stdio0s1_0s1_0Ba_
FNDA:0,_RNCNCNCNvMNtCsa6QFEuJDwzK_9flexorama3mcpNtB8_13McpConnection13connect_stdio0s1_0s2_0Ba_
FNDA:0,_RNCNCNCNvMNtCsa6QFEuJDwzK_9flexorama3mcpNtB8_13McpConnection13connect_stdio0s1_0s3_0Ba_
FNDA:0,_RNCNCNCNvMNtCsa6QFEuJDwzK_9flexorama3mcpNtB8_13McpConnection13connect_stdio0s1_0s_0Ba_
FNDA:0,_RNCNCNvMNtCsa6QFEuJDwzK_9flexorama3mcpNtB6_13McpConnection10load_tools00B8_
FNDA:0,_RNCNCNvMNtCsa6QFEuJDwzK_9flexorama3mcpNtB6_13McpConnection10load_tools0s0_0B8_
FNDA:0,_RNCNCNvMNtCsa6QFEuJDwzK_9flexorama3mcpNtB6_13McpConnection10load_tools0s1_0B8_
FNDA:0,_RNCNCNvMNtCsa6QFEuJDwzK_9flexorama3mcpNtB6_13McpConnection10load_tools0s2_0B8_
FNDA:0,_RNCNCNvMNtCsa6QFEuJDwzK_9flexorama3mcpNtB6_13McpConnection10load_tools0s3_0B8_
FNDA:0,_RNCNCNvMNtCsa6QFEuJDwzK_9flexorama3mcpNtB6_13McpConnection10load_tools0s4_0B8_
FNDA:0,_RNCNCNvMNtCsa6QFEuJDwzK_9flexorama3mcpNtB6_13McpConnection10load_tools0s5_0B8_
FNDA:0,_RNCNCNvMNtCsa6QFEuJDwzK_9flexorama3mcpNtB6_13McpConnection10load_tools0s_0B8_
FNDA:0,_RNCNCNvMNtCsa6QFEuJDwzK_9flexorama3mcpNtB6_13McpConnection12send_request00B8_
FNDA:0,_RNCNCNvMNtCsa6QFEuJDwzK_9flexorama3mcpNtB6_13McpConnection12send_request0s_0B8_
FNDA:0,_RNCNCNvMNtCsa6QFEuJDwzK_9flexorama3mcpNtB6_13McpConnection13connect_stdio00B8_
FNDA:0,_RNCNCNvMNtCsa6QFEuJDwzK_9flexorama3mcpNtB6_13McpConnection13connect_stdio0s0_0B8_
FNDA:0,_RNCNCNvMNtCsa6QFEuJDwzK_9flexorama3mcpNtB6_13McpConnection13connect_stdio0s1_0B8_
FNDA:0,_RNCNCNvMNtCsa6QFEuJDwzK_9flexorama3mcpNtB6_13McpConnection13connect_stdio0s_0B8_
FNDA:2,_RNCNCNvMNtCsa6QFEuJDwzK_9flexorama3mcpNtB6_13McpConnection16log_tool_detailss2_00B8_
FNDA:0,_RNCNCNvMNtCsa6QFEuJDwzK_9flexorama3mcpNtB6_13McpConnection9call_tool00B8_
FNDA:0,_RNCNCNvMNtCsa6QFEuJDwzK_9flexorama3mcpNtB6_13McpConnection9call_tool0s_0B8_
FNDA:0,_RNCNCNvMs_NtCsa6QFEuJDwzK_9flexorama3mcpNtB8_10McpManager14connect_server00Ba_
FNDA:4,_RNCNCNvMs_NtCsa6QFEuJDwzK_9flexorama3mcpNtB8_10McpManager19save_to_config_file00Ba_
FNDA:3,_RNCNvMNtCsa6QFEuJDwzK_9flexorama3mcpNtB4_13McpConnection10disconnect0B6_
FNDA:0,_RNCNvMNtCsa6QFEuJDwzK_9flexorama3mcpNtB4_13McpConnection10initialize0B6_
FNDA:0,_RNCNvMNtCsa6QFEuJDwzK_9flexorama3mcpNtB4_13McpConnection10load_tools0B6_
FNDA:0,_RNCNvMNtCsa6QFEuJDwzK_9flexorama3mcpNtB4_13McpConnection12send_request0B6_
FNDA:0,_RNCNvMNtCsa6QFEuJDwzK_9flexorama3mcpNtB4_13McpConnection13connect_stdio0B6_
FNDA:2,_RNCNvMNtCsa6QFEuJDwzK_9flexorama3mcpNtB4_13McpConnection16log_tool_details0B6_
FNDA:2,_RNCNvMNtCsa6QFEuJDwzK_9flexorama3mcpNtB4_13McpConnection16log_tool_detailss0_0B6_
FNDA:2,_RNCNvMNtCsa6QFEuJDwzK_9flexorama3mcpNtB4_13McpConnection16log_tool_detailss1_0B6_
FNDA:2,_RNCNvMNtCsa6QFEuJDwzK_9flexorama3mcpNtB4_13McpConnection16log_tool_detailss2_0B6_
FNDA:0,_RNCNvMNtCsa6QFEuJDwzK_9flexorama3mcpNtB4_13McpConnection16log_tool_detailss3_0B6_
FNDA:2,_RNCNvMNtCsa6QFEuJDwzK_9flexorama3mcpNtB4_13McpConnection16log_tool_detailss_0B6_
FNDA:0,_RNCNvMNtCsa6QFEuJDwzK_9flexorama3mcpNtB4_13McpConnection17connect_websocket0B6_
FNDA:5,_RNCNvMNtCsa6QFEuJDwzK_9flexorama3mcpNtB4_13McpConnection17get_tools_version0B6_
FNDA:0,_RNCNvMNtCsa6QFEuJDwzK_9flexorama3mcpNtB4_13McpConnection17send_notification0B6_
FNDA:0,_RNCNvMNtCsa6QFEuJDwzK_9flexorama3mcpNtB4_13McpConnection19find_npx_on_windows0B6_
FNDA:0,_RNCNvMNtCsa6QFEuJDwzK_9flexorama3mcpNtB4_13McpConnection9call_tool0B6_
FNDA:3,_RNCNvMNtCsa6QFEuJDwzK_9flexorama3mcpNtB4_13McpConnection9get_tools0B6_
FNDA:0,_RNCNvMs_NtCsa6QFEuJDwzK_9flexorama3mcpNtB6_10McpManager10add_server0B8_
FNDA:5,_RNCNvMs_NtCsa6QFEuJDwzK_9flexorama3mcpNtB6_10McpManager10get_server0B8_
FNDA:3,_RNCNvMs_NtCsa6QFEuJDwzK_9flexorama3mcpNtB6_10McpManager10initialize0B8_
FNDA:1,_RNCNvMs_NtCsa6QFEuJDwzK_9flexorama3mcpNtB6_10McpManager11load_config0B8_
FNDA:7,_RNCNvMs_NtCsa6QFEuJDwzK_9flexorama3mcpNtB6_10McpManager12is_connected0B8_
FNDA:4,_RNCNvMs_NtCsa6QFEuJDwzK_9flexorama3mcpNtB6_10McpManager12list_servers0B8_
FNDA:3,_RNCNvMs_NtCsa6QFEuJDwzK_9flexorama3mcpNtB6_10McpManager13get_all_tools0B8_
FNDA:1,_RNCNvMs_NtCsa6QFEuJDwzK_9flexorama3mcpNtB6_10McpManager13remove_server0B8_
FNDA:3,_RNCNvMs_NtCsa6QFEuJDwzK_9flexorama3mcpNtB6_10McpManager13upsert_server0B8_
FNDA:0,_RNCNvMs_NtCsa6QFEuJDwzK_9flexorama3mcpNtB6_10McpManager14connect_server0B8_
FNDA:1,_RNCNvMs_NtCsa6QFEuJDwzK_9flexorama3mcpNtB6_10McpManager14disconnect_all0B8_
FNDA:0,_RNCNvMs_NtCsa6QFEuJDwzK_9flexorama3mcpNtB6_10McpManager16reconnect_server0B8_
FNDA:5,_RNCNvMs_NtCsa6QFEuJDwzK_9flexorama3mcpNtB6_10McpManager17disconnect_server0B8_
FNDA:2,_RNCNvMs_NtCsa6QFEuJDwzK_9flexorama3mcpNtB6_10McpManager17get_tools_version0B8_
FNDA:0,_RNCNvMs_NtCsa6QFEuJDwzK_9flexorama3mcpNtB6_10McpManager19connect_all_enabled0B8_
FNDA:4,_RNCNvMs_NtCsa6QFEuJDwzK_9flexorama3mcpNtB6_10McpManager19save_to_config_file0B8_
FNDA:2,_RNCNvMs_NtCsa6QFEuJDwzK_9flexorama3mcpNtB6_10McpManager9call_tool0B8_
FNF:160
FNH:112
DA:108,17
DA:109,17
DA:110,17
DA:111,17
DA:112,17
DA:113,17
DA:114,17
DA:115,17
DA:116,17
DA:117,17
DA:118,17
DA:119,17
DA:120,17
DA:123,3
DA:124,3
DA:125,3
DA:127,3
DA:128,2
DA:130,1
DA:134,3
DA:135,2
DA:136,2
DA:137,1
DA:139,1
DA:140,3
DA:141,2
DA:142,2
DA:143,2
DA:144,2
DA:145,2
DA:146,2
DA:147,2
DA:148,2
DA:149,2
DA:150,2
DA:151,2
DA:152,2
DA:153,2
DA:155,2
DA:156,2
DA:157,0
DA:163,0
DA:166,1
DA:169,3
DA:170,0
DA:171,0
DA:172,0
DA:174,3
DA:176,0
DA:177,0
DA:178,0
DA:179,0
DA:180,0
DA:181,0
DA:182,0
DA:183,0
DA:184,0
DA:185,0
DA:186,0
DA:189,0
DA:191,0
DA:193,0
DA:194,0
DA:197,0
DA:198,0
DA:199,0
DA:203,0
DA:206,0
DA:207,0
DA:208,0
DA:209,0
DA:210,0
DA:211,0
DA:213,0
DA:214,0
DA:215,0
DA:218,0
DA:220,0
DA:221,0
DA:223,0
DA:224,0
DA:225,0
DA:226,0
DA:227,0
DA:228,0
DA:229,0
DA:230,0
DA:232,0
DA:233,0
DA:234,0
DA:237,0
DA:238,0
DA:239,0
DA:240,0
DA:241,0
DA:243,0
DA:244,0
DA:246,0
DA:248,0
DA:249,0
DA:252,0
DA:253,0
DA:254,0
DA:255,0
DA:257,0
DA:259,0
DA:260,0
DA:261,0
DA:262,0
DA:263,0
DA:264,0
DA:265,0
DA:266,0
DA:268,0
DA:269,0
DA:270,0
DA:272,0
DA:273,0
DA:277,0
DA:278,0
DA:279,0
DA:280,0
DA:281,0
DA:282,0
DA:283,0
DA:285,0
DA:286,0
DA:287,0
DA:288,0
DA:289,0
DA:290,0
DA:292,0
DA:293,0
DA:294,0
DA:297,0
DA:298,0
DA:299,0
DA:301,0
DA:302,0
DA:303,0
DA:304,0
DA:305,0
DA:306,0
DA:307,0
DA:308,0
DA:309,0
DA:310,0
DA:313,0
DA:314,0
DA:315,0
DA:319,0
DA:321,0
DA:322,0
DA:323,0
DA:325,0
DA:326,0
DA:329,0
DA:330,0
DA:332,0
DA:333,0
DA:334,0
DA:337,0
DA:339,0
DA:340,0
DA:343,0
DA:344,0
DA:345,0
DA:347,0
DA:348,0
DA:351,0
DA:353,0
DA:354,0
DA:355,0
DA:356,0
DA:359,0
DA:363,0
DA:366,0
DA:368,0
DA:369,0
DA:374,0
DA:375,0
DA:376,0
DA:377,0
DA:378,0
DA:381,0
DA:382,0
DA:383,0
DA:384,0
DA:387,0
DA:389,0
DA:390,0
DA:393,0
DA:394,0
DA:396,0
DA:397,0
DA:400,0
DA:401,0
DA:402,0
DA:403,0
DA:404,0
DA:409,0
DA:411,0
DA:413,0
DA:415,0
DA:418,0
DA:421,5
DA:422,5
DA:423,5
DA:426,0
DA:428,0
DA:430,0
DA:431,0
DA:435,0
DA:436,0
DA:437,0
DA:440,0
DA:441,0
DA:442,0
DA:444,0
DA:445,0
DA:446,0
DA:447,0
DA:451,0
DA:452,0
DA:453,0
DA:454,0
DA:455,0
DA:456,0
DA:457,0
DA:458,0
DA:459,0
DA:461,0
DA:462,0
DA:463,0
DA:464,0
DA:466,0
DA:467,0
DA:469,0
DA:470,0
DA:473,0
DA:474,0
DA:475,0
DA:477,0
DA:478,0
DA:479,0
DA:480,0
DA:481,0
DA:482,0
DA:483,0
DA:484,0
DA:485,0
DA:486,0
DA:487,0
DA:488,0
DA:489,0
DA:490,0
DA:491,0
DA:492,0
DA:493,0
DA:495,0
DA:497,0
DA:498,0
DA:499,0
DA:500,0
DA:501,0
DA:502,0
DA:505,0
DA:506,0
DA:507,0
DA:508,0
DA:509,0
DA:511,0
DA:514,0
DA:516,0
DA:517,0
DA:518,0
DA:520,0
DA:521,0
DA:523,0
DA:524,0
DA:525,0
DA:526,0
DA:527,0
DA:530,0
DA:531,0
DA:532,0
DA:533,0
DA:534,0
DA:536,0
DA:537,0
DA:538,0
DA:539,0
DA:540,0
DA:543,0
DA:546,0
DA:547,0
DA:550,0
DA:551,0
DA:552,0
DA:553,0
DA:557,0
DA:558,0
DA:559,0
DA:562,0
DA:563,0
DA:565,0
DA:566,0
DA:567,0
DA:568,0
DA:570,0
DA:574,0
DA:575,0
DA:576,0
DA:577,0
DA:579,0
DA:582,0
DA:583,0
DA:585,0
DA:586,0
DA:589,0
DA:590,0
DA:594,0
DA:595,0
DA:596,0
DA:597,0
DA:598,0
DA:600,0
DA:601,0
DA:603,0
DA:605,0
DA:606,0
DA:607,0
DA:608,0
DA:609,0
DA:611,0
DA:612,0
DA:614,0
DA:617,0
DA:620,0
DA:621,0
DA:622,0
DA:623,0
DA:626,0
DA:627,0
DA:628,0
DA:629,0
DA:631,0
DA:632,0
DA:635,0
DA:636,0
DA:638,0
DA:639,0
DA:640,0
DA:643,0
DA:644,0
DA:646,0
DA:647,0
DA:648,0
DA:649,0
DA:650,0
DA:651,0
DA:652,0
DA:653,0
DA:654,0
DA:655,0
DA:658,0
DA:659,0
DA:660,0
DA:661,0
DA:666,0
DA:668,0
DA:669,0
DA:671,0
DA:672,0
DA:673,0
DA:677,0
DA:678,0
DA:679,0
DA:682,0
DA:684,0
DA:685,0
DA:686,0
DA:687,0
DA:688,0
DA:692,0
DA:693,0
DA:698,0
DA:699,0
DA:704,0
DA:705,0
DA:707,0
DA:709,0
DA:710,0
DA:712,0
DA:713,0
DA:714,0
DA:715,0
DA:717,0
DA:718,0
DA:719,0
DA:720,0
DA:721,0
DA:722,0
DA:723,0
DA:724,0
DA:725,0
DA:728,0
DA:731,0
DA:733,0
DA:734,0
DA:735,0
DA:736,0
DA:737,0
DA:738,0
DA:741,0
DA:744,0
DA:747,0
DA:748,0
DA:749,0
DA:750,0
DA:751,0
DA:752,0
DA:753,0
DA:754,0
DA:756,0
DA:758,0
DA:759,0
DA:760,0
DA:763,0
DA:764,0
DA:766,0
DA:767,0
DA:771,0
DA:772,0
DA:773,0
DA:774,0
DA:775,0
DA:777,0
DA:779,0
DA:780,0
DA:782,0
DA:783,0
DA:784,0
DA:786,0
DA:789,0
DA:790,0
DA:793,0
DA:794,0
DA:795,0
DA:796,0
DA:797,0
DA:798,0
DA:800,0
DA:804,0
DA:805,0
DA:806,0
DA:807,0
DA:808,0
DA:809,0
DA:810,0
DA:812,0
DA:813,0
DA:815,0
DA:816,0
DA:818,0
DA:819,0
DA:823,0
DA:824,0
DA:825,0
DA:826,0
DA:827,0
DA:828,0
DA:830,0
DA:833,0
DA:834,0
DA:836,3
DA:837,3
DA:838,3
DA:840,13
DA:841,13
DA:842,13
DA:843,13
DA:844,13
DA:846,3
DA:847,3
DA:848,0
DA:849,3
DA:851,3
DA:852,0
DA:853,3
DA:855,3
DA:856,3
DA:857,3
DA:868,31
DA:869,31
DA:870,31
DA:871,31
DA:872,31
DA:873,31
DA:874,31
DA:877,41
DA:878,41
DA:879,41
DA:880,41
DA:881,41
DA:882,41
DA:883,41
DA:886,3
DA:887,3
DA:888,3
DA:889,0
DA:890,0
DA:892,3
DA:893,3
DA:896,4
DA:899,4
DA:900,4
DA:901,4
DA:902,4
DA:905,4
DA:908,4
DA:909,4
DA:912,4
DA:913,4
DA:914,4
DA:915,4
DA:917,1
DA:918,1
DA:919,1
DA:921,5
DA:922,5
DA:923,5
DA:924,5
DA:926,0
DA:927,0
DA:928,0
DA:929,0
DA:930,0
DA:931,0
DA:932,0
DA:934,1
DA:935,1
DA:936,1
DA:937,1
DA:938,1
DA:941,1
DA:942,1
DA:943,0
DA:944,1
DA:946,1
DA:947,1
DA:949,3
DA:951,3
DA:952,3
DA:953,3
DA:954,3
DA:956,3
DA:959,3
DA:960,3
DA:961,0
DA:962,3
DA:964,3
DA:965,3
DA:967,0
DA:968,0
DA:969,0
DA:970,0
DA:971,0
DA:972,0
DA:974,0
DA:975,0
DA:976,0
DA:978,0
DA:979,0
DA:981,0
DA:982,0
DA:983,0
DA:984,0
DA:985,0
DA:986,0
DA:987,0
DA:988,0
DA:989,0
DA:990,0
DA:991,0
DA:992,0
DA:993,0
DA:995,0
DA:996,0
DA:997,0
DA:999,0
DA:1001,0
DA:1003,0
DA:1004,0
DA:1006,0
DA:1007,0
DA:1008,0
DA:1010,0
DA:1011,0
DA:1012,0
DA:1013,0
DA:1016,0
DA:1017,0
DA:1018,0
DA:1019,0
DA:1020,0
DA:1023,0
DA:1024,0
DA:1025,0
DA:1026,0
DA:1027,0
DA:1028,0
DA:1030,0
DA:1033,0
DA:1035,0
DA:1036,0
DA:1038,5
DA:1039,5
DA:1040,5
DA:1041,2
DA:1042,2
DA:1043,3
DA:1044,5
DA:1045,5
DA:1047,0
DA:1048,0
DA:1049,0
DA:1050,0
DA:1051,0
DA:1053,4
DA:1054,4
DA:1055,4
DA:1057,4
DA:1058,4
DA:1059,2
DA:1060,2
DA:1061,2
DA:1063,4
DA:1064,4
DA:1066,3
DA:1067,3
DA:1068,3
DA:1070,3
DA:1071,2
DA:1072,5
DA:1073,3
DA:1074,3
DA:1077,3
DA:1078,3
DA:1080,1
DA:1081,1
DA:1082,1
DA:1083,1
DA:1085,3
DA:1086,2
DA:1089,1
DA:1090,1
DA:1092,7
DA:1093,7
DA:1094,7
DA:1095,7
DA:1098,2
DA:1099,2
DA:1100,2
DA:1102,2
DA:1103,2
DA:1106,2
DA:1107,2
DA:1109,2
DA:1110,2
DA:1111,2
DA:1112,2
DA:1113,2
DA:1114,2
DA:1115,2
DA:1116,2
DA:1117,0
DA:1119,2
DA:1121,2
DA:1123,0
DA:1124,0
DA:1125,0
DA:1126,0
DA:1128,0
DA:1129,0
DA:1131,0
DA:1132,0
DA:1133,0
DA:1136,0
DA:1137,0
DA:1138,0
DA:1139,0
DA:1140,0
DA:1142,0
DA:1144,0
DA:1145,0
DA:1147,0
DA:1148,0
DA:1149,0
DA:1152,0
DA:1153,0
DA:1154,0
DA:1160,0
DA:1164,0
DA:1165,0
DA:1166,0
DA:1167,0
DA:1168,0
DA:1169,0
DA:1172,0
DA:1174,0
DA:1175,0
DA:1176,0
DA:1177,0
DA:1181,0
DA:1182,0
DA:1183,0
DA:1184,0
DA:1185,0
DA:1186,0
DA:1187,0
DA:1189,0
DA:1190,0
DA:1192,0
DA:1194,0
DA:1195,0
DA:1199,1
DA:1200,1
DA:1201,1
DA:1212,1
DA:1213,1
DA:1214,1
DA:1217,4
DA:1218,4
DA:1219,4
DA:1220,4
DA:1221,4
DA:1222,4
DA:1223,4
DA:1224,4
DA:1225,4
DA:1226,4
DA:1230,1
DA:1231,1
DA:1232,1
DA:1233,1
DA:1234,1
DA:1235,1
DA:1236,1
DA:1237,1
DA:1238,1
DA:1239,1
DA:1240,1
DA:1241,1
DA:1242,1
DA:1243,1
DA:1244,1
DA:1245,1
DA:1246,1
DA:1248,1
DA:1249,1
DA:1250,1
DA:1251,1
DA:1252,1
DA:1253,1
DA:1254,1
DA:1255,1
DA:1257,1
DA:1260,1
DA:1261,1
DA:1262,1
DA:1263,1
DA:1264,1
DA:1265,1
DA:1267,1
DA:1268,1
DA:1269,1
DA:1270,1
DA:1271,1
DA:1274,1
DA:1275,1
DA:1276,1
DA:1277,1
DA:1280,1
DA:1281,1
DA:1282,1
DA:1283,1
DA:1284,1
DA:1285,1
DA:1286,1
DA:1287,1
DA:1289,1
DA:1290,1
DA:1291,1
DA:1292,1
DA:1293,1
DA:1294,1
DA:1295,1
DA:1298,1
DA:1299,1
DA:1300,1
DA:1301,1
DA:1302,1
DA:1303,1
DA:1305,1
DA:1306,1
DA:1307,1
DA:1308,1
DA:1309,1
DA:1312,1
DA:1313,1
DA:1314,1
DA:1315,1
DA:1316,1
DA:1317,1
DA:1319,1
DA:1320,1
DA:1321,1
DA:1322,1
DA:1323,1
DA:1327,1
DA:1328,1
DA:1329,1
DA:1330,1
DA:1331,1
DA:1332,1
DA:1333,1
DA:1334,1
DA:1336,1
DA:1337,1
DA:1338,1
DA:1339,1
DA:1340,1
DA:1341,1
DA:1344,1
DA:1345,1
DA:1346,1
DA:1347,1
DA:1348,1
DA:1349,1
DA:1350,1
DA:1351,1
DA:1352,1
DA:1354,1
DA:1355,1
DA:1356,1
DA:1357,1
DA:1358,1
DA:1360,1
DA:1361,1
DA:1362,1
DA:1363,1
DA:1366,1
DA:1367,1
DA:1368,1
DA:1369,1
DA:1370,1
DA:1371,1
DA:1372,1
DA:1373,1
DA:1374,1
DA:1375,1
DA:1376,1
DA:1377,1
DA:1379,1
DA:1380,1
DA:1381,1
DA:1382,1
DA:1383,1
DA:1384,1
DA:1388,1
DA:1389,1
DA:1390,1
DA:1391,1
DA:1392,1
DA:1393,1
DA:1394,1
DA:1395,1
DA:1396,1
DA:1397,1
DA:1398,1
DA:1399,1
DA:1400,1
DA:1401,1
DA:1402,1
DA:1404,1
DA:1405,1
DA:1406,1
DA:1407,1
DA:1408,1
DA:1411,1
DA:1412,1
DA:1413,1
DA:1414,1
DA:1415,1
DA:1416,1
DA:1417,1
DA:1418,1
DA:1419,1
DA:1420,1
DA:1421,1
DA:1422,1
DA:1423,1
DA:1424,1
DA:1425,1
DA:1426,1
DA:1428,1
DA:1429,1
DA:1430,1
DA:1431,1
DA:1432,1
DA:1435,1
DA:1436,1
DA:1437,1
DA:1438,1
DA:1439,1
DA:1440,1
DA:1441,1
DA:1442,1
DA:1444,1
DA:1445,1
DA:1446,1
DA:1447,1
DA:1451,1
DA:1452,1
DA:1453,1
DA:1454,1
DA:1455,1
DA:1456,1
DA:1457,1
DA:1458,1
DA:1459,1
DA:1462,1
DA:1463,1
DA:1464,1
DA:1465,1
DA:1466,1
DA:1467,1
DA:1468,1
DA:1471,1
DA:1472,1
DA:1473,1
DA:1474,1
DA:1475,1
DA:1478,1
DA:1479,1
DA:1480,1
DA:1481,1
DA:1482,1
DA:1485,1
DA:1486,1
DA:1489,1
DA:1492,1
DA:1493,1
DA:1494,1
DA:1495,1
DA:1496,1
DA:1497,1
DA:1498,1
DA:1501,1
DA:1502,1
DA:1503,1
DA:1504,1
DA:1505,1
DA:1506,1
DA:1507,1
DA:1508,1
DA:1509,1
DA:1510,1
DA:1511,1
DA:1512,1
DA:1513,1
DA:1514,1
DA:1515,1
DA:1516,1
DA:1517,1
DA:1518,1
DA:1519,1
DA:1520,1
DA:1523,1
DA:1524,1
DA:1527,1
DA:1528,1
DA:1529,1
DA:1530,1
DA:1531,1
DA:1532,1
DA:1533,1
DA:1534,1
DA:1535,1
DA:1536,1
DA:1539,1
DA:1540,1
DA:1543,1
DA:1544,1
DA:1545,1
DA:1546,1
DA:1547,1
DA:1548,1
DA:1549,1
DA:1552,1
DA:1553,1
DA:1557,1
DA:1558,1
DA:1559,1
DA:1560,1
DA:1563,1
DA:1564,1
DA:1565,1
DA:1567,1
DA:1568,1
DA:1569,1
DA:1572,1
DA:1573,1
DA:1574,1
DA:1575,1
DA:1578,1
DA:1579,1
DA:1580,1
DA:1581,1
DA:1582,1
DA:1583,1
DA:1585,1
DA:1586,1
DA:1588,1
DA:1589,1
DA:1590,1
DA:1591,1
DA:1594,1
DA:1595,1
DA:1596,1
DA:1597,1
DA:1598,1
DA:1599,1
DA:1601,1
DA:1603,1
DA:1604,1
DA:1605,1
DA:1607,1
DA:1608,1
DA:1609,1
DA:1612,1
DA:1613,1
DA:1616,1
DA:1619,1
DA:1620,1
DA:1621,1
DA:1622,1
DA:1623,1
DA:1624,1
DA:1625,1
DA:1626,1
DA:1627,1
DA:1628,1
DA:1629,1
DA:1632,1
DA:1633,1
DA:1634,1
DA:1635,1
DA:1636,1
DA:1639,1
DA:1640,1
DA:1644,1
DA:1646,1
DA:1648,1
DA:1649,1
DA:1651,1
DA:1653,1
DA:1655,1
DA:1656,1
DA:1658,1
DA:1662,1
DA:1663,1
DA:1664,1
DA:1667,1
DA:1668,1
DA:1669,1
DA:1670,1
DA:1671,1
DA:1674,1
DA:1675,1
DA:1676,1
DA:1678,1
DA:1679,1
DA:1680,1
DA:1682,1
DA:1683,1
DA:1684,1
DA:1685,1
DA:1687,1
DA:1689,1
DA:1690,1
DA:1693,2
DA:1694,1
DA:1696,1
DA:1697,1
DA:1699,1
DA:1700,1
DA:1702,1
DA:1703,1
DA:1704,1
DA:1705,1
DA:1706,1
DA:1709,1
DA:1710,1
DA:1711,1
DA:1712,1
DA:1713,1
DA:1716,1
DA:1717,1
DA:1721,1
DA:1723,1
DA:1725,1
DA:1726,1
DA:1727,1
DA:1728,1
DA:1729,1
DA:1730,1
DA:1731,1
DA:1732,1
DA:1733,1
DA:1734,1
DA:1735,1
DA:1737,1
DA:1739,1
DA:1741,1
DA:1742,1
DA:1743,1
DA:1744,1
DA:1745,1
DA:1746,1
DA:1748,1
DA:1751,1
DA:1752,1
DA:1755,1
DA:1756,2
DA:1757,3
DA:1759,1
DA:1760,1
DA:1761,1
DA:1763,1
DA:1764,1
DA:1765,1
DA:1766,1
DA:1769,1
DA:1770,1
DA:1774,1
DA:1775,1
DA:1776,1
DA:1777,1
DA:1778,1
DA:1779,1
DA:1780,1
DA:1781,1
DA:1782,1
DA:1785,1
DA:1786,1
DA:1789,1
DA:1790,1
DA:1793,1
DA:1794,1
DA:1795,1
DA:1798,1
DA:1799,1
DA:1801,1
DA:1803,1
DA:1804,1
DA:1805,1
DA:1809,1
DA:1810,1
DA:1811,1
DA:1812,1
DA:1813,1
DA:1814,1
DA:1816,1
DA:1817,1
DA:1818,1
DA:1821,1
DA:1822,1
DA:1824,1
DA:1825,1
DA:1826,1
DA:1830,1
DA:1831,1
DA:1832,1
DA:1833,1
DA:1834,1
DA:1836,1
DA:1837,1
DA:1838,1
DA:1839,1
DA:1843,1
DA:1844,1
DA:1845,1
DA:1846,1
DA:1847,1
DA:1848,1
DA:1849,1
DA:1850,1
DA:1851,1
DA:1852,1
DA:1854,1
DA:1855,1
DA:1856,1
DA:1857,1
DA:1858,1
DA:1859,1
DA:1860,1
DA:1863,1
DA:1864,1
DA:1865,1
DA:1866,1
DA:1867,1
DA:1868,1
DA:1869,1
DA:1870,1
DA:1871,1
DA:1872,1
DA:1873,1
DA:1874,1
DA:1875,1
DA:1876,1
DA:1877,1
DA:1878,1
DA:1879,1
DA:1880,1
DA:1881,1
DA:1882,1
DA:1883,1
DA:1884,1
DA:1885,1
DA:1887,1
DA:1888,1
DA:1889,1
DA:1890,1
DA:1891,1
DA:1895,1
DA:1896,1
DA:1897,1
DA:1898,1
DA:1899,1
DA:1900,1
DA:1902,1
DA:1903,1
DA:1904,1
DA:1905,1
DA:1906,1
DA:1909,1
DA:1910,1
DA:1911,1
DA:1912,1
DA:1913,1
DA:1914,1
DA:1916,1
DA:1917,1
DA:1918,1
DA:1919,1
DA:1923,1
DA:1924,1
DA:1925,1
DA:1926,1
DA:1927,1
DA:1928,1
DA:1929,1
DA:1931,1
DA:1932,1
DA:1933,1
DA:1934,1
DA:1935,1
DA:1936,1
DA:1939,1
DA:1940,1
DA:1941,1
DA:1942,1
DA:1943,1
DA:1944,1
DA:1945,1
DA:1946,1
DA:1947,1
DA:1948,1
DA:1949,1
DA:1951,1
DA:1952,1
DA:1953,1
DA:1954,1
DA:1955,1
DA:1956,1
DA:1960,1
DA:1961,1
DA:1963,10
DA:1965,10
DA:1966,10
DA:1968,1
DA:1972,1
DA:1973,1
DA:1974,1
DA:1975,1
DA:1976,1
BRF:0
BRH:0
LF:1400
LH:816
end_of_record
SF:/home/user/flexorama/src/mistral.rs
FN:189,_RNCNCNvMNtCsa6QFEuJDwzK_9flexorama7mistralNtB6_13MistralClient14create_message00B8_
FN:333,_RNCNCNvMNtCsa6QFEuJDwzK_9flexorama7mistralNtB6_13MistralClient21create_message_stream00B8_
FN:340,_RNCNCNvMNtCsa6QFEuJDwzK_9flexorama7mistralNtB6_13MistralClient21create_message_stream0s0_0B8_
FN:334,_RNCNCNvMNtCsa6QFEuJDwzK_9flexorama7mistralNtB6_13MistralClient21create_message_stream0s_0B8_
FN:456,_RNCNCNvNtCsa6QFEuJDwzK_9flexorama7mistral12map_messagess0_00B7_
FN:409,_RNCNvMNtCsa6QFEuJDwzK_9flexorama7mistralNtB4_13MistralClient12map_response0B6_
FN:369,_RNCNvMNtCsa6QFEuJDwzK_9flexorama7mistralNtB4_13MistralClient13build_request0B6_
FN:149,_RNCNvMNtCsa6QFEuJDwzK_9flexorama7mistralNtB4_13MistralClient14create_message0B6_
FN:207,_RNCNvMNtCsa6QFEuJDwzK_9flexorama7mistralNtB4_13MistralClient21create_message_stream0B6_
FN:448,_RNCNvNtCsa6QFEuJDwzK_9flexorama7mistral12map_messages0B5_
FN:453,_RNCNvNtCsa6QFEuJDwzK_9flexorama7mistral12map_messagess0_0B5_
FN:459,_RNCNvNtCsa6QFEuJDwzK_9flexorama7mistral12map_messagess1_0B5_
FN:449,_RNCNvNtCsa6QFEuJDwzK_9flexorama7mistral12map_messagess_0B5_
FN:512,_RNCNvNtCsa6QFEuJDwzK_9flexorama7mistral15parse_arguments0B5_
FN:390,_RNvMNtCsa6QFEuJDwzK_9flexorama7mistralNtB2_13MistralClient12map_response
FN:350,_RNvMNtCsa6QFEuJDwzK_9flexorama7mistralNtB2_13MistralClient13build_request
FN:140,_RNvMNtCsa6QFEuJDwzK_9flexorama7mistralNtB2_13MistralClient14create_message
FN:197,_RNvMNtCsa6QFEuJDwzK_9flexorama7mistralNtB2_13MistralClient21create_message_stream
FN:132,_RNvMNtCsa6QFEuJDwzK_9flexorama7mistralNtB2_13MistralClient3new
FN:420,_RNvNtCsa6QFEuJDwzK_9flexorama7mistral12map_messages
FN:506,_RNvNtCsa6QFEuJDwzK_9flexorama7mistral15parse_arguments
FNDA:0,_RNCNCNvMNtCsa6QFEuJDwzK_9flexorama7mistralNtB6_13MistralClient14create_message00B8_
FNDA:0,_RNCNCNvMNtCsa6QFEuJDwzK_9flexorama7mistralNtB6_13MistralClient21create_message_stream00B8_
FNDA:0,_RNCNCNvMNtCsa6QFEuJDwzK_9flexorama7mistralNtB6_13MistralClient21create_message_stream0s0_0B8_
FNDA:0,_RNCNCNvMNtCsa6QFEuJDwzK_9flexorama7mistralNtB6_13MistralClient21create_message_stream0s_0B8_
FNDA:0,_RNCNCNvNtCsa6QFEuJDwzK_9flexorama7mistral12map_messagess0_00B7_
FNDA:0,_RNCNvMNtCsa6QFEuJDwzK_9flexorama7mistralNtB4_13MistralClient12map_response0B6_
FNDA:0,_RNCNvMNtCsa6QFEuJDwzK_9flexorama7mistralNtB4_13MistralClient13build_request0B6_
FNDA:1,_RNCNvMNtCsa6QFEuJDwzK_9flexorama7mistralNtB4_13MistralClient14create_message0B6_
FNDA:1,_RNCNvMNtCsa6QFEuJDwzK_9flexorama7mistralNtB4_13MistralClient21create_message_stream0B6_
FNDA:0,_RNCNvNtCsa6QFEuJDwzK_9flexorama7mistral12map_messages0B5_
FNDA:0,_RNCNvNtCsa6QFEuJDwzK_9flexorama7mistral12map_messagess0_0B5_
FNDA:0,_RNCNvNtCsa6QFEuJDwzK_9flexorama7mistral12map_messagess1_0B5_
FNDA:0,_RNCNvNtCsa6QFEuJDwzK_9flexorama7mistral12map_messagess_0B5_
FNDA:0,_RNCNvNtCsa6QFEuJDwzK_9flexorama7mistral15parse_arguments0B5_
FNDA:1,_RNvMNtCsa6QFEuJDwzK_9flexorama7mistralNtB2_13MistralClient12map_response
FNDA:2,_RNvMNtCsa6QFEuJDwzK_9flexorama7mistralNtB2_13MistralClient13build_request
FNDA:1,_RNvMNtCsa6QFEuJDwzK_9flexorama7mistralNtB2_13MistralClient14create_message
FNDA:1,_RNvMNtCsa6QFEuJDwzK_9flexorama7mistralNtB2_13MistralClient21create_message_stream
FNDA:2,_RNvMNtCsa6QFEuJDwzK_9flexorama7mistralNtB2_13MistralClient3new
FNDA:2,_RNvNtCsa6QFEuJDwzK_9flexorama7mistral12map_messages
FNDA:0,_RNvNtCsa6QFEuJDwzK_9flexorama7mistral15parse_arguments
FNF:21
FNH:8
DA:132,2
DA:133,2
DA:134,2
DA:135,2
DA:136,2
DA:137,2
DA:138,2
DA:140,1
DA:141,1
DA:142,1
DA:143,1
DA:144,1
DA:145,1
DA:146,1
DA:147,1
DA:148,1
DA:149,1
DA:150,1
DA:151,0
DA:152,1
DA:154,1
DA:155,1
DA:156,1
DA:157,1
DA:158,1
DA:159,1
DA:160,1
DA:163,1
DA:165,1
DA:166,1
DA:167,1
DA:168,1
DA:169,1
DA:170,1
DA:171,1
DA:172,1
DA:173,1
DA:175,1
DA:176,1
DA:178,1
DA:179,0
DA:180,0
DA:181,0
DA:182,0
DA:183,0
DA:184,0
DA:185,0
DA:186,1
DA:188,1
DA:189,1
DA:190,0
DA:191,0
DA:192,0
DA:194,1
DA:195,1
DA:197,1
DA:198,1
DA:199,1
DA:200,1
DA:201,1
DA:202,1
DA:203,1
DA:204,1
DA:205,1
DA:206,1
DA:207,1
DA:208,1
DA:209,0
DA:210,1
DA:212,1
DA:213,1
DA:214,1
DA:215,1
DA:216,1
DA:217,1
DA:218,1
DA:221,1
DA:223,1
DA:224,1
DA:225,1
DA:226,1
DA:227,1
DA:228,1
DA:229,1
DA:230,1
DA:231,1
DA:233,1
DA:234,1
DA:235,0
DA:236,0
DA:237,0
DA:238,0
DA:239,0
DA:240,0
DA:241,0
DA:242,0
DA:243,1
DA:245,1
DA:246,1
DA:247,1
DA:248,1
DA:249,1
DA:251,2
DA:252,1
DA:253,0
DA:254,1
DA:256,1
DA:257,1
DA:258,1
DA:259,1
DA:261,1
DA:262,0
DA:263,0
DA:264,0
DA:266,0
DA:267,0
DA:268,0
DA:269,0
DA:271,0
DA:272,0
DA:274,0
DA:275,0
DA:276,0
DA:277,0
DA:278,0
DA:280,0
DA:281,0
DA:282,0
DA:283,0
DA:284,0
DA:286,0
DA:287,0
DA:288,0
DA:289,0
DA:290,0
DA:291,0
DA:292,0
DA:293,0
DA:294,0
DA:295,0
DA:296,0
DA:297,0
DA:298,0
DA:299,0
DA:300,0
DA:301,0
DA:302,0
DA:304,0
DA:305,0
DA:307,0
DA:308,0
DA:309,0
DA:310,0
DA:312,0
DA:314,0
DA:317,0
DA:319,0
DA:320,0
DA:325,1
DA:326,1
DA:327,0
DA:328,1
DA:330,1
DA:331,0
DA:332,0
DA:333,0
DA:334,0
DA:335,0
DA:336,0
DA:339,1
DA:340,0
DA:341,0
DA:342,0
DA:344,1
DA:345,1
DA:346,1
DA:347,1
DA:348,1
DA:350,2
DA:351,2
DA:352,2
DA:353,2
DA:354,2
DA:355,2
DA:356,2
DA:357,2
DA:358,2
DA:359,2
DA:360,2
DA:362,2
DA:363,2
DA:366,0
DA:367,0
DA:368,0
DA:369,0
DA:370,0
DA:371,0
DA:372,0
DA:373,0
DA:374,0
DA:375,0
DA:376,0
DA:380,2
DA:381,2
DA:382,2
DA:383,2
DA:384,2
DA:385,2
DA:386,2
DA:387,2
DA:388,2
DA:390,1
DA:391,1
DA:393,1
DA:394,1
DA:395,1
DA:396,1
DA:397,1
DA:398,0
DA:400,1
DA:401,0
DA:402,0
DA:403,0
DA:404,0
DA:405,1
DA:406,0
DA:408,1
DA:409,0
DA:410,0
DA:411,0
DA:413,1
DA:414,1
DA:415,1
DA:416,1
DA:417,1
DA:420,2
DA:421,2
DA:423,2
DA:424,0
DA:425,0
DA:426,0
DA:427,0
DA:428,0
DA:429,0
DA:430,2
DA:432,4
DA:433,2
DA:434,2
DA:435,2
DA:437,4
DA:438,2
DA:439,2
DA:440,2
DA:441,2
DA:442,2
DA:444,0
DA:445,0
DA:446,0
DA:447,0
DA:448,0
DA:449,0
DA:450,0
DA:451,0
DA:452,0
DA:453,0
DA:454,0
DA:455,0
DA:456,0
DA:458,0
DA:459,0
DA:460,0
DA:461,0
DA:462,0
DA:463,0
DA:464,0
DA:465,0
DA:466,0
DA:467,0
DA:469,0
DA:470,0
DA:471,0
DA:472,0
DA:473,0
DA:474,0
DA:475,0
DA:476,0
DA:477,0
DA:478,0
DA:480,0
DA:484,2
DA:485,2
DA:486,2
DA:487,2
DA:488,2
DA:489,2
DA:490,2
DA:492,0
DA:494,2
DA:496,0
DA:498,2
DA:499,0
DA:500,2
DA:503,2
DA:504,2
DA:506,0
DA:507,0
DA:508,0
DA:509,0
DA:510,0
DA:512,0
DA:513,0
BRF:0
BRH:0
LF:323
LH:165
end_of_record
SF:/home/user/flexorama/src/ollama.rs
FN:509,_RNvMNtCsa6QFEuJDwzK_9flexorama6ollamaNtB2_12OllamaClient12map_response
FN:468,_RNvMNtCsa6QFEuJDwzK_9flexorama6ollamaNtB2_12OllamaClient13build_request
FN:200,_RNvMNtCsa6QFEuJDwzK_9flexorama6ollamaNtB2_12OllamaClient14create_message
FN:269,_RNvMNtCsa6QFEuJDwzK_9flexorama6ollamaNtB2_12OllamaClient21create_message_stream
FN:147,_RNvMNtCsa6QFEuJDwzK_9flexorama6ollamaNtB2_12OllamaClient22fetch_available_models
FN:114,_RNvMNtCsa6QFEuJDwzK_9flexorama6ollamaNtB2_12OllamaClient3new
FN:556,_RNvNtCsa6QFEuJDwzK_9flexorama6ollama12map_messages
FN:602,_RNvNtCsa6QFEuJDwzK_9flexorama6ollama15parse_arguments
FN:123,_RINvMNtCsa6QFEuJDwzK_9flexorama6ollamaNtB3_12OllamaClient27build_authenticated_requestNtB3_13OllamaRequestEB5_
FN:123,_RINvMNtCsa6QFEuJDwzK_9flexorama6ollamaNtB3_12OllamaClient27build_authenticated_requestuEB5_
FN:226,_RNCNCNvMNtCsa6QFEuJDwzK_9flexorama6ollamaNtB6_12OllamaClient14create_message00B8_
FN:256,_RNCNCNvMNtCsa6QFEuJDwzK_9flexorama6ollamaNtB6_12OllamaClient14create_message0s_0B8_
FN:296,_RNCNCNvMNtCsa6QFEuJDwzK_9flexorama6ollamaNtB6_12OllamaClient21create_message_stream00B8_
FN:438,_RNCNCNvMNtCsa6QFEuJDwzK_9flexorama6ollamaNtB6_12OllamaClient21create_message_stream0s0_0B8_
FN:439,_RNCNCNvMNtCsa6QFEuJDwzK_9flexorama6ollamaNtB6_12OllamaClient21create_message_stream0s1_0B8_
FN:397,_RNCNCNvMNtCsa6QFEuJDwzK_9flexorama6ollamaNtB6_12OllamaClient21create_message_stream0s_0B8_
FN:527,_RNCNvMNtCsa6QFEuJDwzK_9flexorama6ollamaNtB4_12OllamaClient12map_response0B6_
FN:209,_RNCNvMNtCsa6QFEuJDwzK_9flexorama6ollamaNtB4_12OllamaClient14create_message0B6_
FN:279,_RNCNvMNtCsa6QFEuJDwzK_9flexorama6ollamaNtB4_12OllamaClient21create_message_stream0B6_
FN:147,_RNCNvMNtCsa6QFEuJDwzK_9flexorama6ollamaNtB4_12OllamaClient22fetch_available_models0B6_
FN:608,_RNCNvNtCsa6QFEuJDwzK_9flexorama6ollama15parse_arguments0B5_
FNDA:0,_RNvMNtCsa6QFEuJDwzK_9flexorama6ollamaNtB2_12OllamaClient12map_response
FNDA:0,_RNvMNtCsa6QFEuJDwzK_9flexorama6ollamaNtB2_12OllamaClient13build_request
FNDA:0,_RNvMNtCsa6QFEuJDwzK_9flexorama6ollamaNtB2_12OllamaClient14create_message
FNDA:0,_RNvMNtCsa6QFEuJDwzK_9flexorama6ollamaNtB2_12OllamaClient21create_message_stream
FNDA:0,_RNvMNtCsa6QFEuJDwzK_9flexorama6ollamaNtB2_12OllamaClient22fetch_available_models
FNDA:0,_RNvMNtCsa6QFEuJDwzK_9flexorama6ollamaNtB2_12OllamaClient3new
FNDA:0,_RNvNtCsa6QFEuJDwzK_9flexorama6ollama12map_messages
FNDA:0,_RNvNtCsa6QFEuJDwzK_9flexorama6ollama15parse_arguments
FNDA:0,_RINvMNtCsa6QFEuJDwzK_9flexorama6ollamaNtB3_12OllamaClient27build_authenticated_requestNtB3_13OllamaRequestEB5_
FNDA:0,_RINvMNtCsa6QFEuJDwzK_9flexorama6ollamaNtB3_12OllamaClient27build_authenticated_requestuEB5_
FNDA:0,_RNCNCNvMNtCsa6QFEuJDwzK_9flexorama6ollamaNtB6_12OllamaClient14create_message00B8_
FNDA:0,_RNCNCNvMNtCsa6QFEuJDwzK_9flexorama6ollamaNtB6_12OllamaClient14create_message0s_0B8_
FNDA:0,_RNCNCNvMNtCsa6QFEuJDwzK_9flexorama6ollamaNtB6_12OllamaClient21create_message_stream00B8_
FNDA:0,_RNCNCNvMNtCsa6QFEuJDwzK_9flexorama6ollamaNtB6_12OllamaClient21create_message_stream0s0_0B8_
FNDA:0,_RNCNCNvMNtCsa6QFEuJDwzK_9flexorama6ollamaNtB6_12OllamaClient21create_message_stream0s1_0B8_
FNDA:0,_RNCNCNvMNtCsa6QFEuJDwzK_9flexorama6ollamaNtB6_12OllamaClient21create_message_stream0s_0B8_
FNDA:0,_RNCNvMNtCsa6QFEuJDwzK_9flexorama6ollamaNtB4_12OllamaClient12map_response0B6_
FNDA:0,_RNCNvMNtCsa6QFEuJDwzK_9flexorama6ollamaNtB4_12OllamaClient14create_message0B6_
FNDA:0,_RNCNvMNtCsa6QFEuJDwzK_9flexorama6ollamaNtB4_12OllamaClient21create_message_stream0B6_
FNDA:0,_RNCNvMNtCsa6QFEuJDwzK_9flexorama6ollamaNtB4_12OllamaClient22fetch_available_models0B6_
FNDA:0,_RNCNvNtCsa6QFEuJDwzK_9flexorama6ollama15parse_arguments0B5_
FNF:20
FNH:0
DA:114,0
DA:115,0
DA:116,0
DA:117,0
DA:118,0
DA:119,0
DA:120,0
DA:123,0
DA:124,0
DA:125,0
DA:126,0
DA:127,0
DA:128,0
DA:129,0
DA:130,0
DA:131,0
DA:132,0
DA:134,0
DA:135,0
DA:136,0
DA:139,0
DA:140,0
DA:141,0
DA:143,0
DA:144,0
DA:147,0
DA:148,0
DA:150,0
DA:152,0
DA:153,0
DA:154,0
DA:155,0
DA:157,0
DA:158,0
DA:159,0
DA:160,0
DA:164,0
DA:165,0
DA:166,0
DA:167,0
DA:168,0
DA:171,0
DA:172,0
DA:174,0
DA:175,0
DA:177,0
DA:178,0
DA:179,0
DA:180,0
DA:181,0
DA:182,0
DA:183,0
DA:185,0
DA:186,0
DA:187,0
DA:189,0
DA:190,0
DA:193,0
DA:194,0
DA:195,0
DA:198,0
DA:200,0
DA:201,0
DA:202,0
DA:203,0
DA:204,0
DA:205,0
DA:206,0
DA:207,0
DA:208,0
DA:209,0
DA:210,0
DA:211,0
DA:212,0
DA:214,0
DA:215,0
DA:216,0
DA:217,0
DA:218,0
DA:219,0
DA:220,0
DA:223,0
DA:226,0
DA:227,0
DA:228,0
DA:229,0
DA:230,0
DA:231,0
DA:233,0
DA:234,0
DA:235,0
DA:236,0
DA:238,0
DA:239,0
DA:241,0
DA:242,0
DA:243,0
DA:244,0
DA:245,0
DA:246,0
DA:247,0
DA:248,0
DA:249,0
DA:250,0
DA:252,0
DA:253,0
DA:254,0
DA:256,0
DA:257,0
DA:258,0
DA:259,0
DA:260,0
DA:262,0
DA:263,0
DA:264,0
DA:266,0
DA:267,0
DA:269,0
DA:270,0
DA:271,0
DA:272,0
DA:273,0
DA:274,0
DA:275,0
DA:276,0
DA:277,0
DA:278,0
DA:279,0
DA:280,0
DA:281,0
DA:282,0
DA:284,0
DA:285,0
DA:286,0
DA:287,0
DA:288,0
DA:289,0
DA:290,0
DA:293,0
DA:296,0
DA:297,0
DA:298,0
DA:299,0
DA:300,0
DA:301,0
DA:303,0
DA:304,0
DA:305,0
DA:306,0
DA:308,0
DA:309,0
DA:310,0
DA:311,0
DA:312,0
DA:313,0
DA:314,0
DA:315,0
DA:316,0
DA:317,0
DA:318,0
DA:319,0
DA:321,0
DA:322,0
DA:324,0
DA:325,0
DA:326,0
DA:327,0
DA:328,0
DA:329,0
DA:330,0
DA:331,0
DA:334,0
DA:335,0
DA:336,0
DA:337,0
DA:340,0
DA:341,0
DA:342,0
DA:343,0
DA:344,0
DA:346,0
DA:347,0
DA:348,0
DA:349,0
DA:352,0
DA:353,0
DA:354,0
DA:356,0
DA:357,0
DA:358,0
DA:360,0
DA:361,0
DA:364,0
DA:365,0
DA:366,0
DA:368,0
DA:369,0
DA:370,0
DA:371,0
DA:372,0
DA:375,0
DA:376,0
DA:377,0
DA:378,0
DA:379,0
DA:381,0
DA:382,0
DA:383,0
DA:384,0
DA:385,0
DA:387,0
DA:388,0
DA:389,0
DA:390,0
DA:391,0
DA:392,0
DA:393,0
DA:394,0
DA:395,0
DA:396,0
DA:397,0
DA:399,0
DA:401,0
DA:402,0
DA:403,0
DA:404,0
DA:405,0
DA:406,0
DA:408,0
DA:409,0
DA:410,0
DA:411,0
DA:413,0
DA:416,0
DA:418,0
DA:419,0
DA:424,0
DA:425,0
DA:426,0
DA:428,0
DA:429,0
DA:430,0
DA:431,0
DA:432,0
DA:434,0
DA:435,0
DA:436,0
DA:437,0
DA:438,0
DA:439,0
DA:440,0
DA:441,0
DA:443,0
DA:446,0
DA:447,0
DA:448,0
DA:449,0
DA:450,0
DA:452,0
DA:455,0
DA:456,0
DA:457,0
DA:458,0
DA:460,0
DA:461,0
DA:462,0
DA:465,0
DA:466,0
DA:468,0
DA:469,0
DA:470,0
DA:471,0
DA:472,0
DA:473,0
DA:474,0
DA:475,0
DA:476,0
DA:477,0
DA:478,0
DA:479,0
DA:480,0
DA:481,0
DA:482,0
DA:483,0
DA:484,0
DA:486,0
DA:487,0
DA:488,0
DA:489,0
DA:491,0
DA:492,0
DA:493,0
DA:497,0
DA:498,0
DA:499,0
DA:500,0
DA:501,0
DA:502,0
DA:503,0
DA:504,0
DA:505,0
DA:506,0
DA:507,0
DA:509,0
DA:510,0
DA:511,0
DA:512,0
DA:514,0
DA:516,0
DA:517,0
DA:518,0
DA:519,0
DA:521,0
DA:522,0
DA:523,0
DA:524,0
DA:525,0
DA:526,0
DA:527,0
DA:528,0
DA:530,0
DA:531,0
DA:532,0
DA:533,0
DA:536,0
DA:538,0
DA:539,0
DA:540,0
DA:541,0
DA:542,0
DA:544,0
DA:547,0
DA:549,0
DA:550,0
DA:551,0
DA:552,0
DA:553,0
DA:556,0
DA:557,0
DA:560,0
DA:561,0
DA:562,0
DA:563,0
DA:564,0
DA:565,0
DA:566,0
DA:568,0
DA:569,0
DA:571,0
DA:572,0
DA:573,0
DA:574,0
DA:575,0
DA:576,0
DA:578,0
DA:579,0
DA:581,0
DA:582,0
DA:583,0
DA:585,0
DA:589,0
DA:590,0
DA:591,0
DA:592,0
DA:593,0
DA:594,0
DA:595,0
DA:596,0
DA:599,0
DA:600,0
DA:602,0
DA:603,0
DA:604,0
DA:605,0
DA:606,0
DA:608,0
DA:609,0
BRF:0
BRH:0
LF:389
LH:0
end_of_record
SF:/home/user/flexorama/src/openai.rs
FN:391,_RNvMNtCsa6QFEuJDwzK_9flexorama6openaiNtB2_12OpenAIClient12map_response
FN:351,_RNvMNtCsa6QFEuJDwzK_9flexorama6openaiNtB2_12OpenAIClient13build_request
FN:141,_RNvMNtCsa6QFEuJDwzK_9flexorama6openaiNtB2_12OpenAIClient14create_message
FN:198,_RNvMNtCsa6QFEuJDwzK_9flexorama6openaiNtB2_12OpenAIClient21create_message_stream
FN:133,_RNvMNtCsa6QFEuJDwzK_9flexorama6openaiNtB2_12OpenAIClient3new
FN:421,_RNvNtCsa6QFEuJDwzK_9flexorama6openai12map_messages
FN:507,_RNvNtCsa6QFEuJDwzK_9flexorama6openai15parse_arguments
FN:190,_RNCNCNvMNtCsa6QFEuJDwzK_9flexorama6openaiNtB6_12OpenAIClient14create_message00B8_
FN:334,_RNCNCNvMNtCsa6QFEuJDwzK_9flexorama6openaiNtB6_12OpenAIClient21create_message_stream00B8_
FN:341,_RNCNCNvMNtCsa6QFEuJDwzK_9flexorama6openaiNtB6_12OpenAIClient21create_message_stream0s0_0B8_
FN:335,_RNCNCNvMNtCsa6QFEuJDwzK_9flexorama6openaiNtB6_12OpenAIClient21create_message_stream0s_0B8_
FN:457,_RNCNCNvNtCsa6QFEuJDwzK_9flexorama6openai12map_messagess0_00B7_
FN:410,_RNCNvMNtCsa6QFEuJDwzK_9flexorama6openaiNtB4_12OpenAIClient12map_response0B6_
FN:370,_RNCNvMNtCsa6QFEuJDwzK_9flexorama6openaiNtB4_12OpenAIClient13build_request0B6_
FN:150,_RNCNvMNtCsa6QFEuJDwzK_9flexorama6openaiNtB4_12OpenAIClient14create_message0B6_
FN:208,_RNCNvMNtCsa6QFEuJDwzK_9flexorama6openaiNtB4_12OpenAIClient21create_message_stream0B6_
FN:449,_RNCNvNtCsa6QFEuJDwzK_9flexorama6openai12map_messages0B5_
FN:454,_RNCNvNtCsa6QFEuJDwzK_9flexorama6openai12map_messagess0_0B5_
FN:460,_RNCNvNtCsa6QFEuJDwzK_9flexorama6openai12map_messagess1_0B5_
FN:450,_RNCNvNtCsa6QFEuJDwzK_9flexorama6openai12map_messagess_0B5_
FN:513,_RNCNvNtCsa6QFEuJDwzK_9flexorama6openai15parse_arguments0B5_
FNDA:1,_RNvMNtCsa6QFEuJDwzK_9flexorama6openaiNtB2_12OpenAIClient12map_response
FNDA:2,_RNvMNtCsa6QFEuJDwzK_9flexorama6openaiNtB2_12OpenAIClient13build_request
FNDA:1,_RNvMNtCsa6QFEuJDwzK_9flexorama6openaiNtB2_12OpenAIClient14create_message
FNDA:1,_RNvMNtCsa6QFEuJDwzK_9flexorama6openaiNtB2_12OpenAIClient21create_message_stream
FNDA:2,_RNvMNtCsa6QFEuJDwzK_9flexorama6openaiNtB2_12OpenAIClient3new
FNDA:2,_RNvNtCsa6QFEuJDwzK_9flexorama6openai12map_messages
FNDA:0,_RNvNtCsa6QFEuJDwzK_9flexorama6openai15parse_arguments
FNDA:0,_RNCNCNvMNtCsa6QFEuJDwzK_9flexorama6openaiNtB6_12OpenAIClient14create_message00B8_
FNDA:0,_RNCNCNvMNtCsa6QFEuJDwzK_9flexorama6openaiNtB6_12OpenAIClient21create_message_stream00B8_
FNDA:0,_RNCNCNvMNtCsa6QFEuJDwzK_9flexorama6openaiNtB6_12OpenAIClient21create_message_stream0s0_0B8_
FNDA:0,_RNCNCNvMNtCsa6QFEuJDwzK_9flexorama6openaiNtB6_12OpenAIClient21create_message_stream0s_0B8_
FNDA:0,_RNCNCNvNtCsa6QFEuJDwzK_9flexorama6openai12map_messagess0_00B7_
FNDA:0,_RNCNvMNtCsa6QFEuJDwzK_9flexorama6openaiNtB4_12OpenAIClient12map_response0B6_
FNDA:0,_RNCNvMNtCsa6QFEuJDwzK_9flexorama6openaiNtB4_12OpenAIClient13build_request0B6_
FNDA:1,_RNCNvMNtCsa6QFEuJDwzK_9flexorama6openaiNtB4_12OpenAIClient14create_message0B6_
FNDA:1,_RNCNvMNtCsa6QFEuJDwzK_9flexorama6openaiNtB4_12OpenAIClient21create_message_stream0B6_
FNDA:0,_RNCNvNtCsa6QFEuJDwzK_9flexorama6openai12map_messages0B5_
FNDA:0,_RNCNvNtCsa6QFEuJDwzK_9flexorama6openai12map_messagess0_0B5_
FNDA:0,_RNCNvNtCsa6QFEuJDwzK_9flexorama6openai12map_messagess1_0B5_
FNDA:0,_RNCNvNtCsa6QFEuJDwzK_9flexorama6openai12map_messagess_0B5_
FNDA:0,_RNCNvNtCsa6QFEuJDwzK_9flexorama6openai15parse_arguments0B5_
FNF:21
FNH:8
DA:133,2
DA:134,2
DA:135,2
DA:136,2
DA:137,2
DA:138,2
DA:139,2
DA:141,1
DA:142,1
DA:143,1
DA:144,1
DA:145,1
DA:146,1
DA:147,1
DA:148,1
DA:149,1
DA:150,1
DA:151,1
DA:152,0
DA:153,1
DA:155,1
DA:156,1
DA:157,1
DA:158,1
DA:159,1
DA:160,1
DA:161,1
DA:164,1
DA:166,1
DA:167,1
DA:168,1
DA:169,1
DA:170,1
DA:171,1
DA:172,1
DA:173,1
DA:174,1
DA:176,1
DA:177,1
DA:179,1
DA:180,0
DA:181,0
DA:182,0
DA:183,0
DA:184,0
DA:185,0
DA:186,0
DA:187,1
DA:189,1
DA:190,1
DA:191,0
DA:192,0
DA:193,0
DA:195,1
DA:196,1
DA:198,1
DA:199,1
DA:200,1
DA:201,1
DA:202,1
DA:203,1
DA:204,1
DA:205,1
DA:206,1
DA:207,1
DA:208,1
DA:209,1
DA:210,0
DA:211,1
DA:213,1
DA:214,1
DA:215,1
DA:216,1
DA:217,1
DA:218,1
DA:219,1
DA:222,1
DA:224,1
DA:225,1
DA:226,1
DA:227,1
DA:228,1
DA:229,1
DA:230,1
DA:231,1
DA:232,1
DA:234,1
DA:235,1
DA:236,0
DA:237,0
DA:238,0
DA:239,0
DA:240,0
DA:241,0
DA:242,0
DA:243,0
DA:244,1
DA:246,1
DA:247,1
DA:248,1
DA:249,1
DA:250,1
DA:252,2
DA:253,1
DA:254,0
DA:255,1
DA:257,1
DA:258,1
DA:259,1
DA:260,1
DA:262,1
DA:263,0
DA:264,0
DA:265,0
DA:267,0
DA:268,0
DA:269,0
DA:270,0
DA:272,0
DA:273,0
DA:275,0
DA:276,0
DA:277,0
DA:278,0
DA:279,0
DA:281,0
DA:282,0
DA:283,0
DA:284,0
DA:285,0
DA:287,0
DA:288,0
DA:289,0
DA:290,0
DA:291,0
DA:292,0
DA:293,0
DA:294,0
DA:295,0
DA:296,0
DA:297,0
DA:298,0
DA:299,0
DA:300,0
DA:301,0
DA:302,0
DA:303,0
DA:305,0
DA:306,0
DA:308,0
DA:309,0
DA:310,0
DA:311,0
DA:313,0
DA:315,0
DA:318,0
DA:320,0
DA:321,0
DA:326,1
DA:327,1
DA:328,0
DA:329,1
DA:331,1
DA:332,0
DA:333,0
DA:334,0
DA:335,0
DA:336,0
DA:337,0
DA:340,1
DA:341,0
DA:342,0
DA:343,0
DA:345,1
DA:346,1
DA:347,1
DA:348,1
DA:349,1
DA:351,2
DA:352,2
DA:353,2
DA:354,2
DA:355,2
DA:356,2
DA:357,2
DA:358,2
DA:359,2
DA:360,2
DA:361,2
DA:363,2
DA:364,2
DA:367,0
DA:368,0
DA:369,0
DA:370,0
DA:371,0
DA:372,0
DA:373,0
DA:374,0
DA:375,0
DA:376,0
DA:377,0
DA:381,2
DA:382,2
DA:383,2
DA:384,2
DA:385,2
DA:386,2
DA:387,2
DA:388,2
DA:389,2
DA:391,1
DA:392,1
DA:394,1
DA:395,1
DA:396,1
DA:397,1
DA:398,1
DA:399,0
DA:401,1
DA:402,0
DA:403,0
DA:404,0
DA:405,0
DA:406,1
DA:407,0
DA:409,1
DA:410,0
DA:411,0
DA:412,0
DA:414,1
DA:415,1
DA:416,1
DA:417,1
DA:418,1
DA:421,2
DA:422,2
DA:424,2
DA:425,0
DA:426,0
DA:427,0
DA:428,0
DA:429,0
DA:430,0
DA:431,2
DA:433,4
DA:434,2
DA:435,2
DA:436,2
DA:438,4
DA:439,2
DA:440,2
DA:441,2
DA:442,2
DA:443,2
DA:445,0
DA:446,0
DA:447,0
DA:448,0
DA:449,0
DA:450,0
DA:451,0
DA:452,0
DA:453,0
DA:454,0
DA:455,0
DA:456,0
DA:457,0
DA:459,0
DA:460,0
DA:461,0
DA:462,0
DA:463,0
DA:464,0
DA:465,0
DA:466,0
DA:467,0
DA:468,0
DA:470,0
DA:471,0
DA:472,0
DA:473,0
DA:474,0
DA:475,0
DA:476,0
DA:477,0
DA:478,0
DA:479,0
DA:481,0
DA:485,2
DA:486,2
DA:487,2
DA:488,2
DA:489,2
DA:490,2
DA:491,2
DA:493,0
DA:495,2
DA:497,0
DA:499,2
DA:500,0
DA:501,2
DA:504,2
DA:505,2
DA:507,0
DA:508,0
DA:509,0
DA:510,0
DA:511,0
DA:513,0
DA:514,0
BRF:0
BRH:0
LF:323
LH:165
end_of_record
SF:/home/user/flexorama/src/output.rs
FN:97,_RNCNCNvNtCsa6QFEuJDwzK_9flexorama6output11init_logger00B7_
FN:95,_RNCNvNtCsa6QFEuJDwzK_9flexorama6output11init_logger0B5_
FN:69,_RNvMNtCsa6QFEuJDwzK_9flexorama6outputNtB2_12OutputLogger3new
FN:92,_RNvNtCsa6QFEuJDwzK_9flexorama6output11init_logger
FN:16,_RNvNtCsa6QFEuJDwzK_9flexorama6output15set_output_sink
FN:79,_RNvXs_NtCsa6QFEuJDwzK_9flexorama6outputNtB4_12OutputLoggerNtCs84YaluzJH5W_3log3Log3log
FN:87,_RNvXs_NtCsa6QFEuJDwzK_9flexorama6outputNtB4_12OutputLoggerNtCs84YaluzJH5W_3log3Log5flush
FN:75,_RNvXs_NtCsa6QFEuJDwzK_9flexorama6outputNtB4_12OutputLoggerNtCs84YaluzJH5W_3log3Log7enabled
FN:42,_RNvNtCsa6QFEuJDwzK_9flexorama6output10write_line
FN:26,_RNvNtCsa6QFEuJDwzK_9flexorama6output13is_tui_active
FN:21,_RNvNtCsa6QFEuJDwzK_9flexorama6output17clear_output_sink
FN:54,_RNvNtCsa6QFEuJDwzK_9flexorama6output5flush
FN:31,_RNvNtCsa6QFEuJDwzK_9flexorama6output5write
FN:12,_RNvNtCsa6QFEuJDwzK_9flexorama6output9sink_cell
FN:13,_RNCNvNtCsa6QFEuJDwzK_9flexorama6output9sink_cell0B5_
FNDA:0,_RNCNCNvNtCsa6QFEuJDwzK_9flexorama6output11init_logger00B7_
FNDA:0,_RNCNvNtCsa6QFEuJDwzK_9flexorama6output11init_logger0B5_
FNDA:0,_RNvMNtCsa6QFEuJDwzK_9flexorama6outputNtB2_12OutputLogger3new
FNDA:0,_RNvNtCsa6QFEuJDwzK_9flexorama6output11init_logger
FNDA:0,_RNvNtCsa6QFEuJDwzK_9flexorama6output15set_output_sink
FNDA:0,_RNvXs_NtCsa6QFEuJDwzK_9flexorama6outputNtB4_12OutputLoggerNtCs84YaluzJH5W_3log3Log3log
FNDA:0,_RNvXs_NtCsa6QFEuJDwzK_9flexorama6outputNtB4_12OutputLoggerNtCs84YaluzJH5W_3log3Log5flush
FNDA:0,_RNvXs_NtCsa6QFEuJDwzK_9flexorama6outputNtB4_12OutputLoggerNtCs84YaluzJH5W_3log3Log7enabled
FNDA:429,_RNvNtCsa6QFEuJDwzK_9flexorama6output10write_line
FNDA:3,_RNvNtCsa6QFEuJDwzK_9flexorama6output13is_tui_active
FNDA:0,_RNvNtCsa6QFEuJDwzK_9flexorama6output17clear_output_sink
FNDA:37,_RNvNtCsa6QFEuJDwzK_9flexorama6output5flush
FNDA:1,_RNvNtCsa6QFEuJDwzK_9flexorama6output5write
FNDA:470,_RNvNtCsa6QFEuJDwzK_9flexorama6output9sink_cell
FNDA:1,_RNCNvNtCsa6QFEuJDwzK_9flexorama6output9sink_cell0B5_
FNF:15
FNH:6
DA:12,470
DA:13,470
DA:14,470
DA:16,0
DA:17,0
DA:18,0
DA:19,0
DA:21,0
DA:22,0
DA:23,0
DA:24,0
DA:26,3
DA:27,3
DA:28,3
DA:29,3
DA:31,1
DA:32,1
DA:33,1
DA:34,0
DA:35,1
DA:36,0
DA:37,1
DA:38,1
DA:39,1
DA:40,1
DA:42,429
DA:43,429
DA:44,429
DA:45,0
DA:46,0
DA:47,429
DA:48,6
DA:49,423
DA:50,423
DA:51,423
DA:52,429
DA:54,37
DA:55,37
DA:56,37
DA:57,0
DA:58,37
DA:59,37
DA:60,37
DA:61,37
DA:62,37
DA:69,0
DA:70,0
DA:71,0
DA:75,0
DA:76,0
DA:77,0
DA:79,0
DA:80,0
DA:81,0
DA:82,0
DA:83,0
DA:84,0
DA:85,0
DA:87,0
DA:88,0
DA:89,0
DA:92,0
DA:93,0
DA:94,0
DA:95,0
DA:97,0
DA:99,0
DA:100,0
DA:101,0
DA:102,0
DA:103,0
DA:104,0
DA:105,0
DA:106,0
DA:108,0
DA:109,0
DA:110,0
DA:112,0
DA:113,0
DA:114,0
DA:115,0
BRF:0
BRH:0
LF:84
LH:33
end_of_record
SF:/home/user/flexorama/src/processing.rs
FN:33,_RNvNtCsa6QFEuJDwzK_9flexorama10processing13process_input
FN:9,_RNvNtCsa6QFEuJDwzK_9flexorama10processing25create_streaming_renderer
FN:107,_RNvNtNtCsa6QFEuJDwzK_9flexorama10processing5testss_30test_create_streaming_renderer
FN:140,_RNvNtNtCsa6QFEuJDwzK_9flexorama10processing5testss_43test_streaming_renderer_state_is_accessible
FN:131,_RNvNtNtCsa6QFEuJDwzK_9flexorama10processing5testss_45test_streaming_renderer_handles_empty_content
FN:117,_RNvNtNtCsa6QFEuJDwzK_9flexorama10processing5testss_51test_create_streaming_renderer_with_multiple_chunks
FN:40,_RNCNvNtCsa6QFEuJDwzK_9flexorama10processing13process_input0B5_
FN:19,_RNCNvNtCsa6QFEuJDwzK_9flexorama10processing25create_streaming_renderer0B5_
FNDA:0,_RNvNtCsa6QFEuJDwzK_9flexorama10processing13process_input
FNDA:4,_RNvNtCsa6QFEuJDwzK_9flexorama10processing25create_streaming_renderer
FNDA:1,_RNvNtNtCsa6QFEuJDwzK_9flexorama10processing5testss_30test_create_streaming_renderer
FNDA:1,_RNvNtNtCsa6QFEuJDwzK_9flexorama10processing5testss_43test_streaming_renderer_state_is_accessible
FNDA:1,_RNvNtNtCsa6QFEuJDwzK_9flexorama10processing5testss_45test_streaming_renderer_handles_empty_content
FNDA:1,_RNvNtNtCsa6QFEuJDwzK_9flexorama10processing5testss_51test_create_streaming_renderer_with_multiple_chunks
FNDA:0,_RNCNvNtCsa6QFEuJDwzK_9flexorama10processing13process_input0B5_
FNDA:6,_RNCNvNtCsa6QFEuJDwzK_9flexorama10processing25create_streaming_renderer0B5_
FNF:8
FNH:6
DA:9,4
DA:10,4
DA:11,4
DA:12,4
DA:13,4
DA:14,4
DA:15,4
DA:16,4
DA:18,4
DA:19,6
DA:20,6
DA:21,2
DA:22,4
DA:23,4
DA:24,4
DA:25,0
DA:26,4
DA:27,0
DA:28,6
DA:29,4
DA:30,4
DA:33,0
DA:34,0
DA:35,0
DA:36,0
DA:37,0
DA:38,0
DA:39,0
DA:40,0
DA:42,0
DA:43,0
DA:44,0
DA:45,0
DA:46,0
DA:47,0
DA:48,0
DA:49,0
DA:50,0
DA:51,0
DA:53,0
DA:54,0
DA:55,0
DA:56,0
DA:57,0
DA:59,0
DA:60,0
DA:61,0
DA:62,0
DA:63,0
DA:64,0
DA:65,0
DA:66,0
DA:67,0
DA:68,0
DA:69,0
DA:73,0
DA:74,0
DA:75,0
DA:76,0
DA:77,0
DA:79,0
DA:80,0
DA:82,0
DA:83,0
DA:84,0
DA:85,0
DA:86,0
DA:87,0
DA:89,0
DA:90,0
DA:91,0
DA:92,0
DA:93,0
DA:94,0
DA:95,0
DA:99,0
DA:107,1
DA:108,1
DA:109,1
DA:112,1
DA:113,1
DA:114,1
DA:117,1
DA:118,1
DA:119,1
DA:122,1
DA:123,1
DA:124,1
DA:127,1
DA:128,1
DA:131,1
DA:132,1
DA:133,1
DA:136,1
DA:137,1
DA:140,1
DA:141,1
DA:142,1
DA:145,1
DA:146,1
DA:147,1
BRF:0
BRH:0
LF:103
LH:45
end_of_record
SF:/home/user/flexorama/src/security.rs
FN:317,_RNvMs0_NtCsa6QFEuJDwzK_9flexorama8securityNtB5_19FileSecurityManager17get_file_security
FN:199,_RNvMs0_NtCsa6QFEuJDwzK_9flexorama8securityNtB5_19FileSecurityManager19ask_file_permission
FN:322,_RNvMs0_NtCsa6QFEuJDwzK_9flexorama8securityNtB5_19FileSecurityManager20update_file_security
FN:164,_RNvMs0_NtCsa6QFEuJDwzK_9flexorama8securityNtB5_19FileSecurityManager21check_file_permission
FN:326,_RNvMs0_NtCsa6QFEuJDwzK_9flexorama8securityNtB5_19FileSecurityManager22set_permission_handler
FN:336,_RNvMs0_NtCsa6QFEuJDwzK_9flexorama8securityNtB5_19FileSecurityManager24display_file_permissions
FN:331,_RNvMs0_NtCsa6QFEuJDwzK_9flexorama8securityNtB5_19FileSecurityManager25reset_session_permissions
FN:280,_RNvMs0_NtCsa6QFEuJDwzK_9flexorama8securityNtB5_19FileSecurityManager32handle_file_permission_selection
FN:156,_RNvMs0_NtCsa6QFEuJDwzK_9flexorama8securityNtB5_19FileSecurityManager3new
FN:604,_RNvMs1_NtCsa6QFEuJDwzK_9flexorama8securityNtB5_19BashSecurityManager12get_security
FN:437,_RNvMs1_NtCsa6QFEuJDwzK_9flexorama8securityNtB5_19BashSecurityManager14ask_permission
FN:518,_RNvMs1_NtCsa6QFEuJDwzK_9flexorama8securityNtB5_19BashSecurityManager14has_parameters
FN:589,_RNvMs1_NtCsa6QFEuJDwzK_9flexorama8securityNtB5_19BashSecurityManager15add_to_denylist
FN:618,_RNvMs1_NtCsa6QFEuJDwzK_9flexorama8securityNtB5_19BashSecurityManager15matches_pattern
FN:609,_RNvMs1_NtCsa6QFEuJDwzK_9flexorama8securityNtB5_19BashSecurityManager15update_security
FN:584,_RNvMs1_NtCsa6QFEuJDwzK_9flexorama8securityNtB5_19BashSecurityManager16add_to_allowlist
FN:647,_RNvMs1_NtCsa6QFEuJDwzK_9flexorama8securityNtB5_19BashSecurityManager19display_permissions
FN:599,_RNvMs1_NtCsa6QFEuJDwzK_9flexorama8securityNtB5_19BashSecurityManager20remove_from_denylist
FN:594,_RNvMs1_NtCsa6QFEuJDwzK_9flexorama8securityNtB5_19BashSecurityManager21remove_from_allowlist
FN:613,_RNvMs1_NtCsa6QFEuJDwzK_9flexorama8securityNtB5_19BashSecurityManager22set_permission_handler
FN:385,_RNvMs1_NtCsa6QFEuJDwzK_9flexorama8securityNtB5_19BashSecurityManager24check_command_permission
FN:523,_RNvMs1_NtCsa6QFEuJDwzK_9flexorama8securityNtB5_19BashSecurityManager25generate_wildcard_pattern
FN:498,_RNvMs1_NtCsa6QFEuJDwzK_9flexorama8securityNtB5_19BashSecurityManager27generate_permission_options
FN:534,_RNvMs1_NtCsa6QFEuJDwzK_9flexorama8securityNtB5_19BashSecurityManager27handle_permission_selection
FN:377,_RNvMs1_NtCsa6QFEuJDwzK_9flexorama8securityNtB5_19BashSecurityManager3new
FN:34,_RNvXNtCsa6QFEuJDwzK_9flexorama8securityNtB2_12BashSecurityNtNtCs3XFJfFEDSOQ_4core7default7Default7default
FN:105,_RNvXs_NtCsa6QFEuJDwzK_9flexorama8securityNtB4_12FileSecurityNtNtCs3XFJfFEDSOQ_4core7default7Default7default
FN:719,_RNvNtNtCsa6QFEuJDwzK_9flexorama8security5tests27security_manager_with_lists
FN:791,_RNvNtNtCsa6QFEuJDwzK_9flexorama8security5testss_43generate_wildcard_pattern_uses_base_command
FN:734,_RNvNtNtCsa6QFEuJDwzK_9flexorama8security5testss_48check_command_permission_denied_takes_precedence
FN:776,_RNvNtNtCsa6QFEuJDwzK_9flexorama8security5testss_50generate_permission_options_varies_with_parameters
FN:762,_RNvNtNtCsa6QFEuJDwzK_9flexorama8security5testss_59check_command_permission_wildcard_and_invalid_glob_patterns
FN:748,_RNvNtNtCsa6QFEuJDwzK_9flexorama8security5testss_62check_command_permission_base_command_match_allows_subcommands
FN:246,_RNCNCNvMs0_NtCsa6QFEuJDwzK_9flexorama8securityNtB9_19FileSecurityManager19ask_file_permission00Bb_
FN:467,_RNCNCNvMs1_NtCsa6QFEuJDwzK_9flexorama8securityNtB9_19BashSecurityManager14ask_permission00Bb_
FN:203,_RNCNvMs0_NtCsa6QFEuJDwzK_9flexorama8securityNtB7_19FileSecurityManager19ask_file_permission0B9_
FN:285,_RNCNvMs0_NtCsa6QFEuJDwzK_9flexorama8securityNtB7_19FileSecurityManager32handle_file_permission_selection0B9_
FN:437,_RNCNvMs1_NtCsa6QFEuJDwzK_9flexorama8securityNtB7_19BashSecurityManager14ask_permission0B9_
FN:538,_RNCNvMs1_NtCsa6QFEuJDwzK_9flexorama8securityNtB7_19BashSecurityManager27handle_permission_selection0B9_
FN:725,_RNCNvNtNtCsa6QFEuJDwzK_9flexorama8security5tests27security_manager_with_lists0B7_
FN:726,_RNCNvNtNtCsa6QFEuJDwzK_9flexorama8security5tests27security_manager_with_listss_0B7_
FN:780,_RNCNvNtNtCsa6QFEuJDwzK_9flexorama8security5testss_50generate_permission_options_varies_with_parameters0B7_
FN:786,_RNCNvNtNtCsa6QFEuJDwzK_9flexorama8security5testss_50generate_permission_options_varies_with_parameterss_0B7_
FNDA:0,_RNvMs0_NtCsa6QFEuJDwzK_9flexorama8securityNtB5_19FileSecurityManager17get_file_security
FNDA:0,_RNvMs0_NtCsa6QFEuJDwzK_9flexorama8securityNtB5_19FileSecurityManager19ask_file_permission
FNDA:0,_RNvMs0_NtCsa6QFEuJDwzK_9flexorama8securityNtB5_19FileSecurityManager20update_file_security
FNDA:14,_RNvMs0_NtCsa6QFEuJDwzK_9flexorama8securityNtB5_19FileSecurityManager21check_file_permission
FNDA:0,_RNvMs0_NtCsa6QFEuJDwzK_9flexorama8securityNtB5_19FileSecurityManager22set_permission_handler
FNDA:1,_RNvMs0_NtCsa6QFEuJDwzK_9flexorama8securityNtB5_19FileSecurityManager24display_file_permissions
FNDA:0,_RNvMs0_NtCsa6QFEuJDwzK_9flexorama8securityNtB5_19FileSecurityManager25reset_session_permissions
FNDA:0,_RNvMs0_NtCsa6QFEuJDwzK_9flexorama8securityNtB5_19FileSecurityManager32handle_file_permission_selection
FNDA:140,_RNvMs0_NtCsa6QFEuJDwzK_9flexorama8securityNtB5_19FileSecurityManager3new
FNDA:0,_RNvMs1_NtCsa6QFEuJDwzK_9flexorama8securityNtB5_19BashSecurityManager12get_security
FNDA:0,_RNvMs1_NtCsa6QFEuJDwzK_9flexorama8securityNtB5_19BashSecurityManager14ask_permission
FNDA:2,_RNvMs1_NtCsa6QFEuJDwzK_9flexorama8securityNtB5_19BashSecurityManager14has_parameters
FNDA:0,_RNvMs1_NtCsa6QFEuJDwzK_9flexorama8securityNtB5_19BashSecurityManager15add_to_denylist
FNDA:11,_RNvMs1_NtCsa6QFEuJDwzK_9flexorama8securityNtB5_19BashSecurityManager15matches_pattern
FNDA:0,_RNvMs1_NtCsa6QFEuJDwzK_9flexorama8securityNtB5_19BashSecurityManager15update_security
FNDA:0,_RNvMs1_NtCsa6QFEuJDwzK_9flexorama8securityNtB5_19BashSecurityManager16add_to_allowlist
FNDA:1,_RNvMs1_NtCsa6QFEuJDwzK_9flexorama8securityNtB5_19BashSecurityManager19display_permissions
FNDA:0,_RNvMs1_NtCsa6QFEuJDwzK_9flexorama8securityNtB5_19BashSecurityManager20remove_from_denylist
FNDA:0,_RNvMs1_NtCsa6QFEuJDwzK_9flexorama8securityNtB5_19BashSecurityManager21remove_from_allowlist
FNDA:0,_RNvMs1_NtCsa6QFEuJDwzK_9flexorama8securityNtB5_19BashSecurityManager22set_permission_handler
FNDA:6,_RNvMs1_NtCsa6QFEuJDwzK_9flexorama8securityNtB5_19BashSecurityManager24check_command_permission
FNDA:2,_RNvMs1_NtCsa6QFEuJDwzK_9flexorama8securityNtB5_19BashSecurityManager25generate_wildcard_pattern
FNDA:2,_RNvMs1_NtCsa6QFEuJDwzK_9flexorama8securityNtB5_19BashSecurityManager27generate_permission_options
FNDA:0,_RNvMs1_NtCsa6QFEuJDwzK_9flexorama8securityNtB5_19BashSecurityManager27handle_permission_selection
FNDA:119,_RNvMs1_NtCsa6QFEuJDwzK_9flexorama8securityNtB5_19BashSecurityManager3new
FNDA:137,_RNvXNtCsa6QFEuJDwzK_9flexorama8securityNtB2_12BashSecurityNtNtCs3XFJfFEDSOQ_4core7default7Default7default
FNDA:138,_RNvXs_NtCsa6QFEuJDwzK_9flexorama8securityNtB4_12FileSecurityNtNtCs3XFJfFEDSOQ_4core7default7Default7default
FNDA:5,_RNvNtNtCsa6QFEuJDwzK_9flexorama8security5tests27security_manager_with_lists
FNDA:1,_RNvNtNtCsa6QFEuJDwzK_9flexorama8security5testss_43generate_wildcard_pattern_uses_base_command
FNDA:1,_RNvNtNtCsa6QFEuJDwzK_9flexorama8security5testss_48check_command_permission_denied_takes_precedence
FNDA:1,_RNvNtNtCsa6QFEuJDwzK_9flexorama8security5testss_50generate_permission_options_varies_with_parameters
FNDA:1,_RNvNtNtCsa6QFEuJDwzK_9flexorama8security5testss_59check_command_permission_wildcard_and_invalid_glob_patterns
FNDA:1,_RNvNtNtCsa6QFEuJDwzK_9flexorama8security5testss_62check_command_permission_base_command_match_allows_subcommands
FNDA:0,_RNCNCNvMs0_NtCsa6QFEuJDwzK_9flexorama8securityNtB9_19FileSecurityManager19ask_file_permission00Bb_
FNDA:0,_RNCNCNvMs1_NtCsa6QFEuJDwzK_9flexorama8securityNtB9_19BashSecurityManager14ask_permission00Bb_
FNDA:0,_RNCNvMs0_NtCsa6QFEuJDwzK_9flexorama8securityNtB7_19FileSecurityManager19ask_file_permission0B9_
FNDA:0,_RNCNvMs0_NtCsa6QFEuJDwzK_9flexorama8securityNtB7_19FileSecurityManager32handle_file_permission_selection0B9_
FNDA:0,_RNCNvMs1_NtCsa6QFEuJDwzK_9flexorama8securityNtB7_19BashSecurityManager14ask_permission0B9_
FNDA:0,_RNCNvMs1_NtCsa6QFEuJDwzK_9flexorama8securityNtB7_19BashSecurityManager27handle_permission_selection0B9_
FNDA:4,_RNCNvNtNtCsa6QFEuJDwzK_9flexorama8security5tests27security_manager_with_lists0B7_
FNDA:1,_RNCNvNtNtCsa6QFEuJDwzK_9flexorama8security5tests27security_manager_with_listss_0B7_
FNDA:3,_RNCNvNtNtCsa6QFEuJDwzK_9flexorama8security5testss_50generate_permission_options_varies_with_parameters0B7_
FNDA:3,_RNCNvNtNtCsa6QFEuJDwzK_9flexorama8security5testss_50generate_permission_options_varies_with_parameterss_0B7_
FNF:43
FNH:22
DA:34,137
DA:35,137
DA:36,137
DA:37,137
DA:38,137
DA:39,137
DA:40,137
DA:41,137
DA:42,137
DA:43,137
DA:44,137
DA:45,137
DA:46,137
DA:47,137
DA:48,137
DA:49,137
DA:50,137
DA:51,137
DA:52,137
DA:53,137
DA:54,137
DA:55,137
DA:56,137
DA:57,137
DA:58,137
DA:59,137
DA:60,137
DA:61,137
DA:62,137
DA:63,137
DA:64,137
DA:65,137
DA:66,137
DA:67,137
DA:68,137
DA:69,137
DA:70,137
DA:71,137
DA:72,137
DA:73,137
DA:74,137
DA:75,137
DA:76,137
DA:77,137
DA:78,137
DA:79,137
DA:80,137
DA:81,137
DA:82,137
DA:83,137
DA:84,137
DA:85,137
DA:86,137
DA:87,137
DA:88,137
DA:89,137
DA:90,137
DA:91,137
DA:92,137
DA:93,137
DA:94,137
DA:95,137
DA:96,137
DA:97,137
DA:98,137
DA:99,137
DA:100,137
DA:101,137
DA:105,138
DA:106,138
DA:107,138
DA:108,138
DA:109,138
DA:110,138
DA:111,138
DA:156,140
DA:157,140
DA:158,140
DA:159,140
DA:160,140
DA:161,140
DA:164,14
DA:165,14
DA:166,0
DA:167,0
DA:170,0
DA:171,14
DA:174,14
DA:175,0
DA:176,0
DA:179,0
DA:180,14
DA:183,14
DA:184,0
DA:185,0
DA:188,0
DA:190,14
DA:191,0
DA:194,14
DA:196,14
DA:199,0
DA:200,0
DA:201,0
DA:202,0
DA:203,0
DA:204,0
DA:205,0
DA:206,0
DA:208,0
DA:209,0
DA:210,0
DA:211,0
DA:214,0
DA:215,0
DA:216,0
DA:217,0
DA:218,0
DA:219,0
DA:220,0
DA:221,0
DA:222,0
DA:223,0
DA:224,0
DA:225,0
DA:226,0
DA:228,0
DA:229,0
DA:230,0
DA:231,0
DA:233,0
DA:235,0
DA:237,0
DA:238,0
DA:239,0
DA:240,0
DA:241,0
DA:242,0
DA:245,0
DA:246,0
DA:247,0
DA:248,0
DA:249,0
DA:250,0
DA:251,0
DA:252,0
DA:253,0
DA:255,0
DA:256,0
DA:257,0
DA:258,0
DA:260,0
DA:261,0
DA:262,0
DA:263,0
DA:264,0
DA:266,0
DA:268,0
DA:269,0
DA:270,0
DA:271,0
DA:272,0
DA:274,0
DA:277,0
DA:280,0
DA:281,0
DA:282,0
DA:283,0
DA:284,0
DA:285,0
DA:286,0
DA:289,0
DA:290,0
DA:294,0
DA:295,0
DA:296,0
DA:298,0
DA:299,0
DA:303,0
DA:304,0
DA:307,0
DA:308,0
DA:309,0
DA:311,0
DA:314,0
DA:317,0
DA:318,0
DA:319,0
DA:322,0
DA:323,0
DA:324,0
DA:326,0
DA:327,0
DA:328,0
DA:331,0
DA:332,0
DA:333,0
DA:336,1
DA:337,1
DA:338,1
DA:339,1
DA:341,1
DA:342,1
DA:343,1
DA:345,0
DA:347,1
DA:349,1
DA:350,1
DA:352,0
DA:354,1
DA:356,1
DA:357,0
DA:359,1
DA:361,1
DA:362,1
DA:364,1
DA:365,1
DA:366,1
DA:367,1
DA:368,1
DA:369,1
DA:371,1
DA:372,1
DA:373,1
DA:377,119
DA:378,119
DA:379,119
DA:380,119
DA:381,119
DA:382,119
DA:385,6
DA:386,6
DA:387,0
DA:388,0
DA:389,6
DA:392,6
DA:394,6
DA:395,6
DA:398,7
DA:399,2
DA:400,1
DA:402,1
DA:403,0
DA:406,1
DA:407,1
DA:411,7
DA:412,6
DA:413,2
DA:415,4
DA:416,0
DA:419,4
DA:420,2
DA:424,1
DA:425,1
DA:426,1
DA:428,0
DA:429,0
DA:432,0
DA:434,6
DA:437,0
DA:438,0
DA:439,0
DA:440,0
DA:442,0
DA:443,0
DA:444,0
DA:445,0
DA:446,0
DA:447,0
DA:448,0
DA:449,0
DA:450,0
DA:451,0
DA:453,0
DA:454,0
DA:455,0
DA:457,0
DA:459,0
DA:460,0
DA:461,0
DA:462,0
DA:463,0
DA:466,0
DA:467,0
DA:468,0
DA:469,0
DA:470,0
DA:471,0
DA:472,0
DA:473,0
DA:474,0
DA:476,0
DA:477,0
DA:478,0
DA:479,0
DA:480,0
DA:481,0
DA:482,0
DA:484,0
DA:486,0
DA:487,0
DA:488,0
DA:489,0
DA:490,0
DA:492,0
DA:495,0
DA:498,2
DA:499,2
DA:500,2
DA:501,2
DA:505,2
DA:506,1
DA:507,1
DA:508,1
DA:509,1
DA:510,1
DA:511,1
DA:513,2
DA:514,2
DA:515,2
DA:518,2
DA:519,2
DA:520,2
DA:523,2
DA:524,2
DA:525,2
DA:526,0
DA:527,2
DA:530,2
DA:531,2
DA:534,0
DA:535,0
DA:536,0
DA:537,0
DA:538,0
DA:539,0
DA:542,0
DA:543,0
DA:547,0
DA:548,0
DA:549,0
DA:552,0
DA:554,0
DA:555,0
DA:556,0
DA:557,0
DA:558,0
DA:560,0
DA:561,0
DA:564,0
DA:565,0
DA:570,0
DA:571,0
DA:574,0
DA:575,0
DA:576,0
DA:578,0
DA:581,0
DA:584,0
DA:585,0
DA:586,0
DA:589,0
DA:590,0
DA:591,0
DA:594,0
DA:595,0
DA:596,0
DA:599,0
DA:600,0
DA:601,0
DA:604,0
DA:605,0
DA:606,0
DA:609,0
DA:610,0
DA:611,0
DA:613,0
DA:614,0
DA:615,0
DA:618,11
DA:620,11
DA:621,2
DA:622,9
DA:625,9
DA:626,4
DA:627,4
DA:628,4
DA:629,2
DA:630,2
DA:632,0
DA:633,0
DA:636,5
DA:639,7
DA:640,1
DA:641,6
DA:643,6
DA:644,11
DA:647,1
DA:648,1
DA:649,1
DA:650,1
DA:652,1
DA:653,1
DA:654,1
DA:656,0
DA:658,1
DA:660,1
DA:661,1
DA:663,0
DA:665,1
DA:666,1
DA:668,1
DA:669,1
DA:670,1
DA:671,1
DA:673,1
DA:674,0
DA:675,0
DA:676,1
DA:677,1
DA:678,41
DA:679,40
DA:680,40
DA:682,1
DA:684,1
DA:685,1
DA:686,1
DA:687,1
DA:689,1
DA:690,0
DA:691,0
DA:692,1
DA:693,1
DA:694,18
DA:695,17
DA:696,17
DA:698,1
DA:700,1
DA:701,1
DA:702,1
DA:703,1
DA:704,1
DA:705,1
DA:706,1
DA:707,1
DA:708,1
DA:709,1
DA:711,1
DA:712,1
DA:719,5
DA:720,5
DA:721,5
DA:722,5
DA:723,5
DA:724,5
DA:725,5
DA:726,5
DA:727,5
DA:730,5
DA:731,5
DA:734,1
DA:735,1
DA:737,1
DA:738,1
DA:741,1
DA:742,1
DA:745,1
DA:748,1
DA:749,1
DA:751,1
DA:752,1
DA:755,1
DA:756,1
DA:759,1
DA:762,1
DA:763,1
DA:765,1
DA:766,1
DA:769,1
DA:770,1
DA:773,1
DA:776,1
DA:777,1
DA:779,1
DA:780,3
DA:781,1
DA:783,1
DA:784,1
DA:785,1
DA:786,3
DA:787,1
DA:788,1
DA:791,1
DA:792,1
DA:794,1
DA:795,1
DA:798,1
BRF:0
BRH:0
LF:506
LH:279
end_of_record
SF:/home/user/flexorama/src/skill.rs
FN:770,_RNCNvNtNtCsa6QFEuJDwzK_9flexorama5skill5testss_22test_skill_manager_new0B7_
FN:921,_RNCNvNtNtCsa6QFEuJDwzK_9flexorama5skill5testss_30test_skill_manager_list_skills0B7_
FN:1179,_RNCNvNtNtCsa6QFEuJDwzK_9flexorama5skill5testss_31test_multiple_skills_activation0B7_
FN:861,_RNCNvNtNtCsa6QFEuJDwzK_9flexorama5skill5testss_31test_skill_manager_delete_skill0B7_
FN:829,_RNCNvNtNtCsa6QFEuJDwzK_9flexorama5skill5testss_31test_skill_manager_update_skill0B7_
FN:1088,_RNCNvNtNtCsa6QFEuJDwzK_9flexorama5skill5testss_32test_skill_manager_get_skill_mut0B7_
FN:808,_RNCNvNtNtCsa6QFEuJDwzK_9flexorama5skill5testss_32test_skill_manager_save_and_load0B7_
FN:878,_RNCNvNtNtCsa6QFEuJDwzK_9flexorama5skill5testss_33test_skill_manager_activate_skill0B7_
FN:1013,_RNCNvNtNtCsa6QFEuJDwzK_9flexorama5skill5testss_34test_skill_manager_load_all_skills0B7_
FN:905,_RNCNvNtNtCsa6QFEuJDwzK_9flexorama5skill5testss_35test_skill_manager_deactivate_skill0B7_
FN:1135,_RNCNvNtNtCsa6QFEuJDwzK_9flexorama5skill5testss_35test_skill_with_all_metadata_fields0B7_
FN:777,_RNCNvNtNtCsa6QFEuJDwzK_9flexorama5skill5testss_39test_skill_manager_create_and_get_skill0B7_
FN:1038,_RNCNvNtNtCsa6QFEuJDwzK_9flexorama5skill5testss_40test_skill_manager_load_skill_references0B7_
FN:794,_RNCNvNtNtCsa6QFEuJDwzK_9flexorama5skill5testss_41test_skill_manager_create_duplicate_fails0B7_
FN:970,_RNCNvNtNtCsa6QFEuJDwzK_9flexorama5skill5testss_41test_skill_manager_get_skill_full_content0B7_
FN:849,_RNCNvNtNtCsa6QFEuJDwzK_9flexorama5skill5testss_43test_skill_manager_update_nonexistent_fails0B7_
FN:943,_RNCNvNtNtCsa6QFEuJDwzK_9flexorama5skill5testss_44test_skill_manager_get_active_skills_content0B7_
FN:894,_RNCNvNtNtCsa6QFEuJDwzK_9flexorama5skill5testss_45test_skill_manager_activate_nonexistent_fails0B7_
FN:1070,_RNCNvNtNtCsa6QFEuJDwzK_9flexorama5skill5testss_46test_skill_manager_load_nonexistent_references0B7_
FN:961,_RNCNvNtNtCsa6QFEuJDwzK_9flexorama5skill5testss_50test_skill_manager_get_active_skills_content_empty0B7_
FN:988,_RNCNvNtNtCsa6QFEuJDwzK_9flexorama5skill5testss_52test_skill_manager_get_skill_full_content_not_active0B7_
FN:1002,_RNCNvNtNtCsa6QFEuJDwzK_9flexorama5skill5testss_53test_skill_manager_get_skill_full_content_nonexistent0B7_
FN:94,_RNvMNtCsa6QFEuJDwzK_9flexorama5skillNtB2_5Skill11to_markdown
FN:55,_RNvMNtCsa6QFEuJDwzK_9flexorama5skillNtB2_5Skill13from_markdown
FN:116,_RNvMNtCsa6QFEuJDwzK_9flexorama5skillNtB2_5Skill16parse_references
FN:220,_RNvMs_NtCsa6QFEuJDwzK_9flexorama5skillNtB4_12SkillManager10save_skill
FN:505,_RNvMs_NtCsa6QFEuJDwzK_9flexorama5skillNtB4_12SkillManager11list_skills
FN:239,_RNvMs_NtCsa6QFEuJDwzK_9flexorama5skillNtB4_12SkillManager12create_skill
FN:276,_RNvMs_NtCsa6QFEuJDwzK_9flexorama5skillNtB4_12SkillManager12delete_skill
FN:260,_RNvMs_NtCsa6QFEuJDwzK_9flexorama5skillNtB4_12SkillManager12update_skill
FN:500,_RNvMs_NtCsa6QFEuJDwzK_9flexorama5skillNtB4_12SkillManager13get_skill_mut
FN:308,_RNvMs_NtCsa6QFEuJDwzK_9flexorama5skillNtB4_12SkillManager14activate_skill
FN:158,_RNvMs_NtCsa6QFEuJDwzK_9flexorama5skillNtB4_12SkillManager14get_skills_dir
FN:167,_RNvMs_NtCsa6QFEuJDwzK_9flexorama5skillNtB4_12SkillManager14set_test_paths
FN:510,_RNvMs_NtCsa6QFEuJDwzK_9flexorama5skillNtB4_12SkillManager15is_skill_active
FN:173,_RNvMs_NtCsa6QFEuJDwzK_9flexorama5skillNtB4_12SkillManager15load_all_skills
FN:329,_RNvMs_NtCsa6QFEuJDwzK_9flexorama5skillNtB4_12SkillManager16deactivate_skill
FN:345,_RNvMs_NtCsa6QFEuJDwzK_9flexorama5skillNtB4_12SkillManager17get_active_skills
FN:214,_RNvMs_NtCsa6QFEuJDwzK_9flexorama5skillNtB4_12SkillManager20load_skill_from_file
FN:515,_RNvMs_NtCsa6QFEuJDwzK_9flexorama5skillNtB4_12SkillManager21load_skill_references
FN:435,_RNvMs_NtCsa6QFEuJDwzK_9flexorama5skillNtB4_12SkillManager22get_skill_full_content
FN:353,_RNvMs_NtCsa6QFEuJDwzK_9flexorama5skillNtB4_12SkillManager25get_active_skills_content
FN:143,_RNvMs_NtCsa6QFEuJDwzK_9flexorama5skillNtB4_12SkillManager3new
FN:495,_RNvMs_NtCsa6QFEuJDwzK_9flexorama5skillNtB4_12SkillManager9get_skill
FN:564,_RNvNtNtCsa6QFEuJDwzK_9flexorama5skill5tests17create_test_skill
FN:550,_RNvNtNtCsa6QFEuJDwzK_9flexorama5skill5tests18create_test_config
FN:555,_RNvNtNtCsa6QFEuJDwzK_9flexorama5skill5tests19create_test_manager
FN:714,_RNvNtNtCsa6QFEuJDwzK_9flexorama5skill5testss_20test_skill_roundtrip
FN:770,_RNvNtNtCsa6QFEuJDwzK_9flexorama5skill5testss_22test_skill_manager_new
FN:696,_RNvNtNtCsa6QFEuJDwzK_9flexorama5skill5testss_22test_skill_to_markdown
FN:753,_RNvNtNtCsa6QFEuJDwzK_9flexorama5skill5testss_26test_parse_references_none
FN:729,_RNvNtNtCsa6QFEuJDwzK_9flexorama5skill5testss_28test_parse_references_single
FN:739,_RNvNtNtCsa6QFEuJDwzK_9flexorama5skill5testss_30test_parse_references_multiple
FN:582,_RNvNtNtCsa6QFEuJDwzK_9flexorama5skill5testss_30test_skill_from_markdown_valid
FN:921,_RNvNtNtCsa6QFEuJDwzK_9flexorama5skill5testss_30test_skill_manager_list_skills
FN:1179,_RNvNtNtCsa6QFEuJDwzK_9flexorama5skill5testss_31test_multiple_skills_activation
FN:861,_RNvNtNtCsa6QFEuJDwzK_9flexorama5skill5testss_31test_skill_manager_delete_skill
FN:829,_RNvNtNtCsa6QFEuJDwzK_9flexorama5skill5testss_31test_skill_manager_update_skill
FN:621,_RNvNtNtCsa6QFEuJDwzK_9flexorama5skill5testss_32test_skill_from_markdown_minimal
FN:1088,_RNvNtNtCsa6QFEuJDwzK_9flexorama5skill5testss_32test_skill_manager_get_skill_mut
FN:808,_RNvNtNtCsa6QFEuJDwzK_9flexorama5skill5testss_32test_skill_manager_save_and_load
FN:878,_RNvNtNtCsa6QFEuJDwzK_9flexorama5skill5testss_33test_skill_manager_activate_skill
FN:1013,_RNvNtNtCsa6QFEuJDwzK_9flexorama5skill5testss_34test_skill_manager_load_all_skills
FN:905,_RNvNtNtCsa6QFEuJDwzK_9flexorama5skill5testss_35test_skill_manager_deactivate_skill
FN:1135,_RNvNtNtCsa6QFEuJDwzK_9flexorama5skill5testss_35test_skill_with_all_metadata_fields
FN:761,_RNvNtNtCsa6QFEuJDwzK_9flexorama5skill5testss_36test_parse_references_in_parentheses
FN:1106,_RNvNtNtCsa6QFEuJDwzK_9flexorama5skill5testss_36test_skill_frontmatter_serialization
FN:656,_RNvNtNtCsa6QFEuJDwzK_9flexorama5skill5testss_37test_skill_from_markdown_invalid_yaml
FN:777,_RNvNtNtCsa6QFEuJDwzK_9flexorama5skill5testss_39test_skill_manager_create_and_get_skill
FN:1038,_RNvNtNtCsa6QFEuJDwzK_9flexorama5skill5testss_40test_skill_manager_load_skill_references
FN:794,_RNvNtNtCsa6QFEuJDwzK_9flexorama5skill5testss_41test_skill_manager_create_duplicate_fails
FN:970,_RNvNtNtCsa6QFEuJDwzK_9flexorama5skill5testss_41test_skill_manager_get_skill_full_content
FN:849,_RNvNtNtCsa6QFEuJDwzK_9flexorama5skill5testss_43test_skill_manager_update_nonexistent_fails
FN:943,_RNvNtNtCsa6QFEuJDwzK_9flexorama5skill5testss_44test_skill_manager_get_active_skills_content
FN:894,_RNvNtNtCsa6QFEuJDwzK_9flexorama5skill5testss_45test_skill_manager_activate_nonexistent_fails
FN:644,_RNvNtNtCsa6QFEuJDwzK_9flexorama5skill5testss_46test_skill_from_markdown_invalid_no_delimiters
FN:1070,_RNvNtNtCsa6QFEuJDwzK_9flexorama5skill5testss_46test_skill_manager_load_nonexistent_references
FN:961,_RNvNtNtCsa6QFEuJDwzK_9flexorama5skill5testss_50test_skill_manager_get_active_skills_content_empty
FN:988,_RNvNtNtCsa6QFEuJDwzK_9flexorama5skill5testss_52test_skill_manager_get_skill_full_content_not_active
FN:1002,_RNvNtNtCsa6QFEuJDwzK_9flexorama5skill5testss_53test_skill_manager_get_skill_full_content_nonexistent
FN:674,_RNvNtNtCsa6QFEuJDwzK_9flexorama5skill5testss_54test_skill_from_markdown_with_triple_dashes_in_content
FN:300,_RNCNCNvMs_NtCsa6QFEuJDwzK_9flexorama5skillNtB8_12SkillManager12delete_skill00Ba_
FN:301,_RNCNCNvMs_NtCsa6QFEuJDwzK_9flexorama5skillNtB8_12SkillManager12delete_skill0s_0Ba_
FN:322,_RNCNCNvMs_NtCsa6QFEuJDwzK_9flexorama5skillNtB8_12SkillManager14activate_skill00Ba_
FN:192,_RNCNCNvMs_NtCsa6QFEuJDwzK_9flexorama5skillNtB8_12SkillManager15load_all_skills00Ba_
FN:335,_RNCNCNvMs_NtCsa6QFEuJDwzK_9flexorama5skillNtB8_12SkillManager16deactivate_skill00Ba_
FN:519,_RNCNCNvMs_NtCsa6QFEuJDwzK_9flexorama5skillNtB8_12SkillManager21load_skill_references00Ba_
FN:108,_RNCNvMNtCsa6QFEuJDwzK_9flexorama5skillNtB4_5Skill11to_markdown0B6_
FN:220,_RNCNvMs_NtCsa6QFEuJDwzK_9flexorama5skillNtB6_12SkillManager10save_skill0B8_
FN:239,_RNCNvMs_NtCsa6QFEuJDwzK_9flexorama5skillNtB6_12SkillManager12create_skill0B8_
FN:276,_RNCNvMs_NtCsa6QFEuJDwzK_9flexorama5skillNtB6_12SkillManager12delete_skill0B8_
FN:260,_RNCNvMs_NtCsa6QFEuJDwzK_9flexorama5skillNtB6_12SkillManager12update_skill0B8_
FN:308,_RNCNvMs_NtCsa6QFEuJDwzK_9flexorama5skillNtB6_12SkillManager14activate_skill0B8_
FN:160,_RNCNvMs_NtCsa6QFEuJDwzK_9flexorama5skillNtB6_12SkillManager14get_skills_dir0B8_
FN:173,_RNCNvMs_NtCsa6QFEuJDwzK_9flexorama5skillNtB6_12SkillManager15load_all_skills0B8_
FN:329,_RNCNvMs_NtCsa6QFEuJDwzK_9flexorama5skillNtB6_12SkillManager16deactivate_skill0B8_
FN:348,_RNCNvMs_NtCsa6QFEuJDwzK_9flexorama5skillNtB6_12SkillManager17get_active_skills0B8_
FN:214,_RNCNvMs_NtCsa6QFEuJDwzK_9flexorama5skillNtB6_12SkillManager20load_skill_from_file0B8_
FN:515,_RNCNvMs_NtCsa6QFEuJDwzK_9flexorama5skillNtB6_12SkillManager21load_skill_references0B8_
FN:439,_RNCNvMs_NtCsa6QFEuJDwzK_9flexorama5skillNtB6_12SkillManager22get_skill_full_content0B8_
FNDA:1,_RNCNvNtNtCsa6QFEuJDwzK_9flexorama5skill5testss_22test_skill_manager_new0B7_
FNDA:1,_RNCNvNtNtCsa6QFEuJDwzK_9flexorama5skill5testss_30test_skill_manager_list_skills0B7_
FNDA:1,_RNCNvNtNtCsa6QFEuJDwzK_9flexorama5skill5testss_31test_multiple_skills_activation0B7_
FNDA:1,_RNCNvNtNtCsa6QFEuJDwzK_9flexorama5skill5testss_31test_skill_manager_delete_skill0B7_
FNDA:1,_RNCNvNtNtCsa6QFEuJDwzK_9flexorama5skill5testss_31test_skill_manager_update_skill0B7_
FNDA:1,_RNCNvNtNtCsa6QFEuJDwzK_9flexorama5skill5testss_32test_skill_manager_get_skill_mut0B7_
FNDA:1,_RNCNvNtNtCsa6QFEuJDwzK_9flexorama5skill5testss_32test_skill_manager_save_and_load0B7_
FNDA:1,_RNCNvNtNtCsa6QFEuJDwzK_9flexorama5skill5testss_33test_skill_manager_activate_skill0B7_
FNDA:1,_RNCNvNtNtCsa6QFEuJDwzK_9flexorama5skill5testss_34test_skill_manager_load_all_skills0B7_
FNDA:1,_RNCNvNtNtCsa6QFEuJDwzK_9flexorama5skill5testss_35test_skill_manager_deactivate_skill0B7_
FNDA:1,_RNCNvNtNtCsa6QFEuJDwzK_9flexorama5skill5testss_35test_skill_with_all_metadata_fields0B7_
FNDA:1,_RNCNvNtNtCsa6QFEuJDwzK_9flexorama5skill5testss_39test_skill_manager_create_and_get_skill0B7_
FNDA:1,_RNCNvNtNtCsa6QFEuJDwzK_9flexorama5skill5testss_40test_skill_manager_load_skill_references0B7_
FNDA:1,_RNCNvNtNtCsa6QFEuJDwzK_9flexorama5skill5testss_41test_skill_manager_create_duplicate_fails0B7_
FNDA:1,_RNCNvNtNtCsa6QFEuJDwzK_9flexorama5skill5testss_41test_skill_manager_get_skill_full_content0B7_
FNDA:1,_RNCNvNtNtCsa6QFEuJDwzK_9flexorama5skill5testss_43test_skill_manager_update_nonexistent_fails0B7_
FNDA:1,_RNCNvNtNtCsa6QFEuJDwzK_9flexorama5skill5testss_44test_skill_manager_get_active_skills_content0B7_
FNDA:1,_RNCNvNtNtCsa6QFEuJDwzK_9flexorama5skill5testss_45test_skill_manager_activate_nonexistent_fails0B7_
FNDA:1,_RNCNvNtNtCsa6QFEuJDwzK_9flexorama5skill5testss_46test_skill_manager_load_nonexistent_references0B7_
FNDA:1,_RNCNvNtNtCsa6QFEuJDwzK_9flexorama5skill5testss_50test_skill_manager_get_active_skills_content_empty0B7_
FNDA:1,_RNCNvNtNtCsa6QFEuJDwzK_9flexorama5skill5testss_52test_skill_manager_get_skill_full_content_not_active0B7_
FNDA:1,_RNCNvNtNtCsa6QFEuJDwzK_9flexorama5skill5testss_53test_skill_manager_get_skill_full_content_nonexistent0B7_
FNDA:26,_RNvMNtCsa6QFEuJDwzK_9flexorama5skillNtB2_5Skill11to_markdown
FNDA:10,_RNvMNtCsa6QFEuJDwzK_9flexorama5skillNtB2_5Skill13from_markdown
FNDA:14,_RNvMNtCsa6QFEuJDwzK_9flexorama5skillNtB2_5Skill16parse_references
FNDA:24,_RNvMs_NtCsa6QFEuJDwzK_9flexorama5skillNtB4_12SkillManager10save_skill
FNDA:3,_RNvMs_NtCsa6QFEuJDwzK_9flexorama5skillNtB4_12SkillManager11list_skills
FNDA:20,_RNvMs_NtCsa6QFEuJDwzK_9flexorama5skillNtB4_12SkillManager12create_skill
FNDA:2,_RNvMs_NtCsa6QFEuJDwzK_9flexorama5skillNtB4_12SkillManager12delete_skill
FNDA:3,_RNvMs_NtCsa6QFEuJDwzK_9flexorama5skillNtB4_12SkillManager12update_skill
FNDA:1,_RNvMs_NtCsa6QFEuJDwzK_9flexorama5skillNtB4_12SkillManager13get_skill_mut
FNDA:8,_RNvMs_NtCsa6QFEuJDwzK_9flexorama5skillNtB4_12SkillManager14activate_skill
FNDA:62,_RNvMs_NtCsa6QFEuJDwzK_9flexorama5skillNtB4_12SkillManager14get_skills_dir
FNDA:40,_RNvMs_NtCsa6QFEuJDwzK_9flexorama5skillNtB4_12SkillManager14set_test_paths
FNDA:9,_RNvMs_NtCsa6QFEuJDwzK_9flexorama5skillNtB4_12SkillManager15is_skill_active
FNDA:1,_RNvMs_NtCsa6QFEuJDwzK_9flexorama5skillNtB4_12SkillManager15load_all_skills
FNDA:3,_RNvMs_NtCsa6QFEuJDwzK_9flexorama5skillNtB4_12SkillManager16deactivate_skill
FNDA:5,_RNvMs_NtCsa6QFEuJDwzK_9flexorama5skillNtB4_12SkillManager17get_active_skills
FNDA:3,_RNvMs_NtCsa6QFEuJDwzK_9flexorama5skillNtB4_12SkillManager20load_skill_from_file
FNDA:2,_RNvMs_NtCsa6QFEuJDwzK_9flexorama5skillNtB4_12SkillManager21load_skill_references
FNDA:3,_RNvMs_NtCsa6QFEuJDwzK_9flexorama5skillNtB4_12SkillManager22get_skill_full_content
FNDA:2,_RNvMs_NtCsa6QFEuJDwzK_9flexorama5skillNtB4_12SkillManager25get_active_skills_content
FNDA:62,_RNvMs_NtCsa6QFEuJDwzK_9flexorama5skillNtB4_12SkillManager3new
FNDA:13,_RNvMs_NtCsa6QFEuJDwzK_9flexorama5skillNtB4_12SkillManager9get_skill
FNDA:24,_RNvNtNtCsa6QFEuJDwzK_9flexorama5skill5tests17create_test_skill
FNDA:22,_RNvNtNtCsa6QFEuJDwzK_9flexorama5skill5tests18create_test_config
FNDA:18,_RNvNtNtCsa6QFEuJDwzK_9flexorama5skill5tests19create_test_manager
FNDA:1,_RNvNtNtCsa6QFEuJDwzK_9flexorama5skill5testss_20test_skill_roundtrip
FNDA:1,_RNvNtNtCsa6QFEuJDwzK_9flexorama5skill5testss_22test_skill_manager_new
FNDA:1,_RNvNtNtCsa6QFEuJDwzK_9flexorama5skill5testss_22test_skill_to_markdown
FNDA:1,_RNvNtNtCsa6QFEuJDwzK_9flexorama5skill5testss_26test_parse_references_none
FNDA:1,_RNvNtNtCsa6QFEuJDwzK_9flexorama5skill5testss_28test_parse_references_single
FNDA:1,_RNvNtNtCsa6QFEuJDwzK_9flexorama5skill5testss_30test_parse_references_multiple
FNDA:1,_RNvNtNtCsa6QFEuJDwzK_9flexorama5skill5testss_30test_skill_from_markdown_valid
FNDA:1,_RNvNtNtCsa6QFEuJDwzK_9flexorama5skill5testss_30test_skill_manager_list_skills
FNDA:1,_RNvNtNtCsa6QFEuJDwzK_9flexorama5skill5testss_31test_multiple_skills_activation
FNDA:1,_RNvNtNtCsa6QFEuJDwzK_9flexorama5skill5testss_31test_skill_manager_delete_skill
FNDA:1,_RNvNtNtCsa6QFEuJDwzK_9flexorama5skill5testss_31test_skill_manager_update_skill
FNDA:1,_RNvNtNtCsa6QFEuJDwzK_9flexorama5skill5testss_32test_skill_from_markdown_minimal
FNDA:1,_RNvNtNtCsa6QFEuJDwzK_9flexorama5skill5testss_32test_skill_manager_get_skill_mut
FNDA:1,_RNvNtNtCsa6QFEuJDwzK_9flexorama5skill5testss_32test_skill_manager_save_and_load
FNDA:1,_RNvNtNtCsa6QFEuJDwzK_9flexorama5skill5testss_33test_skill_manager_activate_skill
FNDA:1,_RNvNtNtCsa6QFEuJDwzK_9flexorama5skill5testss_34test_skill_manager_load_all_skills
FNDA:1,_RNvNtNtCsa6QFEuJDwzK_9flexorama5skill5testss_35test_skill_manager_deactivate_skill
FNDA:1,_RNvNtNtCsa6QFEuJDwzK_9flexorama5skill5testss_35test_skill_with_all_metadata_fields
FNDA:1,_RNvNtNtCsa6QFEuJDwzK_9flexorama5skill5testss_36test_parse_references_in_parentheses
FNDA:1,_RNvNtNtCsa6QFEuJDwzK_9flexorama5skill5testss_36test_skill_frontmatter_serialization
FNDA:1,_RNvNtNtCsa6QFEuJDwzK_9flexorama5skill5testss_37test_skill_from_markdown_invalid_yaml
FNDA:1,_RNvNtNtCsa6QFEuJDwzK_9flexorama5skill5testss_39test_skill_manager_create_and_get_skill
FNDA:1,_RNvNtNtCsa6QFEuJDwzK_9flexorama5skill5testss_40test_skill_manager_load_skill_references
FNDA:1,_RNvNtNtCsa6QFEuJDwzK_9flexorama5skill5testss_41test_skill_manager_create_duplicate_fails
FNDA:1,_RNvNtNtCsa6QFEuJDwzK_9flexorama5skill5testss_41test_skill_manager_get_skill_full_content
FNDA:1,_RNvNtNtCsa6QFEuJDwzK_9flexorama5skill5testss_43test_skill_manager_update_nonexistent_fails
FNDA:1,_RNvNtNtCsa6QFEuJDwzK_9flexorama5skill5testss_44test_skill_manager_get_active_skills_content
FNDA:1,_RNvNtNtCsa6QFEuJDwzK_9flexorama5skill5testss_45test_skill_manager_activate_nonexistent_fails
FNDA:1,_RNvNtNtCsa6QFEuJDwzK_9flexorama5skill5testss_46test_skill_from_markdown_invalid_no_delimiters
FNDA:1,_RNvNtNtCsa6QFEuJDwzK_9flexorama5skill5testss_46test_skill_manager_load_nonexistent_references
FNDA:1,_RNvNtNtCsa6QFEuJDwzK_9flexorama5skill5testss_50test_skill_manager_get_active_skills_content_empty
FNDA:1,_RNvNtNtCsa6QFEuJDwzK_9flexorama5skill5testss_52test_skill_manager_get_skill_full_content_not_active
FNDA:1,_RNvNtNtCsa6QFEuJDwzK_9flexorama5skill5testss_53test_skill_manager_get_skill_full_content_nonexistent
FNDA:1,_RNvNtNtCsa6QFEuJDwzK_9flexorama5skill5testss_54test_skill_from_markdown_with_triple_dashes_in_content
FNDA:0,_RNCNCNvMs_NtCsa6QFEuJDwzK_9flexorama5skillNtB8_12SkillManager12delete_skill00Ba_
FNDA:1,_RNCNCNvMs_NtCsa6QFEuJDwzK_9flexorama5skillNtB8_12SkillManager12delete_skill0s_0Ba_
FNDA:0,_RNCNCNvMs_NtCsa6QFEuJDwzK_9flexorama5skillNtB8_12SkillManager14activate_skill00Ba_
FNDA:0,_RNCNCNvMs_NtCsa6QFEuJDwzK_9flexorama5skillNtB8_12SkillManager15load_all_skills00Ba_
FNDA:4,_RNCNCNvMs_NtCsa6QFEuJDwzK_9flexorama5skillNtB8_12SkillManager16deactivate_skill00Ba_
FNDA:0,_RNCNCNvMs_NtCsa6QFEuJDwzK_9flexorama5skillNtB8_12SkillManager21load_skill_references00Ba_
FNDA:0,_RNCNvMNtCsa6QFEuJDwzK_9flexorama5skillNtB4_5Skill11to_markdown0B6_
FNDA:24,_RNCNvMs_NtCsa6QFEuJDwzK_9flexorama5skillNtB6_12SkillManager10save_skill0B8_
FNDA:20,_RNCNvMs_NtCsa6QFEuJDwzK_9flexorama5skillNtB6_12SkillManager12create_skill0B8_
FNDA:2,_RNCNvMs_NtCsa6QFEuJDwzK_9flexorama5skillNtB6_12SkillManager12delete_skill0B8_
FNDA:3,_RNCNvMs_NtCsa6QFEuJDwzK_9flexorama5skillNtB6_12SkillManager12update_skill0B8_
FNDA:8,_RNCNvMs_NtCsa6QFEuJDwzK_9flexorama5skillNtB6_12SkillManager14activate_skill0B8_
FNDA:0,_RNCNvMs_NtCsa6QFEuJDwzK_9flexorama5skillNtB6_12SkillManager14get_skills_dir0B8_
FNDA:1,_RNCNvMs_NtCsa6QFEuJDwzK_9flexorama5skillNtB6_12SkillManager15load_all_skills0B8_
FNDA:3,_RNCNvMs_NtCsa6QFEuJDwzK_9flexorama5skillNtB6_12SkillManager16deactivate_skill0B8_
FNDA:5,_RNCNvMs_NtCsa6QFEuJDwzK_9flexorama5skillNtB6_12SkillManager17get_active_skills0B8_
FNDA:3,_RNCNvMs_NtCsa6QFEuJDwzK_9flexorama5skillNtB6_12SkillManager20load_skill_from_file0B8_
FNDA:2,_RNCNvMs_NtCsa6QFEuJDwzK_9flexorama5skillNtB6_12SkillManager21load_skill_references0B8_
FNDA:1,_RNCNvMs_NtCsa6QFEuJDwzK_9flexorama5skillNtB6_12SkillManager22get_skill_full_content0B8_
FNF:100
FNH:94
DA:55,10
DA:57,10
DA:59,10
DA:60,1
DA:61,1
DA:62,1
DA:63,9
DA:66,9
DA:67,8
DA:68,9
DA:71,8
DA:74,8
DA:76,8
DA:77,8
DA:78,8
DA:79,8
DA:80,8
DA:81,8
DA:82,8
DA:83,8
DA:84,8
DA:85,8
DA:86,8
DA:87,8
DA:88,8
DA:89,8
DA:90,8
DA:91,10
DA:94,26
DA:95,26
DA:96,26
DA:97,26
DA:98,26
DA:99,26
DA:100,26
DA:101,26
DA:102,26
DA:103,26
DA:104,26
DA:105,26
DA:106,26
DA:108,26
DA:109,0
DA:110,0
DA:112,26
DA:113,26
DA:116,14
DA:117,14
DA:118,14
DA:120,14
DA:121,7
DA:122,7
DA:123,7
DA:124,7
DA:125,7
DA:126,7
DA:127,7
DA:129,14
DA:130,14
DA:143,62
DA:145,62
DA:146,62
DA:148,62
DA:149,62
DA:150,62
DA:151,62
DA:152,62
DA:153,62
DA:154,62
DA:155,62
DA:158,62
DA:159,62
DA:160,62
DA:161,62
DA:162,62
DA:163,62
DA:164,62
DA:167,40
DA:168,40
DA:169,40
DA:170,40
DA:173,1
DA:175,1
DA:176,0
DA:177,0
DA:178,1
DA:181,1
DA:183,3
DA:184,2
DA:185,2
DA:186,2
DA:187,2
DA:188,2
DA:190,0
DA:192,0
DA:193,0
DA:195,0
DA:198,2
DA:199,2
DA:200,2
DA:201,2
DA:202,2
DA:203,0
DA:204,0
DA:205,0
DA:207,0
DA:210,1
DA:211,1
DA:214,3
DA:215,3
DA:216,3
DA:217,3
DA:220,24
DA:222,24
DA:223,1
DA:224,23
DA:226,24
DA:227,24
DA:228,22
DA:229,2
DA:231,24
DA:232,24
DA:233,24
DA:235,24
DA:236,24
DA:239,20
DA:241,20
DA:242,1
DA:243,19
DA:246,19
DA:247,19
DA:248,19
DA:251,19
DA:254,19
DA:256,19
DA:257,20
DA:260,3
DA:262,3
DA:263,1
DA:264,2
DA:267,2
DA:270,2
DA:272,2
DA:273,3
DA:276,2
DA:278,2
DA:281,2
DA:282,2
DA:283,2
DA:284,2
DA:285,0
DA:286,2
DA:287,2
DA:288,0
DA:290,2
DA:291,2
DA:292,0
DA:293,2
DA:296,2
DA:299,2
DA:300,2
DA:301,2
DA:302,2
DA:304,2
DA:305,2
DA:308,8
DA:310,8
DA:311,1
DA:312,7
DA:315,7
DA:318,7
DA:319,7
DA:320,7
DA:321,7
DA:322,7
DA:323,7
DA:325,7
DA:326,8
DA:329,3
DA:331,3
DA:334,3
DA:335,4
DA:336,3
DA:337,3
DA:338,3
DA:339,3
DA:341,3
DA:342,3
DA:345,5
DA:346,5
DA:347,5
DA:348,5
DA:349,5
DA:350,5
DA:353,2
DA:354,2
DA:356,2
DA:357,1
DA:358,1
DA:360,1
DA:362,1
DA:363,1
DA:364,1
DA:365,1
DA:368,1
DA:369,1
DA:370,1
DA:371,1
DA:372,1
DA:373,1
DA:375,1
DA:376,1
DA:377,1
DA:378,1
DA:381,2
DA:382,1
DA:384,1
DA:385,0
DA:387,1
DA:389,1
DA:392,1
DA:393,0
DA:394,1
DA:395,1
DA:396,0
DA:397,1
DA:398,1
DA:399,0
DA:400,0
DA:401,0
DA:402,0
DA:403,0
DA:404,0
DA:405,0
DA:406,0
DA:407,0
DA:408,1
DA:409,1
DA:410,0
DA:411,0
DA:412,0
DA:413,0
DA:414,0
DA:415,0
DA:416,0
DA:417,0
DA:418,0
DA:419,1
DA:420,1
DA:421,0
DA:422,1
DA:424,1
DA:425,1
DA:426,1
DA:427,1
DA:428,1
DA:431,1
DA:432,2
DA:435,3
DA:436,3
DA:437,3
DA:438,3
DA:439,3
DA:441,2
DA:442,1
DA:443,1
DA:444,1
DA:445,1
DA:446,1
DA:448,1
DA:449,1
DA:450,1
DA:452,1
DA:453,1
DA:454,1
DA:455,1
DA:456,0
DA:457,1
DA:458,1
DA:459,0
DA:460,1
DA:461,1
DA:462,0
DA:463,0
DA:464,0
DA:465,0
DA:466,0
DA:467,0
DA:468,0
DA:469,0
DA:470,0
DA:471,1
DA:472,1
DA:473,0
DA:474,0
DA:475,0
DA:476,0
DA:477,0
DA:478,0
DA:479,0
DA:480,0
DA:481,0
DA:482,1
DA:483,1
DA:484,0
DA:485,1
DA:487,1
DA:488,1
DA:489,1
DA:491,1
DA:492,3
DA:495,13
DA:496,13
DA:497,13
DA:500,1
DA:501,1
DA:502,1
DA:505,3
DA:506,3
DA:507,3
DA:510,9
DA:511,9
DA:512,9
DA:515,2
DA:516,2
DA:517,2
DA:518,2
DA:519,2
DA:521,2
DA:522,2
DA:524,4
DA:525,2
DA:526,2
DA:528,2
DA:529,1
DA:530,1
DA:531,1
DA:532,1
DA:535,1
DA:536,1
DA:537,0
DA:540,2
DA:541,2
DA:550,22
DA:551,22
DA:552,22
DA:553,22
DA:555,18
DA:556,18
DA:557,18
DA:558,18
DA:559,18
DA:560,18
DA:561,18
DA:564,24
DA:565,24
DA:566,24
DA:567,24
DA:568,24
DA:569,24
DA:570,24
DA:571,24
DA:572,24
DA:573,24
DA:574,24
DA:575,24
DA:576,24
DA:577,24
DA:578,24
DA:579,24
DA:582,1
DA:583,1
DA:584,1
DA:585,1
DA:586,1
DA:587,1
DA:588,1
DA:589,1
DA:590,1
DA:591,1
DA:592,1
DA:593,1
DA:594,1
DA:595,1
DA:596,1
DA:597,1
DA:598,1
DA:599,1
DA:600,1
DA:601,1
DA:602,1
DA:603,1
DA:604,1
DA:606,1
DA:608,1
DA:609,1
DA:610,1
DA:611,1
DA:612,1
DA:613,1
DA:614,1
DA:615,1
DA:616,1
DA:617,1
DA:618,1
DA:621,1
DA:622,1
DA:623,1
DA:624,1
DA:625,1
DA:626,1
DA:627,1
DA:628,1
DA:630,1
DA:632,1
DA:633,1
DA:634,1
DA:635,1
DA:636,1
DA:637,1
DA:638,1
DA:639,1
DA:640,1
DA:641,1
DA:644,1
DA:645,1
DA:647,1
DA:648,1
DA:649,1
DA:650,1
DA:651,1
DA:652,1
DA:653,1
DA:656,1
DA:657,1
DA:658,1
DA:659,1
DA:660,1
DA:661,1
DA:662,1
DA:663,1
DA:665,1
DA:666,1
DA:667,1
DA:668,1
DA:669,1
DA:670,1
DA:671,1
DA:674,1
DA:675,1
DA:676,1
DA:677,1
DA:678,1
DA:679,1
DA:680,1
DA:681,1
DA:682,1
DA:683,1
DA:684,1
DA:685,1
DA:686,1
DA:687,1
DA:689,1
DA:691,1
DA:692,1
DA:693,1
DA:696,1
DA:697,1
DA:698,1
DA:699,1
DA:700,1
DA:701,1
DA:703,1
DA:705,1
DA:706,1
DA:707,1
DA:708,1
DA:709,1
DA:710,1
DA:711,1
DA:714,1
DA:715,1
DA:716,1
DA:717,1
DA:719,1
DA:720,1
DA:721,1
DA:722,1
DA:723,1
DA:724,1
DA:725,1
DA:726,1
DA:729,1
DA:730,1
DA:731,1
DA:733,1
DA:734,1
DA:735,1
DA:736,1
DA:739,1
DA:740,1
DA:741,1
DA:742,1
DA:743,1
DA:744,1
DA:746,1
DA:747,1
DA:748,1
DA:749,1
DA:750,1
DA:753,1
DA:754,1
DA:755,1
DA:757,1
DA:758,1
DA:761,1
DA:762,1
DA:763,1
DA:765,1
DA:766,1
DA:767,1
DA:770,1
DA:771,1
DA:772,1
DA:773,1
DA:774,1
DA:777,1
DA:778,1
DA:779,1
DA:781,1
DA:783,1
DA:784,1
DA:785,1
DA:786,1
DA:788,1
DA:789,1
DA:790,1
DA:791,1
DA:794,1
DA:795,1
DA:796,1
DA:798,1
DA:800,1
DA:801,1
DA:803,1
DA:804,1
DA:805,1
DA:808,1
DA:809,1
DA:810,1
DA:812,1
DA:813,1
DA:815,1
DA:817,1
DA:818,1
DA:820,1
DA:821,1
DA:822,1
DA:823,1
DA:824,1
DA:825,1
DA:826,1
DA:829,1
DA:830,1
DA:831,1
DA:833,1
DA:834,1
DA:836,1
DA:837,1
DA:839,1
DA:840,1
DA:841,1
DA:842,1
DA:844,1
DA:845,1
DA:846,1
DA:849,1
DA:850,1
DA:851,1
DA:853,1
DA:854,1
DA:856,1
DA:857,1
DA:858,1
DA:861,1
DA:862,1
DA:863,1
DA:865,1
DA:866,1
DA:868,1
DA:870,1
DA:872,1
DA:873,1
DA:874,1
DA:875,1
DA:878,1
DA:879,1
DA:880,1
DA:882,1
DA:883,1
DA:885,1
DA:887,1
DA:889,1
DA:890,1
DA:891,1
DA:894,1
DA:895,1
DA:896,1
DA:898,1
DA:900,1
DA:901,1
DA:902,1
DA:905,1
DA:906,1
DA:907,1
DA:909,1
DA:910,1
DA:911,1
DA:913,1
DA:915,1
DA:917,1
DA:918,1
DA:921,1
DA:922,1
DA:923,1
DA:925,1
DA:926,1
DA:927,1
DA:928,1
DA:929,1
DA:930,1
DA:931,1
DA:932,1
DA:933,1
DA:934,1
DA:935,1
DA:936,1
DA:938,1
DA:939,1
DA:940,1
DA:943,1
DA:944,1
DA:945,1
DA:947,1
DA:948,1
DA:949,1
DA:950,1
DA:952,1
DA:954,1
DA:955,1
DA:956,1
DA:957,1
DA:958,1
DA:961,1
DA:962,1
DA:963,1
DA:965,1
DA:966,1
DA:967,1
DA:970,1
DA:971,1
DA:972,1
DA:974,1
DA:975,1
DA:976,1
DA:977,1
DA:978,1
DA:980,1
DA:982,1
DA:983,1
DA:984,1
DA:985,1
DA:988,1
DA:989,1
DA:990,1
DA:992,1
DA:993,1
DA:995,1
DA:997,1
DA:998,1
DA:999,1
DA:1002,1
DA:1003,1
DA:1004,1
DA:1006,1
DA:1008,1
DA:1009,1
DA:1010,1
DA:1013,1
DA:1014,1
DA:1015,1
DA:1018,1
DA:1019,1
DA:1021,1
DA:1022,1
DA:1025,1
DA:1026,1
DA:1027,1
DA:1028,1
DA:1030,1
DA:1032,1
DA:1033,1
DA:1034,1
DA:1035,1
DA:1038,1
DA:1039,1
DA:1040,1
DA:1043,1
DA:1044,1
DA:1045,1
DA:1046,1
DA:1048,1
DA:1051,1
DA:1052,1
DA:1053,1
DA:1054,1
DA:1055,1
DA:1056,1
DA:1059,1
DA:1061,1
DA:1062,1
DA:1065,1
DA:1066,1
DA:1067,1
DA:1070,1
DA:1071,1
DA:1072,1
DA:1074,1
DA:1075,1
DA:1076,1
DA:1077,1
DA:1079,1
DA:1081,1
DA:1084,1
DA:1085,1
DA:1088,1
DA:1089,1
DA:1090,1
DA:1092,1
DA:1093,1
DA:1096,1
DA:1097,1
DA:1098,1
DA:1101,1
DA:1102,1
DA:1103,1
DA:1106,1
DA:1107,1
DA:1108,1
DA:1109,1
DA:1110,1
DA:1111,1
DA:1112,1
DA:1113,1
DA:1114,1
DA:1115,1
DA:1116,1
DA:1117,1
DA:1118,1
DA:1119,1
DA:1120,1
DA:1121,1
DA:1122,1
DA:1124,1
DA:1125,1
DA:1126,1
DA:1127,1
DA:1129,1
DA:1130,1
DA:1131,1
DA:1132,1
DA:1135,1
DA:1136,1
DA:1137,1
DA:1138,1
DA:1139,1
DA:1140,1
DA:1141,1
DA:1142,1
DA:1143,1
DA:1144,1
DA:1145,1
DA:1146,1
DA:1147,1
DA:1148,1
DA:1149,1
DA:1150,1
DA:1151,1
DA:1152,1
DA:1153,1
DA:1154,1
DA:1155,1
DA:1156,1
DA:1157,1
DA:1158,1
DA:1159,1
DA:1160,1
DA:1161,1
DA:1162,1
DA:1163,1
DA:1165,1
DA:1167,1
DA:1168,1
DA:1169,1
DA:1170,1
DA:1171,1
DA:1172,1
DA:1173,1
DA:1174,1
DA:1175,1
DA:1176,1
DA:1179,1
DA:1180,1
DA:1181,1
DA:1183,1
DA:1184,1
DA:1185,1
DA:1186,1
DA:1187,1
DA:1188,1
DA:1189,1
DA:1190,1
DA:1191,1
DA:1192,1
DA:1193,1
DA:1194,1
DA:1196,1
DA:1197,1
DA:1199,1
DA:1200,1
DA:1201,1
DA:1202,1
DA:1204,1
DA:1206,1
DA:1207,1
DA:1208,1
DA:1209,1
BRF:0
BRH:0
LF:900
LH:835
end_of_record
SF:/home/user/flexorama/src/subagent.rs
FN:211,_RNvMNtCsa6QFEuJDwzK_9flexorama8subagentNtB2_15SubagentManager12get_subagent
FN:50,_RNvMNtCsa6QFEuJDwzK_9flexorama8subagentNtB2_15SubagentManager12new_with_dir
FN:154,_RNvMNtCsa6QFEuJDwzK_9flexorama8subagentNtB2_15SubagentManager13save_subagent
FN:207,_RNvMNtCsa6QFEuJDwzK_9flexorama8subagentNtB2_15SubagentManager14list_subagents
FN:182,_RNvMNtCsa6QFEuJDwzK_9flexorama8subagentNtB2_15SubagentManager15create_subagent
FN:215,_RNvMNtCsa6QFEuJDwzK_9flexorama8subagentNtB2_15SubagentManager15delete_subagent
FN:229,_RNvMNtCsa6QFEuJDwzK_9flexorama8subagentNtB2_15SubagentManager15update_subagent
FN:61,_RNvMNtCsa6QFEuJDwzK_9flexorama8subagentNtB2_15SubagentManager18load_all_subagents
FN:238,_RNvMNtCsa6QFEuJDwzK_9flexorama8subagentNtB2_15SubagentManager19set_active_subagent
FN:105,_RNvMNtCsa6QFEuJDwzK_9flexorama8subagentNtB2_15SubagentManager23load_subagent_from_file
FN:42,_RNvMNtCsa6QFEuJDwzK_9flexorama8subagentNtB2_15SubagentManager3new
FN:88,_RNCNCNvMNtCsa6QFEuJDwzK_9flexorama8subagentNtB6_15SubagentManager18load_all_subagents00B8_
FN:123,_RNCNCNvMNtCsa6QFEuJDwzK_9flexorama8subagentNtB6_15SubagentManager23load_subagent_from_file00B8_
FN:136,_RNCNCNvMNtCsa6QFEuJDwzK_9flexorama8subagentNtB6_15SubagentManager23load_subagent_from_file0s_0B8_
FN:154,_RNCNvMNtCsa6QFEuJDwzK_9flexorama8subagentNtB4_15SubagentManager13save_subagent0B6_
FN:188,_RNCNvMNtCsa6QFEuJDwzK_9flexorama8subagentNtB4_15SubagentManager15create_subagent0B6_
FN:215,_RNCNvMNtCsa6QFEuJDwzK_9flexorama8subagentNtB4_15SubagentManager15delete_subagent0B6_
FN:229,_RNCNvMNtCsa6QFEuJDwzK_9flexorama8subagentNtB4_15SubagentManager15update_subagent0B6_
FN:61,_RNCNvMNtCsa6QFEuJDwzK_9flexorama8subagentNtB4_15SubagentManager18load_all_subagents0B6_
FN:105,_RNCNvMNtCsa6QFEuJDwzK_9flexorama8subagentNtB4_15SubagentManager23load_subagent_from_file0B6_
FN:44,_RNCNvMNtCsa6QFEuJDwzK_9flexorama8subagentNtB4_15SubagentManager3new0B6_
FNDA:4,_RNvMNtCsa6QFEuJDwzK_9flexorama8subagentNtB2_15SubagentManager12get_subagent
FNDA:42,_RNvMNtCsa6QFEuJDwzK_9flexorama8subagentNtB2_15SubagentManager12new_with_dir
FNDA:5,_RNvMNtCsa6QFEuJDwzK_9flexorama8subagentNtB2_15SubagentManager13save_subagent
FNDA:2,_RNvMNtCsa6QFEuJDwzK_9flexorama8subagentNtB2_15SubagentManager14list_subagents
FNDA:0,_RNvMNtCsa6QFEuJDwzK_9flexorama8subagentNtB2_15SubagentManager15create_subagent
FNDA:1,_RNvMNtCsa6QFEuJDwzK_9flexorama8subagentNtB2_15SubagentManager15delete_subagent
FNDA:1,_RNvMNtCsa6QFEuJDwzK_9flexorama8subagentNtB2_15SubagentManager15update_subagent
FNDA:6,_RNvMNtCsa6QFEuJDwzK_9flexorama8subagentNtB2_15SubagentManager18load_all_subagents
FNDA:0,_RNvMNtCsa6QFEuJDwzK_9flexorama8subagentNtB2_15SubagentManager19set_active_subagent
FNDA:3,_RNvMNtCsa6QFEuJDwzK_9flexorama8subagentNtB2_15SubagentManager23load_subagent_from_file
FNDA:2,_RNvMNtCsa6QFEuJDwzK_9flexorama8subagentNtB2_15SubagentManager3new
FNDA:3,_RNCNCNvMNtCsa6QFEuJDwzK_9flexorama8subagentNtB6_15SubagentManager18load_all_subagents00B8_
FNDA:0,_RNCNCNvMNtCsa6QFEuJDwzK_9flexorama8subagentNtB6_15SubagentManager23load_subagent_from_file00B8_
FNDA:0,_RNCNCNvMNtCsa6QFEuJDwzK_9flexorama8subagentNtB6_15SubagentManager23load_subagent_from_file0s_0B8_
FNDA:5,_RNCNvMNtCsa6QFEuJDwzK_9flexorama8subagentNtB4_15SubagentManager13save_subagent0B6_
FNDA:0,_RNCNvMNtCsa6QFEuJDwzK_9flexorama8subagentNtB4_15SubagentManager15create_subagent0B6_
FNDA:1,_RNCNvMNtCsa6QFEuJDwzK_9flexorama8subagentNtB4_15SubagentManager15delete_subagent0B6_
FNDA:1,_RNCNvMNtCsa6QFEuJDwzK_9flexorama8subagentNtB4_15SubagentManager15update_subagent0B6_
FNDA:6,_RNCNvMNtCsa6QFEuJDwzK_9flexorama8subagentNtB4_15SubagentManager18load_all_subagents0B6_
FNDA:3,_RNCNvMNtCsa6QFEuJDwzK_9flexorama8subagentNtB4_15SubagentManager23load_subagent_from_file0B6_
FNDA:0,_RNCNvMNtCsa6QFEuJDwzK_9flexorama8subagentNtB4_15SubagentManager3new0B6_
FNF:21
FNH:15
DA:42,2
DA:43,2
DA:44,2
DA:45,2
DA:46,2
DA:47,2
DA:48,2
DA:50,42
DA:52,42
DA:54,42
DA:55,42
DA:56,42
DA:57,42
DA:58,42
DA:59,42
DA:61,6
DA:62,6
DA:65,6
DA:66,0
DA:67,0
DA:68,0
DA:69,6
DA:71,6
DA:72,6
DA:73,0
DA:74,0
DA:75,0
DA:76,0
DA:80,6
DA:81,6
DA:82,9
DA:83,3
DA:84,3
DA:86,9
DA:87,3
DA:88,3
DA:89,3
DA:90,3
DA:91,3
DA:92,3
DA:93,0
DA:94,0
DA:97,0
DA:100,6
DA:101,6
DA:102,6
DA:103,6
DA:105,3
DA:106,3
DA:109,3
DA:112,3
DA:115,3
DA:116,0
DA:117,0
DA:118,0
DA:119,0
DA:120,3
DA:123,3
DA:124,0
DA:125,0
DA:126,0
DA:128,0
DA:131,3
DA:132,3
DA:135,3
DA:136,3
DA:139,3
DA:140,3
DA:141,3
DA:142,3
DA:143,3
DA:144,3
DA:145,3
DA:146,3
DA:147,3
DA:148,3
DA:149,3
DA:151,3
DA:152,3
DA:154,5
DA:155,5
DA:158,5
DA:159,5
DA:160,5
DA:161,5
DA:162,5
DA:163,5
DA:164,5
DA:165,5
DA:166,5
DA:167,5
DA:169,5
DA:171,5
DA:172,5
DA:173,5
DA:177,5
DA:178,5
DA:179,5
DA:180,5
DA:182,0
DA:183,0
DA:184,0
DA:185,0
DA:186,0
DA:187,0
DA:188,0
DA:189,0
DA:190,0
DA:191,0
DA:192,0
DA:193,0
DA:194,0
DA:195,0
DA:196,0
DA:197,0
DA:198,0
DA:199,0
DA:200,0
DA:202,0
DA:203,0
DA:204,0
DA:205,0
DA:207,2
DA:208,2
DA:209,2
DA:211,4
DA:212,4
DA:213,4
DA:215,1
DA:216,1
DA:217,1
DA:218,1
DA:221,1
DA:222,0
DA:223,1
DA:225,1
DA:226,1
DA:227,1
DA:229,1
DA:230,1
DA:231,1
DA:233,1
DA:234,1
DA:235,1
DA:236,1
DA:238,0
DA:239,0
DA:240,0
BRF:0
BRH:0
LF:159
LH:109
end_of_record
SF:/home/user/flexorama/src/tools/arg_macros.rs
FN:16,_RNCNCNvNtNtCsa6QFEuJDwzK_9flexorama5tools16create_directory16create_directory00B9_
FN:17,_RNCNCNvNtNtCsa6QFEuJDwzK_9flexorama5tools16create_directory16create_directory0s_0B9_
FN:17,_RNCNCNvNtNtCsa6QFEuJDwzK_9flexorama5tools11create_todo11create_todo0s0_0B9_
FN:16,_RNCNCNvNtNtCsa6QFEuJDwzK_9flexorama5tools11create_todo11create_todo0s_0B9_
FN:16,_RNCNCNvNtNtCsa6QFEuJDwzK_9flexorama5tools11delete_file11delete_file00B9_
FN:17,_RNCNCNvNtNtCsa6QFEuJDwzK_9flexorama5tools11delete_file11delete_file0s_0B9_
FN:16,_RNCNCNvNtNtCsa6QFEuJDwzK_9flexorama5tools9read_file9read_file00B9_
FN:17,_RNCNCNvNtNtCsa6QFEuJDwzK_9flexorama5tools9read_file9read_file0s_0B9_
FN:16,_RNCNCNvNtNtCsa6QFEuJDwzK_9flexorama5tools10write_file10write_file00B9_
FN:16,_RNCNCNvNtNtCsa6QFEuJDwzK_9flexorama5tools10write_file10write_file0s0_0B9_
FN:17,_RNCNCNvNtNtCsa6QFEuJDwzK_9flexorama5tools10write_file10write_file0s1_0B9_
FN:17,_RNCNCNvNtNtCsa6QFEuJDwzK_9flexorama5tools10write_file10write_file0s_0B9_
FN:16,_RNCNCNvNtNtCsa6QFEuJDwzK_9flexorama5tools13complete_todo13complete_todo0s0_0B9_
FN:17,_RNCNCNvNtNtCsa6QFEuJDwzK_9flexorama5tools13complete_todo13complete_todo0s1_0B9_
FN:17,_RNCNCNvNtNtCsa6QFEuJDwzK_9flexorama5tools4bash4bash0s0_0B9_
FN:16,_RNCNCNvNtNtCsa6QFEuJDwzK_9flexorama5tools4bash4bash0s_0B9_
FN:16,_RNCNCNvNtNtCsa6QFEuJDwzK_9flexorama5tools9edit_file9edit_file00B9_
FN:16,_RNCNCNvNtNtCsa6QFEuJDwzK_9flexorama5tools9edit_file9edit_file0s0_0B9_
FN:17,_RNCNCNvNtNtCsa6QFEuJDwzK_9flexorama5tools9edit_file9edit_file0s1_0B9_
FN:16,_RNCNCNvNtNtCsa6QFEuJDwzK_9flexorama5tools9edit_file9edit_file0s2_0B9_
FN:17,_RNCNCNvNtNtCsa6QFEuJDwzK_9flexorama5tools9edit_file9edit_file0s3_0B9_
FN:17,_RNCNCNvNtNtCsa6QFEuJDwzK_9flexorama5tools9edit_file9edit_file0s_0B9_
FNDA:6,_RNCNCNvNtNtCsa6QFEuJDwzK_9flexorama5tools16create_directory16create_directory00B9_
FNDA:0,_RNCNCNvNtNtCsa6QFEuJDwzK_9flexorama5tools16create_directory16create_directory0s_0B9_
FNDA:1,_RNCNCNvNtNtCsa6QFEuJDwzK_9flexorama5tools11create_todo11create_todo0s0_0B9_
FNDA:3,_RNCNCNvNtNtCsa6QFEuJDwzK_9flexorama5tools11create_todo11create_todo0s_0B9_
FNDA:6,_RNCNCNvNtNtCsa6QFEuJDwzK_9flexorama5tools11delete_file11delete_file00B9_
FNDA:0,_RNCNCNvNtNtCsa6QFEuJDwzK_9flexorama5tools11delete_file11delete_file0s_0B9_
FNDA:6,_RNCNCNvNtNtCsa6QFEuJDwzK_9flexorama5tools9read_file9read_file00B9_
FNDA:0,_RNCNCNvNtNtCsa6QFEuJDwzK_9flexorama5tools9read_file9read_file0s_0B9_
FNDA:8,_RNCNCNvNtNtCsa6QFEuJDwzK_9flexorama5tools10write_file10write_file00B9_
FNDA:8,_RNCNCNvNtNtCsa6QFEuJDwzK_9flexorama5tools10write_file10write_file0s0_0B9_
FNDA:0,_RNCNCNvNtNtCsa6QFEuJDwzK_9flexorama5tools10write_file10write_file0s1_0B9_
FNDA:0,_RNCNCNvNtNtCsa6QFEuJDwzK_9flexorama5tools10write_file10write_file0s_0B9_
FNDA:3,_RNCNCNvNtNtCsa6QFEuJDwzK_9flexorama5tools13complete_todo13complete_todo0s0_0B9_
FNDA:1,_RNCNCNvNtNtCsa6QFEuJDwzK_9flexorama5tools13complete_todo13complete_todo0s1_0B9_
FNDA:1,_RNCNCNvNtNtCsa6QFEuJDwzK_9flexorama5tools4bash4bash0s0_0B9_
FNDA:1,_RNCNCNvNtNtCsa6QFEuJDwzK_9flexorama5tools4bash4bash0s_0B9_
FNDA:8,_RNCNCNvNtNtCsa6QFEuJDwzK_9flexorama5tools9edit_file9edit_file00B9_
FNDA:8,_RNCNCNvNtNtCsa6QFEuJDwzK_9flexorama5tools9edit_file9edit_file0s0_0B9_
FNDA:0,_RNCNCNvNtNtCsa6QFEuJDwzK_9flexorama5tools9edit_file9edit_file0s1_0B9_
FNDA:8,_RNCNCNvNtNtCsa6QFEuJDwzK_9flexorama5tools9edit_file9edit_file0s2_0B9_
FNDA:0,_RNCNCNvNtNtCsa6QFEuJDwzK_9flexorama5tools9edit_file9edit_file0s3_0B9_
FNDA:0,_RNCNCNvNtNtCsa6QFEuJDwzK_9flexorama5tools9edit_file9edit_file0s_0B9_
FNF:2
FNH:2
DA:16,65
DA:17,3
BRF:0
BRH:0
LF:2
LH:2
end_of_record
SF:/home/user/flexorama/src/tools/bash.rs
FN:286,_RNvNtNtNtCsa6QFEuJDwzK_9flexorama5tools4bash5tests9make_call
FN:319,_RNvNtNtNtCsa6QFEuJDwzK_9flexorama5tools4bash5testss_37bash_rejects_missing_command_argument
FN:305,_RNvNtNtNtCsa6QFEuJDwzK_9flexorama5tools4bash5testss_42bash_returns_output_for_successful_command
FN:295,_RNvNtNtNtCsa6QFEuJDwzK_9flexorama5tools4bash5testss_49convert_unix_separators_preserves_quoted_segments
FN:319,_RNCNvNtNtNtCsa6QFEuJDwzK_9flexorama5tools4bash5testss_37bash_rejects_missing_command_argument0B9_
FN:305,_RNCNvNtNtNtCsa6QFEuJDwzK_9flexorama5tools4bash5testss_42bash_returns_output_for_successful_command0B9_
FN:263,_RNCNCNvNtNtCsa6QFEuJDwzK_9flexorama5tools4bash16create_bash_tool00B9_
FN:156,_RNCNCNvNtNtCsa6QFEuJDwzK_9flexorama5tools4bash4bash00B9_
FN:269,_RNCNvNCNCNvNtNtCsa6QFEuJDwzK_9flexorama5tools4bash16create_bash_tool0012bash_wrapper0Bd_
FN:260,_RNCNvNtNtCsa6QFEuJDwzK_9flexorama5tools4bash16create_bash_tool0B7_
FN:83,_RNCNvNtNtCsa6QFEuJDwzK_9flexorama5tools4bash4bash0B7_
FN:228,_RNCNvNtNtCsa6QFEuJDwzK_9flexorama5tools4bash9bash_sync0B7_
FN:265,_RNvNCNCNvNtNtCsa6QFEuJDwzK_9flexorama5tools4bash16create_bash_tool0012bash_wrapper
FN:238,_RNvNtNtCsa6QFEuJDwzK_9flexorama5tools4bash16create_bash_tool
FN:11,_RNvNtNtCsa6QFEuJDwzK_9flexorama5tools4bash34convert_unix_separators_to_windows
FN:79,_RNvNtNtCsa6QFEuJDwzK_9flexorama5tools4bash4bash
FN:225,_RNvNtNtCsa6QFEuJDwzK_9flexorama5tools4bash9bash_sync
FNDA:2,_RNvNtNtNtCsa6QFEuJDwzK_9flexorama5tools4bash5tests9make_call
FNDA:1,_RNvNtNtNtCsa6QFEuJDwzK_9flexorama5tools4bash5testss_37bash_rejects_missing_command_argument
FNDA:1,_RNvNtNtNtCsa6QFEuJDwzK_9flexorama5tools4bash5testss_42bash_returns_output_for_successful_command
FNDA:1,_RNvNtNtNtCsa6QFEuJDwzK_9flexorama5tools4bash5testss_49convert_unix_separators_preserves_quoted_segments
FNDA:1,_RNCNvNtNtNtCsa6QFEuJDwzK_9flexorama5tools4bash5testss_37bash_rejects_missing_command_argument0B9_
FNDA:1,_RNCNvNtNtNtCsa6QFEuJDwzK_9flexorama5tools4bash5testss_42bash_returns_output_for_successful_command0B9_
FNDA:0,_RNCNCNvNtNtCsa6QFEuJDwzK_9flexorama5tools4bash16create_bash_tool00B9_
FNDA:1,_RNCNCNvNtNtCsa6QFEuJDwzK_9flexorama5tools4bash4bash00B9_
FNDA:0,_RNCNvNCNCNvNtNtCsa6QFEuJDwzK_9flexorama5tools4bash16create_bash_tool0012bash_wrapper0Bd_
FNDA:0,_RNCNvNtNtCsa6QFEuJDwzK_9flexorama5tools4bash16create_bash_tool0B7_
FNDA:2,_RNCNvNtNtCsa6QFEuJDwzK_9flexorama5tools4bash4bash0B7_
FNDA:0,_RNCNvNtNtCsa6QFEuJDwzK_9flexorama5tools4bash9bash_sync0B7_
FNDA:0,_RNvNCNCNvNtNtCsa6QFEuJDwzK_9flexorama5tools4bash16create_bash_tool0012bash_wrapper
FNDA:80,_RNvNtNtCsa6QFEuJDwzK_9flexorama5tools4bash16create_bash_tool
FNDA:1,_RNvNtNtCsa6QFEuJDwzK_9flexorama5tools4bash34convert_unix_separators_to_windows
FNDA:2,_RNvNtNtCsa6QFEuJDwzK_9flexorama5tools4bash4bash
FNDA:0,_RNvNtNtCsa6QFEuJDwzK_9flexorama5tools4bash9bash_sync
FNF:17
FNH:11
DA:11,1
DA:12,1
DA:13,1
DA:14,1
DA:15,1
DA:17,33
DA:18,32
DA:20,0
DA:23,1
DA:24,1
DA:26,7
DA:27,7
DA:28,7
DA:29,1
DA:30,6
DA:31,6
DA:33,1
DA:36,1
DA:37,1
DA:39,7
DA:40,7
DA:41,7
DA:42,1
DA:43,6
DA:44,6
DA:46,1
DA:49,1
DA:50,1
DA:51,1
DA:52,1
DA:54,1
DA:55,1
DA:56,1
DA:57,1
DA:59,1
DA:60,1
DA:61,1
DA:62,1
DA:64,0
DA:65,0
DA:66,0
DA:67,0
DA:69,27
DA:70,27
DA:71,27
DA:72,27
DA:76,1
DA:77,1
DA:79,2
DA:80,2
DA:81,2
DA:82,2
DA:83,2
DA:84,2
DA:86,1
DA:88,1
DA:89,1
DA:92,1
DA:93,1
DA:95,0
DA:97,0
DA:100,0
DA:101,0
DA:102,0
DA:103,0
DA:104,0
DA:108,0
DA:111,0
DA:112,0
DA:115,0
DA:119,0
DA:122,0
DA:123,0
DA:124,0
DA:125,0
DA:126,0
DA:127,0
DA:128,0
DA:129,0
DA:131,0
DA:132,0
DA:133,0
DA:134,0
DA:135,0
DA:136,0
DA:137,0
DA:138,0
DA:139,0
DA:147,1
DA:149,0
DA:151,1
DA:155,1
DA:156,1
DA:175,1
DA:177,1
DA:178,1
DA:180,1
DA:181,1
DA:182,1
DA:184,1
DA:185,0
DA:186,0
DA:187,0
DA:192,1
DA:193,1
DA:194,1
DA:199,1
DA:202,1
DA:203,0
DA:204,1
DA:206,1
DA:207,1
DA:208,1
DA:209,1
DA:210,1
DA:212,0
DA:213,0
DA:214,0
DA:215,0
DA:216,0
DA:217,0
DA:218,0
DA:219,0
DA:220,0
DA:221,0
DA:223,2
DA:225,0
DA:226,0
DA:227,0
DA:228,0
DA:232,0
DA:233,0
DA:234,0
DA:235,0
DA:236,0
DA:238,80
DA:239,80
DA:240,80
DA:241,80
DA:243,80
DA:244,80
DA:245,0
DA:246,0
DA:248,80
DA:250,80
DA:251,80
DA:252,80
DA:253,80
DA:254,80
DA:255,80
DA:258,80
DA:260,80
DA:261,0
DA:262,0
DA:263,0
DA:265,0
DA:266,0
DA:267,0
DA:268,0
DA:269,0
DA:270,0
DA:271,0
DA:272,0
DA:274,0
DA:275,0
DA:276,0
DA:277,80
DA:279,80
DA:286,2
DA:287,2
DA:288,2
DA:289,2
DA:290,2
DA:291,2
DA:292,2
DA:295,1
DA:296,1
DA:297,1
DA:298,1
DA:302,1
DA:305,1
DA:306,1
DA:307,1
DA:308,1
DA:309,1
DA:310,1
DA:311,1
DA:313,1
DA:314,1
DA:315,1
DA:316,1
DA:319,1
DA:320,1
DA:321,1
DA:322,1
DA:323,1
DA:325,1
DA:326,1
DA:327,1
DA:328,1
BRF:0
BRH:0
LF:210
LH:132
end_of_record
SF:/home/user/flexorama/src/tools/builtin.rs
FN:10,_RNvNtNtCsa6QFEuJDwzK_9flexorama5tools7builtin17get_builtin_tools
FN:32,_RNCNCNvNtNtCsa6QFEuJDwzK_9flexorama5tools7builtin17get_builtin_tools00B9_
FN:78,_RNCNCNvNtNtCsa6QFEuJDwzK_9flexorama5tools7builtin17get_builtin_toolss0_00B9_
FN:58,_RNCNCNvNtNtCsa6QFEuJDwzK_9flexorama5tools7builtin17get_builtin_toolss_00B9_
FN:31,_RNCNvNtNtCsa6QFEuJDwzK_9flexorama5tools7builtin17get_builtin_tools0B7_
FN:77,_RNCNvNtNtCsa6QFEuJDwzK_9flexorama5tools7builtin17get_builtin_toolss0_0B7_
FN:57,_RNCNvNtNtCsa6QFEuJDwzK_9flexorama5tools7builtin17get_builtin_toolss_0B7_
FNDA:115,_RNvNtNtCsa6QFEuJDwzK_9flexorama5tools7builtin17get_builtin_tools
FNDA:0,_RNCNCNvNtNtCsa6QFEuJDwzK_9flexorama5tools7builtin17get_builtin_tools00B9_
FNDA:0,_RNCNCNvNtNtCsa6QFEuJDwzK_9flexorama5tools7builtin17get_builtin_toolss0_00B9_
FNDA:0,_RNCNCNvNtNtCsa6QFEuJDwzK_9flexorama5tools7builtin17get_builtin_toolss_00B9_
FNDA:0,_RNCNvNtNtCsa6QFEuJDwzK_9flexorama5tools7builtin17get_builtin_tools0B7_
FNDA:0,_RNCNvNtNtCsa6QFEuJDwzK_9flexorama5tools7builtin17get_builtin_toolss0_0B7_
FNDA:0,_RNCNvNtNtCsa6QFEuJDwzK_9flexorama5tools7builtin17get_builtin_toolss_0B7_
FNF:7
FNH:1
DA:10,115
DA:11,115
DA:12,115
DA:13,115
DA:14,115
DA:15,115
DA:18,115
DA:19,115
DA:20,115
DA:21,115
DA:22,115
DA:23,115
DA:24,115
DA:25,115
DA:26,115
DA:29,115
DA:31,115
DA:32,0
DA:33,0
DA:34,0
DA:35,0
DA:36,0
DA:37,0
DA:38,0
DA:39,0
DA:40,115
DA:43,115
DA:45,115
DA:46,115
DA:47,115
DA:48,115
DA:49,115
DA:50,115
DA:51,115
DA:52,115
DA:55,115
DA:57,115
DA:58,0
DA:59,0
DA:60,0
DA:61,0
DA:62,0
DA:63,0
DA:64,0
DA:65,0
DA:66,115
DA:69,115
DA:70,115
DA:71,115
DA:72,115
DA:73,115
DA:74,115
DA:75,115
DA:77,115
DA:78,0
DA:79,0
DA:80,0
DA:81,0
DA:82,0
DA:83,0
DA:84,0
DA:85,0
DA:86,115
DA:88,115
DA:89,115
DA:90,115
DA:91,115
DA:92,115
DA:93,115
DA:94,115
DA:95,115
DA:96,115
DA:97,115
DA:98,115
DA:99,115
DA:100,115
DA:101,115
DA:102,115
DA:103,115
DA:104,115
DA:105,115
DA:106,115
DA:107,115
DA:108,115
DA:109,115
DA:110,115
DA:111,115
DA:112,115
DA:113,115
DA:114,115
DA:115,115
DA:116,115
DA:117,115
DA:118,115
DA:119,115
DA:120,115
DA:121,115
DA:122,115
DA:123,115
DA:124,115
DA:125,115
DA:126,115
DA:127,115
DA:128,115
DA:129,115
DA:130,115
DA:131,115
DA:132,115
DA:133,115
DA:134,115
DA:135,115
DA:136,115
DA:137,115
DA:138,115
DA:139,115
DA:140,115
DA:141,115
DA:142,115
DA:143,115
DA:144,115
DA:145,115
DA:146,115
DA:147,115
DA:148,115
DA:149,115
DA:150,115
DA:151,115
DA:152,115
DA:153,115
DA:154,115
DA:155,115
DA:156,115
DA:157,115
DA:158,115
DA:159,115
DA:160,115
DA:161,115
DA:162,115
DA:163,115
DA:166,115
DA:167,115
DA:168,115
DA:169,115
DA:170,115
DA:171,115
DA:172,115
DA:173,115
DA:174,115
DA:175,115
DA:176,115
DA:177,115
DA:178,115
DA:179,115
DA:180,115
DA:181,115
DA:183,115
BRF:0
BRH:0
LF:162
LH:132
end_of_record
SF:/home/user/flexorama/src/tools/complete_todo.rs
FN:6,_RNvNtNtCsa6QFEuJDwzK_9flexorama5tools13complete_todo13complete_todo
FN:54,_RNvNtNtNtCsa6QFEuJDwzK_9flexorama5tools13complete_todo5tests11sample_todo
FN:102,_RNvNtNtNtCsa6QFEuJDwzK_9flexorama5tools13complete_todo5testss_25complete_todo_requires_id
FN:83,_RNvNtNtNtCsa6QFEuJDwzK_9flexorama5tools13complete_todo5testss_27complete_todo_is_idempotent
FN:115,_RNvNtNtNtCsa6QFEuJDwzK_9flexorama5tools13complete_todo5testss_33complete_todo_errors_when_missing
FN:63,_RNvNtNtNtCsa6QFEuJDwzK_9flexorama5tools13complete_todo5testss_33complete_todo_marks_item_complete
FN:17,_RNCNCNvNtNtCsa6QFEuJDwzK_9flexorama5tools13complete_todo13complete_todo00B9_
FN:18,_RNCNCNvNtNtCsa6QFEuJDwzK_9flexorama5tools13complete_todo13complete_todo0s_0B9_
FN:9,_RNCNvNtNtCsa6QFEuJDwzK_9flexorama5tools13complete_todo13complete_todo0B7_
FN:102,_RNCNvNtNtNtCsa6QFEuJDwzK_9flexorama5tools13complete_todo5testss_25complete_todo_requires_id0B9_
FN:83,_RNCNvNtNtNtCsa6QFEuJDwzK_9flexorama5tools13complete_todo5testss_27complete_todo_is_idempotent0B9_
FN:115,_RNCNvNtNtNtCsa6QFEuJDwzK_9flexorama5tools13complete_todo5testss_33complete_todo_errors_when_missing0B9_
FN:63,_RNCNvNtNtNtCsa6QFEuJDwzK_9flexorama5tools13complete_todo5testss_33complete_todo_marks_item_complete0B9_
FNDA:4,_RNvNtNtCsa6QFEuJDwzK_9flexorama5tools13complete_todo13complete_todo
FNDA:4,_RNvNtNtNtCsa6QFEuJDwzK_9flexorama5tools13complete_todo5tests11sample_todo
FNDA:1,_RNvNtNtNtCsa6QFEuJDwzK_9flexorama5tools13complete_todo5testss_25complete_todo_requires_id
FNDA:1,_RNvNtNtNtCsa6QFEuJDwzK_9flexorama5tools13complete_todo5testss_27complete_todo_is_idempotent
FNDA:1,_RNvNtNtNtCsa6QFEuJDwzK_9flexorama5tools13complete_todo5testss_33complete_todo_errors_when_missing
FNDA:1,_RNvNtNtNtCsa6QFEuJDwzK_9flexorama5tools13complete_todo5testss_33complete_todo_marks_item_complete
FNDA:3,_RNCNCNvNtNtCsa6QFEuJDwzK_9flexorama5tools13complete_todo13complete_todo00B9_
FNDA:1,_RNCNCNvNtNtCsa6QFEuJDwzK_9flexorama5tools13complete_todo13complete_todo0s_0B9_
FNDA:4,_RNCNvNtNtCsa6QFEuJDwzK_9flexorama5tools13complete_todo13complete_todo0B7_
FNDA:1,_RNCNvNtNtNtCsa6QFEuJDwzK_9flexorama5tools13complete_todo5testss_25complete_todo_requires_id0B9_
FNDA:1,_RNCNvNtNtNtCsa6QFEuJDwzK_9flexorama5tools13complete_todo5testss_27complete_todo_is_idempotent0B9_
FNDA:1,_RNCNvNtNtNtCsa6QFEuJDwzK_9flexorama5tools13complete_todo5testss_33complete_todo_errors_when_missing0B9_
FNDA:1,_RNCNvNtNtNtCsa6QFEuJDwzK_9flexorama5tools13complete_todo5testss_33complete_todo_marks_item_complete0B9_
FNF:13
FNH:13
DA:6,4
DA:7,4
DA:8,4
DA:9,4
DA:10,4
DA:12,3
DA:15,3
DA:16,3
DA:17,3
DA:18,3
DA:20,2
DA:21,1
DA:22,1
DA:23,1
DA:26,1
DA:27,1
DA:28,1
DA:29,1
DA:30,1
DA:31,1
DA:33,1
DA:35,1
DA:36,1
DA:37,1
DA:40,1
DA:41,1
DA:42,1
DA:43,1
DA:44,1
DA:45,4
DA:54,4
DA:55,4
DA:56,4
DA:57,4
DA:58,4
DA:59,4
DA:60,4
DA:63,1
DA:64,1
DA:65,1
DA:66,1
DA:67,1
DA:68,1
DA:69,1
DA:71,1
DA:73,1
DA:74,1
DA:75,1
DA:77,1
DA:78,1
DA:79,1
DA:80,1
DA:83,1
DA:84,1
DA:85,1
DA:86,1
DA:87,1
DA:88,1
DA:89,1
DA:91,1
DA:93,1
DA:94,1
DA:95,1
DA:97,1
DA:98,1
DA:99,1
DA:102,1
DA:103,1
DA:104,1
DA:105,1
DA:106,1
DA:107,1
DA:108,1
DA:110,1
DA:111,1
DA:112,1
DA:115,1
DA:116,1
DA:117,1
DA:118,1
DA:119,1
DA:120,1
DA:121,1
DA:123,1
DA:124,1
DA:125,1
DA:126,1
BRF:0
BRH:0
LF:98
LH:98
end_of_record
SF:/home/user/flexorama/src/tools/create_directory.rs
FN:103,_RNCNCNvNtNtCsa6QFEuJDwzK_9flexorama5tools16create_directory28create_create_directory_tool00B9_
FN:109,_RNCNvNCNCNvNtNtCsa6QFEuJDwzK_9flexorama5tools16create_directory28create_create_directory_tool0024create_directory_wrapper0Bd_
FN:14,_RNCNvNtNtCsa6QFEuJDwzK_9flexorama5tools16create_directory16create_directory0B7_
FN:69,_RNCNvNtNtCsa6QFEuJDwzK_9flexorama5tools16create_directory21create_directory_sync0B7_
FN:100,_RNCNvNtNtCsa6QFEuJDwzK_9flexorama5tools16create_directory28create_create_directory_tool0B7_
FN:105,_RNvNCNCNvNtNtCsa6QFEuJDwzK_9flexorama5tools16create_directory28create_create_directory_tool0024create_directory_wrapper
FN:10,_RNvNtNtCsa6QFEuJDwzK_9flexorama5tools16create_directory16create_directory
FN:66,_RNvNtNtCsa6QFEuJDwzK_9flexorama5tools16create_directory21create_directory_sync
FN:79,_RNvNtNtCsa6QFEuJDwzK_9flexorama5tools16create_directory28create_create_directory_tool
FNDA:0,_RNCNCNvNtNtCsa6QFEuJDwzK_9flexorama5tools16create_directory28create_create_directory_tool00B9_
FNDA:0,_RNCNvNCNCNvNtNtCsa6QFEuJDwzK_9flexorama5tools16create_directory28create_create_directory_tool0024create_directory_wrapper0Bd_
FNDA:6,_RNCNvNtNtCsa6QFEuJDwzK_9flexorama5tools16create_directory16create_directory0B7_
FNDA:0,_RNCNvNtNtCsa6QFEuJDwzK_9flexorama5tools16create_directory21create_directory_sync0B7_
FNDA:0,_RNCNvNtNtCsa6QFEuJDwzK_9flexorama5tools16create_directory28create_create_directory_tool0B7_
FNDA:0,_RNvNCNCNvNtNtCsa6QFEuJDwzK_9flexorama5tools16create_directory28create_create_directory_tool0024create_directory_wrapper
FNDA:6,_RNvNtNtCsa6QFEuJDwzK_9flexorama5tools16create_directory16create_directory
FNDA:0,_RNvNtNtCsa6QFEuJDwzK_9flexorama5tools16create_directory21create_directory_sync
FNDA:80,_RNvNtNtCsa6QFEuJDwzK_9flexorama5tools16create_directory28create_create_directory_tool
FNF:9
FNH:3
DA:10,6
DA:11,6
DA:12,6
DA:13,6
DA:14,6
DA:15,6
DA:17,6
DA:19,6
DA:21,6
DA:22,4
DA:23,2
DA:24,2
DA:25,2
DA:26,2
DA:27,2
DA:28,2
DA:33,4
DA:34,4
DA:35,4
DA:36,4
DA:37,4
DA:38,4
DA:39,4
DA:40,4
DA:42,0
DA:43,4
DA:45,4
DA:46,3
DA:47,3
DA:48,3
DA:49,3
DA:50,3
DA:51,3
DA:52,3
DA:53,3
DA:54,1
DA:55,1
DA:56,1
DA:57,1
DA:58,1
DA:59,1
DA:60,1
DA:61,1
DA:62,1
DA:64,6
DA:66,0
DA:67,0
DA:68,0
DA:69,0
DA:73,0
DA:74,0
DA:75,0
DA:76,0
DA:77,0
DA:79,80
DA:80,80
DA:81,80
DA:82,80
DA:84,80
DA:85,80
DA:86,0
DA:88,80
DA:90,80
DA:91,80
DA:92,80
DA:93,80
DA:94,80
DA:95,80
DA:98,80
DA:100,80
DA:101,0
DA:102,0
DA:103,0
DA:105,0
DA:106,0
DA:107,0
DA:108,0
DA:109,0
DA:110,0
DA:111,0
DA:112,0
DA:114,0
DA:115,0
DA:116,0
DA:117,80
DA:119,80
BRF:0
BRH:0
LF:91
LH:62
end_of_record
SF:/home/user/flexorama/src/tools/create_todo.rs
FN:11,_RNCNCNvNtNtCsa6QFEuJDwzK_9flexorama5tools11create_todo11create_todo00B9_
FN:6,_RNCNvNtNtCsa6QFEuJDwzK_9flexorama5tools11create_todo11create_todo0B7_
FN:93,_RNvNtNtNtCsa6QFEuJDwzK_9flexorama5tools11create_todo5testss_32create_todo_requires_description
FN:107,_RNvNtNtNtCsa6QFEuJDwzK_9flexorama5tools11create_todo5testss_34create_todo_dedupes_by_description
FN:67,_RNvNtNtNtCsa6QFEuJDwzK_9flexorama5tools11create_todo5testss_42create_todo_adds_item_and_returns_response
FN:6,_RNvNtNtCsa6QFEuJDwzK_9flexorama5tools11create_todo11create_todo
FN:51,_RNvNtNtCsa6QFEuJDwzK_9flexorama5tools11create_todo11generate_id
FN:84,_RNCNCNvNtNtNtCsa6QFEuJDwzK_9flexorama5tools11create_todo5testss_42create_todo_adds_item_and_returns_response00Bb_
FN:93,_RNCNvNtNtNtCsa6QFEuJDwzK_9flexorama5tools11create_todo5testss_32create_todo_requires_description0B9_
FN:107,_RNCNvNtNtNtCsa6QFEuJDwzK_9flexorama5tools11create_todo5testss_34create_todo_dedupes_by_description0B9_
FN:67,_RNCNvNtNtNtCsa6QFEuJDwzK_9flexorama5tools11create_todo5testss_42create_todo_adds_item_and_returns_response0B9_
FNDA:1,_RNCNCNvNtNtCsa6QFEuJDwzK_9flexorama5tools11create_todo11create_todo00B9_
FNDA:4,_RNCNvNtNtCsa6QFEuJDwzK_9flexorama5tools11create_todo11create_todo0B7_
FNDA:1,_RNvNtNtNtCsa6QFEuJDwzK_9flexorama5tools11create_todo5testss_32create_todo_requires_description
FNDA:1,_RNvNtNtNtCsa6QFEuJDwzK_9flexorama5tools11create_todo5testss_34create_todo_dedupes_by_description
FNDA:1,_RNvNtNtNtCsa6QFEuJDwzK_9flexorama5tools11create_todo5testss_42create_todo_adds_item_and_returns_response
FNDA:4,_RNvNtNtCsa6QFEuJDwzK_9flexorama5tools11create_todo11create_todo
FNDA:2,_RNvNtNtCsa6QFEuJDwzK_9flexorama5tools11create_todo11generate_id
FNDA:13,_RNCNCNvNtNtNtCsa6QFEuJDwzK_9flexorama5tools11create_todo5testss_42create_todo_adds_item_and_returns_response00Bb_
FNDA:1,_RNCNvNtNtNtCsa6QFEuJDwzK_9flexorama5tools11create_todo5testss_32create_todo_requires_description0B9_
FNDA:1,_RNCNvNtNtNtCsa6QFEuJDwzK_9flexorama5tools11create_todo5testss_34create_todo_dedupes_by_description0B9_
FNDA:1,_RNCNvNtNtNtCsa6QFEuJDwzK_9flexorama5tools11create_todo5testss_42create_todo_adds_item_and_returns_response0B9_
FNF:11
FNH:11
DA:6,4
DA:7,4
DA:9,3
DA:11,3
DA:12,1
DA:13,1
DA:14,1
DA:16,1
DA:17,1
DA:18,1
DA:19,1
DA:20,1
DA:21,2
DA:24,2
DA:25,2
DA:26,2
DA:27,2
DA:28,2
DA:30,2
DA:32,2
DA:33,2
DA:34,2
DA:37,2
DA:38,2
DA:39,2
DA:40,2
DA:41,2
DA:42,4
DA:51,2
DA:52,2
DA:53,2
DA:54,2
DA:55,2
DA:56,2
DA:57,2
DA:58,2
DA:67,1
DA:68,1
DA:69,1
DA:70,1
DA:71,1
DA:72,1
DA:73,1
DA:75,1
DA:77,1
DA:78,1
DA:79,1
DA:80,1
DA:81,1
DA:82,1
DA:83,1
DA:84,13
DA:86,1
DA:87,1
DA:88,1
DA:89,1
DA:90,1
DA:93,1
DA:94,1
DA:95,1
DA:96,1
DA:97,1
DA:98,1
DA:99,1
DA:101,1
DA:102,1
DA:103,1
DA:104,1
DA:107,1
DA:108,1
DA:109,1
DA:110,1
DA:111,1
DA:112,1
DA:113,1
DA:115,1
DA:116,1
DA:118,1
DA:119,1
DA:120,1
DA:121,1
DA:122,1
DA:123,1
BRF:0
BRH:0
LF:92
LH:92
end_of_record
SF:/home/user/flexorama/src/tools/delete_file.rs
FN:131,_RNCNCNvNtNtCsa6QFEuJDwzK_9flexorama5tools11delete_file23create_delete_file_tool00B9_
FN:137,_RNCNvNCNCNvNtNtCsa6QFEuJDwzK_9flexorama5tools11delete_file23create_delete_file_tool0019delete_file_wrapper0Bd_
FN:14,_RNCNvNtNtCsa6QFEuJDwzK_9flexorama5tools11delete_file11delete_file0B7_
FN:97,_RNCNvNtNtCsa6QFEuJDwzK_9flexorama5tools11delete_file16delete_file_sync0B7_
FN:128,_RNCNvNtNtCsa6QFEuJDwzK_9flexorama5tools11delete_file23create_delete_file_tool0B7_
FN:133,_RNvNCNCNvNtNtCsa6QFEuJDwzK_9flexorama5tools11delete_file23create_delete_file_tool0019delete_file_wrapper
FN:10,_RNvNtNtCsa6QFEuJDwzK_9flexorama5tools11delete_file11delete_file
FN:94,_RNvNtNtCsa6QFEuJDwzK_9flexorama5tools11delete_file16delete_file_sync
FN:107,_RNvNtNtCsa6QFEuJDwzK_9flexorama5tools11delete_file23create_delete_file_tool
FNDA:0,_RNCNCNvNtNtCsa6QFEuJDwzK_9flexorama5tools11delete_file23create_delete_file_tool00B9_
FNDA:0,_RNCNvNCNCNvNtNtCsa6QFEuJDwzK_9flexorama5tools11delete_file23create_delete_file_tool0019delete_file_wrapper0Bd_
FNDA:6,_RNCNvNtNtCsa6QFEuJDwzK_9flexorama5tools11delete_file11delete_file0B7_
FNDA:0,_RNCNvNtNtCsa6QFEuJDwzK_9flexorama5tools11delete_file16delete_file_sync0B7_
FNDA:0,_RNCNvNtNtCsa6QFEuJDwzK_9flexorama5tools11delete_file23create_delete_file_tool0B7_
FNDA:0,_RNvNCNCNvNtNtCsa6QFEuJDwzK_9flexorama5tools11delete_file23create_delete_file_tool0019delete_file_wrapper
FNDA:6,_RNvNtNtCsa6QFEuJDwzK_9flexorama5tools11delete_file11delete_file
FNDA:0,_RNvNtNtCsa6QFEuJDwzK_9flexorama5tools11delete_file16delete_file_sync
FNDA:80,_RNvNtNtCsa6QFEuJDwzK_9flexorama5tools11delete_file23create_delete_file_tool
FNF:9
FNH:3
DA:10,6
DA:11,6
DA:12,6
DA:13,6
DA:14,6
DA:15,6
DA:17,6
DA:19,6
DA:21,6
DA:22,4
DA:23,2
DA:24,2
DA:25,2
DA:26,2
DA:27,2
DA:28,2
DA:33,4
DA:34,4
DA:35,4
DA:36,4
DA:37,4
DA:38,4
DA:39,4
DA:40,4
DA:42,0
DA:43,4
DA:45,4
DA:46,3
DA:47,3
DA:48,2
DA:49,2
DA:50,2
DA:51,2
DA:52,2
DA:53,2
DA:54,2
DA:55,2
DA:56,2
DA:57,0
DA:58,0
DA:59,0
DA:60,0
DA:61,0
DA:62,0
DA:63,0
DA:64,0
DA:65,0
DA:68,1
DA:69,1
DA:70,1
DA:71,1
DA:72,1
DA:73,1
DA:74,0
DA:75,0
DA:76,0
DA:77,0
DA:78,0
DA:79,0
DA:80,0
DA:81,0
DA:82,0
DA:86,1
DA:87,1
DA:88,1
DA:89,1
DA:90,1
DA:92,6
DA:94,0
DA:95,0
DA:96,0
DA:97,0
DA:101,0
DA:102,0
DA:103,0
DA:104,0
DA:105,0
DA:107,80
DA:108,80
DA:109,80
DA:110,80
DA:112,80
DA:113,80
DA:114,0
DA:116,80
DA:118,80
DA:119,80
DA:120,80
DA:121,80
DA:122,80
DA:123,80
DA:126,80
DA:128,80
DA:129,0
DA:130,0
DA:131,0
DA:133,0
DA:134,0
DA:135,0
DA:136,0
DA:137,0
DA:138,0
DA:139,0
DA:140,0
DA:142,0
DA:143,0
DA:144,0
DA:145,80
DA:147,80
BRF:0
BRH:0
LF:114
LH:67
end_of_record
SF:/home/user/flexorama/src/tools/display/factory.rs
FN:19,_RNCNvMNtNtNtCsa6QFEuJDwzK_9flexorama5tools7display7factoryNtB4_14DisplayFactory14create_display0Ba_
FN:11,_RNvMNtNtNtCsa6QFEuJDwzK_9flexorama5tools7display7factoryNtB2_14DisplayFactory14create_display
FN:38,_RNvMNtNtNtCsa6QFEuJDwzK_9flexorama5tools7display7factoryNtB2_14DisplayFactory18detect_output_mode
FNDA:0,_RNCNvMNtNtNtCsa6QFEuJDwzK_9flexorama5tools7display7factoryNtB4_14DisplayFactory14create_display0Ba_
FNDA:0,_RNvMNtNtNtCsa6QFEuJDwzK_9flexorama5tools7display7factoryNtB2_14DisplayFactory14create_display
FNDA:0,_RNvMNtNtNtCsa6QFEuJDwzK_9flexorama5tools7display7factoryNtB2_14DisplayFactory18detect_output_mode
FNF:3
FNH:0
DA:11,0
DA:12,0
DA:13,0
DA:14,0
DA:15,0
DA:16,0
DA:17,0
DA:18,0
DA:19,0
DA:20,0
DA:21,0
DA:23,0
DA:24,0
DA:25,0
DA:26,0
DA:27,0
DA:28,0
DA:29,0
DA:31,0
DA:32,0
DA:33,0
DA:35,0
DA:38,0
DA:39,0
DA:40,0
DA:41,0
DA:43,0
DA:44,0
DA:46,0
DA:48,0
BRF:0
BRH:0
LF:31
LH:0
end_of_record
SF:/home/user/flexorama/src/tools/display/mod.rs
FN:6,_RNvYNtNtNtNtCsa6QFEuJDwzK_9flexorama5tools7display6simple13SimpleDisplayNtB6_11ToolDisplay17show_call_detailsBa_
FNDA:0,_RNvYNtNtNtNtCsa6QFEuJDwzK_9flexorama5tools7display6simple13SimpleDisplayNtB6_11ToolDisplay17show_call_detailsBa_
FNF:1
FNH:0
DA:6,0
DA:7,0
DA:9,0
BRF:0
BRH:0
LF:3
LH:0
end_of_record
SF:/home/user/flexorama/src/tools/display/pretty.rs
FN:35,_RNCNvMNtNtNtCsa6QFEuJDwzK_9flexorama5tools7display6prettyNtB4_13PrettyDisplay20format_inline_params0Ba_
FN:50,_RNCNvMNtNtNtCsa6QFEuJDwzK_9flexorama5tools7display6prettyNtB4_13PrettyDisplay20format_inline_paramss0_0Ba_
FN:53,_RNCNvMNtNtNtCsa6QFEuJDwzK_9flexorama5tools7display6prettyNtB4_13PrettyDisplay20format_inline_paramss1_0Ba_
FN:56,_RNCNvMNtNtNtCsa6QFEuJDwzK_9flexorama5tools7display6prettyNtB4_13PrettyDisplay20format_inline_paramss2_0Ba_
FN:62,_RNCNvMNtNtNtCsa6QFEuJDwzK_9flexorama5tools7display6prettyNtB4_13PrettyDisplay20format_inline_paramss3_0Ba_
FN:67,_RNCNvMNtNtNtCsa6QFEuJDwzK_9flexorama5tools7display6prettyNtB4_13PrettyDisplay20format_inline_paramss4_0Ba_
FN:77,_RNCNvMNtNtNtCsa6QFEuJDwzK_9flexorama5tools7display6prettyNtB4_13PrettyDisplay20format_inline_paramss5_0Ba_
FN:46,_RNCNvMNtNtNtCsa6QFEuJDwzK_9flexorama5tools7display6prettyNtB4_13PrettyDisplay20format_inline_paramss_0Ba_
FN:18,_RNvMNtNtNtCsa6QFEuJDwzK_9flexorama5tools7display6prettyNtB2_13PrettyDisplay16get_current_time
FN:31,_RNvMNtNtNtCsa6QFEuJDwzK_9flexorama5tools7display6prettyNtB2_13PrettyDisplay20format_inline_params
FN:13,_RNvMNtNtNtCsa6QFEuJDwzK_9flexorama5tools7display6prettyNtB2_13PrettyDisplay3new
FN:145,_RNvXs_NtNtNtCsa6QFEuJDwzK_9flexorama5tools7display6prettyNtB4_13PrettyDisplayNtB6_11ToolDisplay14complete_error
FN:99,_RNvXs_NtNtNtCsa6QFEuJDwzK_9flexorama5tools7display6prettyNtB4_13PrettyDisplayNtB6_11ToolDisplay16complete_success
FN:94,_RNvXs_NtNtNtCsa6QFEuJDwzK_9flexorama5tools7display6prettyNtB4_13PrettyDisplayNtB6_11ToolDisplay17show_call_details
FNDA:0,_RNCNvMNtNtNtCsa6QFEuJDwzK_9flexorama5tools7display6prettyNtB4_13PrettyDisplay20format_inline_params0Ba_
FNDA:0,_RNCNvMNtNtNtCsa6QFEuJDwzK_9flexorama5tools7display6prettyNtB4_13PrettyDisplay20format_inline_paramss0_0Ba_
FNDA:0,_RNCNvMNtNtNtCsa6QFEuJDwzK_9flexorama5tools7display6prettyNtB4_13PrettyDisplay20format_inline_paramss1_0Ba_
FNDA:0,_RNCNvMNtNtNtCsa6QFEuJDwzK_9flexorama5tools7display6prettyNtB4_13PrettyDisplay20format_inline_paramss2_0Ba_
FNDA:0,_RNCNvMNtNtNtCsa6QFEuJDwzK_9flexorama5tools7display6prettyNtB4_13PrettyDisplay20format_inline_paramss3_0Ba_
FNDA:0,_RNCNvMNtNtNtCsa6QFEuJDwzK_9flexorama5tools7display6prettyNtB4_13PrettyDisplay20format_inline_paramss4_0Ba_
FNDA:0,_RNCNvMNtNtNtCsa6QFEuJDwzK_9flexorama5tools7display6prettyNtB4_13PrettyDisplay20format_inline_paramss5_0Ba_
FNDA:0,_RNCNvMNtNtNtCsa6QFEuJDwzK_9flexorama5tools7display6prettyNtB4_13PrettyDisplay20format_inline_paramss_0Ba_
FNDA:0,_RNvMNtNtNtCsa6QFEuJDwzK_9flexorama5tools7display6prettyNtB2_13PrettyDisplay16get_current_time
FNDA:0,_RNvMNtNtNtCsa6QFEuJDwzK_9flexorama5tools7display6prettyNtB2_13PrettyDisplay20format_inline_params
FNDA:0,_RNvMNtNtNtCsa6QFEuJDwzK_9flexorama5tools7display6prettyNtB2_13PrettyDisplay3new
FNDA:0,_RNvXs_NtNtNtCsa6QFEuJDwzK_9flexorama5tools7display6prettyNtB4_13PrettyDisplayNtB6_11ToolDisplay14complete_error
FNDA:0,_RNvXs_NtNtNtCsa6QFEuJDwzK_9flexorama5tools7display6prettyNtB4_13PrettyDisplayNtB6_11ToolDisplay16complete_success
FNDA:0,_RNvXs_NtNtNtCsa6QFEuJDwzK_9flexorama5tools7display6prettyNtB4_13PrettyDisplayNtB6_11ToolDisplay17show_call_details
FNF:14
FNH:0
DA:13,0
DA:14,0
DA:15,0
DA:18,0
DA:19,0
DA:20,0
DA:21,0
DA:22,0
DA:23,0
DA:24,0
DA:26,0
DA:28,0
DA:31,0
DA:32,0
DA:33,0
DA:35,0
DA:36,0
DA:37,0
DA:38,0
DA:40,0
DA:42,0
DA:44,0
DA:45,0
DA:46,0
DA:47,0
DA:48,0
DA:49,0
DA:50,0
DA:51,0
DA:52,0
DA:53,0
DA:54,0
DA:55,0
DA:56,0
DA:57,0
DA:58,0
DA:59,0
DA:62,0
DA:63,0
DA:64,0
DA:67,0
DA:68,0
DA:69,0
DA:72,0
DA:73,0
DA:74,0
DA:75,0
DA:77,0
DA:79,0
DA:81,0
DA:85,0
DA:86,0
DA:88,0
DA:90,0
DA:94,0
DA:95,0
DA:97,0
DA:99,0
DA:100,0
DA:101,0
DA:102,0
DA:104,0
DA:105,0
DA:106,0
DA:108,0
DA:109,0
DA:110,0
DA:111,0
DA:114,0
DA:117,0
DA:118,0
DA:119,0
DA:122,0
DA:125,0
DA:126,0
DA:127,0
DA:129,0
DA:131,0
DA:134,0
DA:136,0
DA:137,0
DA:138,0
DA:142,0
DA:143,0
DA:145,0
DA:146,0
DA:147,0
DA:148,0
DA:150,0
DA:151,0
DA:152,0
DA:154,0
DA:155,0
DA:156,0
DA:157,0
DA:160,0
DA:163,0
DA:164,0
DA:165,0
DA:168,0
DA:171,0
DA:172,0
DA:173,0
DA:175,0
DA:177,0
DA:180,0
DA:182,0
DA:183,0
DA:184,0
DA:188,0
DA:189,0
BRF:0
BRH:0
LF:119
LH:0
end_of_record
SF:/home/user/flexorama/src/tools/display/simple.rs
FN:9,_RNvMNtNtNtCsa6QFEuJDwzK_9flexorama5tools7display6simpleNtB2_13SimpleDisplay3new
FN:26,_RNvXs_NtNtNtCsa6QFEuJDwzK_9flexorama5tools7display6simpleNtB4_13SimpleDisplayNtB6_11ToolDisplay14complete_error
FN:15,_RNvXs_NtNtNtCsa6QFEuJDwzK_9flexorama5tools7display6simpleNtB4_13SimpleDisplayNtB6_11ToolDisplay16complete_success
FNDA:0,_RNvMNtNtNtCsa6QFEuJDwzK_9flexorama5tools7display6simpleNtB2_13SimpleDisplay3new
FNDA:0,_RNvXs_NtNtNtCsa6QFEuJDwzK_9flexorama5tools7display6simpleNtB4_13SimpleDisplayNtB6_11ToolDisplay14complete_error
FNDA:0,_RNvXs_NtNtNtCsa6QFEuJDwzK_9flexorama5tools7display6simpleNtB4_13SimpleDisplayNtB6_11ToolDisplay16complete_success
FNF:3
FNH:0
DA:9,0
DA:10,0
DA:11,0
DA:15,0
DA:16,0
DA:17,0
DA:18,0
DA:20,0
DA:21,0
DA:23,0
DA:24,0
DA:26,0
DA:27,0
DA:28,0
DA:29,0
DA:31,0
DA:32,0
DA:34,0
DA:35,0
BRF:0
BRH:0
LF:19
LH:0
end_of_record
SF:/home/user/flexorama/src/tools/edit_file.rs
FN:183,_RNvNtNtNtCsa6QFEuJDwzK_9flexorama5tools9edit_file5tests14temp_file_path
FN:198,_RNvNtNtNtCsa6QFEuJDwzK_9flexorama5tools9edit_file5testss_31detect_line_ending_prefers_crlf
FN:244,_RNvNtNtNtCsa6QFEuJDwzK_9flexorama5tools9edit_file5testss_32edit_file_reports_text_not_found
FN:204,_RNvNtNtNtCsa6QFEuJDwzK_9flexorama5tools9edit_file5testss_43normalize_line_endings_converts_mixed_input
FN:211,_RNvNtNtNtCsa6QFEuJDwzK_9flexorama5tools9edit_file5testss_44edit_file_replaces_with_windows_line_endings
FN:160,_RNvNCNCNvNtNtCsa6QFEuJDwzK_9flexorama5tools9edit_file21create_edit_file_tool0017edit_file_wrapper
FN:113,_RNvNtNtCsa6QFEuJDwzK_9flexorama5tools9edit_file14edit_file_sync
FN:11,_RNvNtNtCsa6QFEuJDwzK_9flexorama5tools9edit_file18detect_line_ending
FN:126,_RNvNtNtCsa6QFEuJDwzK_9flexorama5tools9edit_file21create_edit_file_tool
FN:20,_RNvNtNtCsa6QFEuJDwzK_9flexorama5tools9edit_file22normalize_line_endings
FN:24,_RNvNtNtCsa6QFEuJDwzK_9flexorama5tools9edit_file9edit_file
FN:244,_RNCNvNtNtNtCsa6QFEuJDwzK_9flexorama5tools9edit_file5testss_32edit_file_reports_text_not_found0B9_
FN:211,_RNCNvNtNtNtCsa6QFEuJDwzK_9flexorama5tools9edit_file5testss_44edit_file_replaces_with_windows_line_endings0B9_
FN:158,_RNCNCNvNtNtCsa6QFEuJDwzK_9flexorama5tools9edit_file21create_edit_file_tool00B9_
FN:164,_RNCNvNCNCNvNtNtCsa6QFEuJDwzK_9flexorama5tools9edit_file21create_edit_file_tool0017edit_file_wrapper0Bd_
FN:116,_RNCNvNtNtCsa6QFEuJDwzK_9flexorama5tools9edit_file14edit_file_sync0B7_
FN:155,_RNCNvNtNtCsa6QFEuJDwzK_9flexorama5tools9edit_file21create_edit_file_tool0B7_
FN:28,_RNCNvNtNtCsa6QFEuJDwzK_9flexorama5tools9edit_file9edit_file0B7_
FNDA:2,_RNvNtNtNtCsa6QFEuJDwzK_9flexorama5tools9edit_file5tests14temp_file_path
FNDA:1,_RNvNtNtNtCsa6QFEuJDwzK_9flexorama5tools9edit_file5testss_31detect_line_ending_prefers_crlf
FNDA:1,_RNvNtNtNtCsa6QFEuJDwzK_9flexorama5tools9edit_file5testss_32edit_file_reports_text_not_found
FNDA:1,_RNvNtNtNtCsa6QFEuJDwzK_9flexorama5tools9edit_file5testss_43normalize_line_endings_converts_mixed_input
FNDA:1,_RNvNtNtNtCsa6QFEuJDwzK_9flexorama5tools9edit_file5testss_44edit_file_replaces_with_windows_line_endings
FNDA:0,_RNvNCNCNvNtNtCsa6QFEuJDwzK_9flexorama5tools9edit_file21create_edit_file_tool0017edit_file_wrapper
FNDA:0,_RNvNtNtCsa6QFEuJDwzK_9flexorama5tools9edit_file14edit_file_sync
FNDA:7,_RNvNtNtCsa6QFEuJDwzK_9flexorama5tools9edit_file18detect_line_ending
FNDA:80,_RNvNtNtCsa6QFEuJDwzK_9flexorama5tools9edit_file21create_edit_file_tool
FNDA:9,_RNvNtNtCsa6QFEuJDwzK_9flexorama5tools9edit_file22normalize_line_endings
FNDA:8,_RNvNtNtCsa6QFEuJDwzK_9flexorama5tools9edit_file9edit_file
FNDA:1,_RNCNvNtNtNtCsa6QFEuJDwzK_9flexorama5tools9edit_file5testss_32edit_file_reports_text_not_found0B9_
FNDA:1,_RNCNvNtNtNtCsa6QFEuJDwzK_9flexorama5tools9edit_file5testss_44edit_file_replaces_with_windows_line_endings0B9_
FNDA:0,_RNCNCNvNtNtCsa6QFEuJDwzK_9flexorama5tools9edit_file21create_edit_file_tool00B9_
FNDA:0,_RNCNvNCNCNvNtNtCsa6QFEuJDwzK_9flexorama5tools9edit_file21create_edit_file_tool0017edit_file_wrapper0Bd_
FNDA:0,_RNCNvNtNtCsa6QFEuJDwzK_9flexorama5tools9edit_file14edit_file_sync0B7_
FNDA:0,_RNCNvNtNtCsa6QFEuJDwzK_9flexorama5tools9edit_file21create_edit_file_tool0B7_
FNDA:8,_RNCNvNtNtCsa6QFEuJDwzK_9flexorama5tools9edit_file9edit_file0B7_
FNF:18
FNH:12
DA:11,7
DA:12,7
DA:13,3
DA:15,4
DA:17,7
DA:20,9
DA:21,9
DA:22,9
DA:24,8
DA:25,8
DA:26,8
DA:27,8
DA:28,8
DA:29,8
DA:30,8
DA:31,8
DA:33,8
DA:34,0
DA:36,0
DA:37,0
DA:40,8
DA:42,8
DA:43,6
DA:44,2
DA:45,2
DA:46,2
DA:47,2
DA:48,2
DA:49,2
DA:54,6
DA:55,6
DA:56,6
DA:57,6
DA:58,6
DA:59,6
DA:60,6
DA:61,6
DA:63,0
DA:64,6
DA:67,6
DA:68,5
DA:70,5
DA:73,5
DA:75,5
DA:76,2
DA:77,2
DA:78,2
DA:79,2
DA:80,2
DA:81,2
DA:82,2
DA:83,2
DA:84,2
DA:85,3
DA:88,3
DA:90,3
DA:92,3
DA:93,3
DA:94,3
DA:95,3
DA:96,3
DA:97,3
DA:98,0
DA:99,0
DA:100,0
DA:101,0
DA:102,0
DA:105,1
DA:106,1
DA:107,1
DA:108,1
DA:109,1
DA:111,8
DA:113,0
DA:114,0
DA:115,0
DA:116,0
DA:120,0
DA:121,0
DA:122,0
DA:123,0
DA:124,0
DA:126,80
DA:127,80
DA:128,80
DA:129,80
DA:131,80
DA:132,80
DA:133,0
DA:135,80
DA:137,80
DA:138,80
DA:139,80
DA:140,80
DA:141,80
DA:142,80
DA:144,80
DA:145,80
DA:146,80
DA:148,80
DA:149,80
DA:150,80
DA:153,80
DA:155,80
DA:156,0
DA:157,0
DA:158,0
DA:160,0
DA:161,0
DA:162,0
DA:163,0
DA:164,0
DA:165,0
DA:166,0
DA:167,0
DA:169,0
DA:170,0
DA:171,0
DA:172,80
DA:174,80
DA:183,2
DA:184,2
DA:185,2
DA:186,2
DA:187,2
DA:188,2
DA:189,2
DA:190,2
DA:191,2
DA:192,2
DA:193,2
DA:194,2
DA:195,2
DA:198,1
DA:199,1
DA:200,1
DA:201,1
DA:204,1
DA:205,1
DA:206,1
DA:207,1
DA:208,1
DA:211,1
DA:212,1
DA:213,1
DA:214,1
DA:215,1
DA:216,1
DA:218,1
DA:219,1
DA:220,1
DA:221,1
DA:222,1
DA:223,1
DA:224,1
DA:225,1
DA:226,1
DA:228,1
DA:229,1
DA:230,1
DA:231,1
DA:232,1
DA:234,1
DA:235,1
DA:237,1
DA:238,1
DA:239,1
DA:240,1
DA:241,1
DA:244,1
DA:245,1
DA:246,1
DA:247,1
DA:248,1
DA:250,1
DA:251,1
DA:252,1
DA:253,1
DA:254,1
DA:255,1
DA:256,1
DA:257,1
DA:258,1
DA:260,1
DA:261,1
DA:262,1
DA:263,1
DA:264,1
DA:266,1
DA:267,1
DA:268,1
BRF:0
BRH:0
LF:200
LH:163
end_of_record
SF:/home/user/flexorama/src/tools/glob.rs
FN:13,_RNCNCNvNtNtCsa6QFEuJDwzK_9flexorama5tools4glob10glob_files00B9_
FN:19,_RNCNCNvNtNtCsa6QFEuJDwzK_9flexorama5tools4glob10glob_files0s_0B9_
FN:9,_RNCNvNtNtCsa6QFEuJDwzK_9flexorama5tools4glob10glob_files0B7_
FN:104,_RNCNvNtNtCsa6QFEuJDwzK_9flexorama5tools4glob15glob_files_sync0B7_
FN:9,_RNvNtNtCsa6QFEuJDwzK_9flexorama5tools4glob10glob_files
FN:101,_RNvNtNtCsa6QFEuJDwzK_9flexorama5tools4glob15glob_files_sync
FN:107,_RNvNtNtCsa6QFEuJDwzK_9flexorama5tools4glob16create_glob_tool
FNDA:5,_RNCNCNvNtNtCsa6QFEuJDwzK_9flexorama5tools4glob10glob_files00B9_
FNDA:4,_RNCNCNvNtNtCsa6QFEuJDwzK_9flexorama5tools4glob10glob_files0s_0B9_
FNDA:5,_RNCNvNtNtCsa6QFEuJDwzK_9flexorama5tools4glob10glob_files0B7_
FNDA:0,_RNCNvNtNtCsa6QFEuJDwzK_9flexorama5tools4glob15glob_files_sync0B7_
FNDA:5,_RNvNtNtCsa6QFEuJDwzK_9flexorama5tools4glob10glob_files
FNDA:0,_RNvNtNtCsa6QFEuJDwzK_9flexorama5tools4glob15glob_files_sync
FNDA:115,_RNvNtNtCsa6QFEuJDwzK_9flexorama5tools4glob16create_glob_tool
FNF:7
FNH:5
DA:9,5
DA:10,5
DA:11,5
DA:12,5
DA:13,5
DA:14,5
DA:16,5
DA:17,5
DA:18,5
DA:19,5
DA:20,5
DA:22,5
DA:23,0
DA:27,5
DA:30,5
DA:33,5
DA:35,1
DA:38,4
DA:39,4
DA:40,4
DA:41,4
DA:44,5
DA:46,5
DA:47,5
DA:48,5
DA:49,5
DA:51,5
DA:52,5
DA:54,13
DA:55,8
DA:56,5
DA:57,5
DA:59,5
DA:60,0
DA:61,0
DA:63,5
DA:64,5
DA:66,0
DA:68,5
DA:70,5
DA:71,0
DA:73,3
DA:74,3
DA:79,5
DA:80,2
DA:81,3
DA:82,3
DA:83,3
DA:84,3
DA:85,3
DA:87,5
DA:88,5
DA:89,5
DA:90,5
DA:91,5
DA:93,0
DA:94,0
DA:95,0
DA:96,0
DA:97,0
DA:99,5
DA:101,0
DA:102,0
DA:103,0
DA:104,0
DA:105,0
DA:107,115
DA:108,115
DA:109,115
DA:110,115
DA:111,115
DA:112,115
DA:113,115
DA:114,115
DA:115,115
DA:116,115
DA:117,115
DA:118,115
DA:119,115
DA:120,115
DA:121,115
DA:122,115
DA:123,115
DA:124,115
DA:125,115
DA:126,115
DA:127,115
BRF:0
BRH:0
LF:91
LH:75
end_of_record
SF:/home/user/flexorama/src/tools/list_directory.rs
FN:12,_RNCNCNvNtNtCsa6QFEuJDwzK_9flexorama5tools14list_directory14list_directory00B9_
FN:29,_RNCNCNvNtNtCsa6QFEuJDwzK_9flexorama5tools14list_directory14list_directory0s_0B9_
FN:8,_RNCNvNtNtCsa6QFEuJDwzK_9flexorama5tools14list_directory14list_directory0B7_
FN:67,_RNCNvNtNtCsa6QFEuJDwzK_9flexorama5tools14list_directory19list_directory_sync0B7_
FN:8,_RNvNtNtCsa6QFEuJDwzK_9flexorama5tools14list_directory14list_directory
FN:64,_RNvNtNtCsa6QFEuJDwzK_9flexorama5tools14list_directory19list_directory_sync
FN:70,_RNvNtNtCsa6QFEuJDwzK_9flexorama5tools14list_directory26create_list_directory_tool
FNDA:5,_RNCNCNvNtNtCsa6QFEuJDwzK_9flexorama5tools14list_directory14list_directory00B9_
FNDA:7,_RNCNCNvNtNtCsa6QFEuJDwzK_9flexorama5tools14list_directory14list_directory0s_0B9_
FNDA:5,_RNCNvNtNtCsa6QFEuJDwzK_9flexorama5tools14list_directory14list_directory0B7_
FNDA:0,_RNCNvNtNtCsa6QFEuJDwzK_9flexorama5tools14list_directory19list_directory_sync0B7_
FNDA:5,_RNvNtNtCsa6QFEuJDwzK_9flexorama5tools14list_directory14list_directory
FNDA:0,_RNvNtNtCsa6QFEuJDwzK_9flexorama5tools14list_directory19list_directory_sync
FNDA:115,_RNvNtNtCsa6QFEuJDwzK_9flexorama5tools14list_directory26create_list_directory_tool
FNF:7
FNH:5
DA:8,5
DA:9,5
DA:10,5
DA:11,5
DA:12,5
DA:13,5
DA:15,5
DA:17,5
DA:19,5
DA:21,5
DA:22,4
DA:23,4
DA:24,4
DA:26,4
DA:27,11
DA:28,7
DA:29,7
DA:31,7
DA:32,2
DA:33,2
DA:34,5
DA:35,5
DA:37,0
DA:39,5
DA:43,4
DA:44,4
DA:46,4
DA:47,4
DA:48,4
DA:49,4
DA:50,4
DA:52,1
DA:53,1
DA:54,1
DA:55,1
DA:56,1
DA:57,1
DA:58,1
DA:59,1
DA:60,1
DA:62,5
DA:64,0
DA:65,0
DA:66,0
DA:67,0
DA:68,0
DA:70,115
DA:71,115
DA:72,115
DA:73,115
DA:74,115
DA:75,115
DA:76,115
DA:77,115
DA:78,115
DA:79,115
DA:80,115
DA:81,115
DA:82,115
DA:83,115
DA:84,115
DA:85,115
DA:86,115
BRF:0
BRH:0
LF:67
LH:60
end_of_record
SF:/home/user/flexorama/src/tools/list_todos.rs
FN:6,_RNvNtNtCsa6QFEuJDwzK_9flexorama5tools10list_todos10list_todos
FN:44,_RNvNtNtNtCsa6QFEuJDwzK_9flexorama5tools10list_todos5tests11sample_todo
FN:72,_RNvNtNtNtCsa6QFEuJDwzK_9flexorama5tools10list_todos5testss_24list_todos_returns_items
FN:53,_RNvNtNtNtCsa6QFEuJDwzK_9flexorama5tools10list_todos5testss_32list_todos_returns_empty_message
FN:72,_RNCNvNtNtNtCsa6QFEuJDwzK_9flexorama5tools10list_todos5testss_24list_todos_returns_items0B9_
FN:53,_RNCNvNtNtNtCsa6QFEuJDwzK_9flexorama5tools10list_todos5testss_32list_todos_returns_empty_message0B9_
FN:9,_RNCNvNtNtCsa6QFEuJDwzK_9flexorama5tools10list_todos10list_todos0B7_
FNDA:2,_RNvNtNtCsa6QFEuJDwzK_9flexorama5tools10list_todos10list_todos
FNDA:2,_RNvNtNtNtCsa6QFEuJDwzK_9flexorama5tools10list_todos5tests11sample_todo
FNDA:1,_RNvNtNtNtCsa6QFEuJDwzK_9flexorama5tools10list_todos5testss_24list_todos_returns_items
FNDA:1,_RNvNtNtNtCsa6QFEuJDwzK_9flexorama5tools10list_todos5testss_32list_todos_returns_empty_message
FNDA:1,_RNCNvNtNtNtCsa6QFEuJDwzK_9flexorama5tools10list_todos5testss_24list_todos_returns_items0B9_
FNDA:1,_RNCNvNtNtNtCsa6QFEuJDwzK_9flexorama5tools10list_todos5testss_32list_todos_returns_empty_message0B9_
FNDA:2,_RNCNvNtNtCsa6QFEuJDwzK_9flexorama5tools10list_todos10list_todos0B7_
FNF:7
FNH:7
DA:6,2
DA:7,2
DA:8,2
DA:9,2
DA:10,2
DA:12,2
DA:13,1
DA:14,1
DA:15,1
DA:18,1
DA:19,1
DA:20,1
DA:21,1
DA:22,1
DA:23,1
DA:25,1
DA:26,1
DA:27,1
DA:30,1
DA:31,1
DA:32,1
DA:33,1
DA:34,1
DA:35,2
DA:44,2
DA:45,2
DA:46,2
DA:47,2
DA:48,2
DA:49,2
DA:50,2
DA:53,1
DA:54,1
DA:55,1
DA:56,1
DA:57,1
DA:58,1
DA:59,1
DA:61,1
DA:63,1
DA:64,1
DA:66,1
DA:67,1
DA:68,1
DA:69,1
DA:72,1
DA:73,1
DA:74,1
DA:75,1
DA:76,1
DA:77,1
DA:78,1
DA:79,1
DA:80,1
DA:83,1
DA:85,1
DA:86,1
DA:88,1
DA:89,1
DA:90,1
DA:91,1
DA:92,1
DA:93,1
BRF:0
BRH:0
LF:68
LH:68
end_of_record
SF:/home/user/flexorama/src/tools/mcp.rs
FN:117,_RNCNCNCNvNtNtCsa6QFEuJDwzK_9flexorama5tools3mcp15create_mcp_tools_000Bb_
FN:111,_RNCNCNCNvNtNtCsa6QFEuJDwzK_9flexorama5tools3mcp15create_mcp_tools_00s0_0Bb_
FN:88,_RNCNCNCNvNtNtCsa6QFEuJDwzK_9flexorama5tools3mcp15create_mcp_tools_00s_0Bb_
FN:76,_RNCNCNvNtNtCsa6QFEuJDwzK_9flexorama5tools3mcp15create_mcp_tools_00B9_
FN:11,_RNCNvNtNtCsa6QFEuJDwzK_9flexorama5tools3mcp15create_mcp_tool0B7_
FN:27,_RNCNvNtNtCsa6QFEuJDwzK_9flexorama5tools3mcp15create_mcp_tools0_0B7_
FN:62,_RNCNvNtNtCsa6QFEuJDwzK_9flexorama5tools3mcp15create_mcp_tools1_0B7_
FN:71,_RNCNvNtNtCsa6QFEuJDwzK_9flexorama5tools3mcp15create_mcp_tools_0B7_
FN:278,_RNCNvNtNtNtCsa6QFEuJDwzK_9flexorama5tools3mcp5testss_47test_mcp_tool_handler_with_server_not_connected0B9_
FN:7,_RNvNtNtCsa6QFEuJDwzK_9flexorama5tools3mcp15create_mcp_tool
FN:143,_RNvNtNtNtCsa6QFEuJDwzK_9flexorama5tools3mcp5tests20create_test_mcp_tool
FN:221,_RNvNtNtNtCsa6QFEuJDwzK_9flexorama5tools3mcp5testss_36test_create_mcp_tool_name_formatting
FN:327,_RNvNtNtNtCsa6QFEuJDwzK_9flexorama5tools3mcp5testss_37test_create_mcp_tool_metadata_is_none
FN:181,_RNvNtNtNtCsa6QFEuJDwzK_9flexorama5tools3mcp5testss_37test_create_mcp_tool_with_null_schema
FN:156,_RNvNtNtNtCsa6QFEuJDwzK_9flexorama5tools3mcp5testss_38test_create_mcp_tool_with_valid_schema
FN:233,_RNvNtNtNtCsa6QFEuJDwzK_9flexorama5tools3mcp5testss_40test_create_mcp_tool_with_complex_schema
FN:203,_RNvNtNtNtCsa6QFEuJDwzK_9flexorama5tools3mcp5testss_40test_create_mcp_tool_without_description
FN:301,_RNvNtNtNtCsa6QFEuJDwzK_9flexorama5tools3mcp5testss_45test_create_mcp_tool_with_empty_object_schema
FN:314,_RNvNtNtNtCsa6QFEuJDwzK_9flexorama5tools3mcp5testss_46test_create_mcp_tool_description_concatenation
FN:278,_RNvNtNtNtCsa6QFEuJDwzK_9flexorama5tools3mcp5testss_47test_mcp_tool_handler_with_server_not_connected
FNDA:0,_RNCNCNCNvNtNtCsa6QFEuJDwzK_9flexorama5tools3mcp15create_mcp_tools_000Bb_
FNDA:0,_RNCNCNCNvNtNtCsa6QFEuJDwzK_9flexorama5tools3mcp15create_mcp_tools_00s0_0Bb_
FNDA:0,_RNCNCNCNvNtNtCsa6QFEuJDwzK_9flexorama5tools3mcp15create_mcp_tools_00s_0Bb_
FNDA:1,_RNCNCNvNtNtCsa6QFEuJDwzK_9flexorama5tools3mcp15create_mcp_tools_00B9_
FNDA:5,_RNCNvNtNtCsa6QFEuJDwzK_9flexorama5tools3mcp15create_mcp_tool0B7_
FNDA:0,_RNCNvNtNtCsa6QFEuJDwzK_9flexorama5tools3mcp15create_mcp_tools0_0B7_
FNDA:0,_RNCNvNtNtCsa6QFEuJDwzK_9flexorama5tools3mcp15create_mcp_tools1_0B7_
FNDA:1,_RNCNvNtNtCsa6QFEuJDwzK_9flexorama5tools3mcp15create_mcp_tools_0B7_
FNDA:1,_RNCNvNtNtNtCsa6QFEuJDwzK_9flexorama5tools3mcp5testss_47test_mcp_tool_handler_with_server_not_connected0B9_
FNDA:9,_RNvNtNtCsa6QFEuJDwzK_9flexorama5tools3mcp15create_mcp_tool
FNDA:9,_RNvNtNtNtCsa6QFEuJDwzK_9flexorama5tools3mcp5tests20create_test_mcp_tool
FNDA:1,_RNvNtNtNtCsa6QFEuJDwzK_9flexorama5tools3mcp5testss_36test_create_mcp_tool_name_formatting
FNDA:1,_RNvNtNtNtCsa6QFEuJDwzK_9flexorama5tools3mcp5testss_37test_create_mcp_tool_metadata_is_none
FNDA:1,_RNvNtNtNtCsa6QFEuJDwzK_9flexorama5tools3mcp5testss_37test_create_mcp_tool_with_null_schema
FNDA:1,_RNvNtNtNtCsa6QFEuJDwzK_9flexorama5tools3mcp5testss_38test_create_mcp_tool_with_valid_schema
FNDA:1,_RNvNtNtNtCsa6QFEuJDwzK_9flexorama5tools3mcp5testss_40test_create_mcp_tool_with_complex_schema
FNDA:1,_RNvNtNtNtCsa6QFEuJDwzK_9flexorama5tools3mcp5testss_40test_create_mcp_tool_without_description
FNDA:1,_RNvNtNtNtCsa6QFEuJDwzK_9flexorama5tools3mcp5testss_45test_create_mcp_tool_with_empty_object_schema
FNDA:1,_RNvNtNtNtCsa6QFEuJDwzK_9flexorama5tools3mcp5testss_46test_create_mcp_tool_description_concatenation
FNDA:1,_RNvNtNtNtCsa6QFEuJDwzK_9flexorama5tools3mcp5testss_47test_mcp_tool_handler_with_server_not_connected
FNF:20
FNH:15
DA:7,9
DA:8,9
DA:9,9
DA:10,9
DA:11,9
DA:12,9
DA:13,9
DA:14,9
DA:17,9
DA:18,9
DA:19,9
DA:20,9
DA:21,9
DA:24,9
DA:25,0
DA:26,0
DA:27,0
DA:29,9
DA:30,0
DA:31,0
DA:33,9
DA:34,0
DA:35,0
DA:36,0
DA:37,0
DA:38,0
DA:39,0
DA:40,0
DA:41,0
DA:46,9
DA:47,1
DA:48,1
DA:49,1
DA:50,1
DA:52,1
DA:53,0
DA:56,1
DA:58,8
DA:59,8
DA:60,0
DA:61,0
DA:62,0
DA:64,8
DA:68,9
DA:69,9
DA:70,9
DA:71,9
DA:72,1
DA:73,1
DA:74,1
DA:76,1
DA:78,1
DA:79,1
DA:80,1
DA:81,1
DA:84,1
DA:85,1
DA:86,0
DA:87,0
DA:88,0
DA:91,0
DA:95,1
DA:96,1
DA:97,1
DA:98,1
DA:100,1
DA:102,1
DA:103,1
DA:104,1
DA:106,0
DA:107,0
DA:108,0
DA:109,0
DA:110,0
DA:111,0
DA:115,0
DA:116,0
DA:117,0
DA:121,1
DA:122,1
DA:123,1
DA:124,1
DA:125,1
DA:126,1
DA:127,1
DA:130,1
DA:131,1
DA:132,9
DA:134,9
DA:143,9
DA:144,9
DA:145,9
DA:146,9
DA:147,9
DA:148,9
DA:149,9
DA:150,9
DA:151,9
DA:152,9
DA:153,9
DA:156,1
DA:157,1
DA:158,1
DA:159,1
DA:160,1
DA:161,1
DA:162,1
DA:163,1
DA:166,1
DA:169,1
DA:170,1
DA:172,1
DA:174,1
DA:175,1
DA:176,1
DA:177,1
DA:178,1
DA:181,1
DA:182,1
DA:183,1
DA:184,1
DA:185,1
DA:186,1
DA:189,1
DA:191,1
DA:194,1
DA:195,1
DA:196,1
DA:197,1
DA:199,1
DA:200,1
DA:203,1
DA:204,1
DA:205,1
DA:206,1
DA:207,1
DA:210,1
DA:212,1
DA:214,1
DA:216,1
DA:217,1
DA:218,1
DA:221,1
DA:222,1
DA:223,1
DA:225,1
DA:226,1
DA:229,1
DA:230,1
DA:233,1
DA:234,1
DA:235,1
DA:236,1
DA:237,1
DA:238,1
DA:239,1
DA:240,1
DA:242,1
DA:243,1
DA:244,1
DA:246,1
DA:247,1
DA:248,1
DA:249,1
DA:253,1
DA:256,1
DA:257,1
DA:258,1
DA:259,1
DA:262,1
DA:264,1
DA:265,1
DA:268,1
DA:269,1
DA:270,1
DA:271,1
DA:273,1
DA:274,1
DA:275,1
DA:278,1
DA:279,1
DA:280,1
DA:282,1
DA:283,1
DA:286,1
DA:287,1
DA:288,1
DA:289,1
DA:290,1
DA:293,1
DA:296,1
DA:297,1
DA:298,1
DA:301,1
DA:302,1
DA:303,1
DA:305,1
DA:306,1
DA:309,1
DA:310,1
DA:311,1
DA:314,1
DA:315,1
DA:316,1
DA:318,1
DA:319,1
DA:320,1
DA:323,1
DA:324,1
DA:327,1
DA:328,1
DA:329,1
DA:331,1
DA:332,1
DA:335,1
DA:336,1
BRF:0
BRH:0
LF:226
LH:191
end_of_record
SF:/home/user/flexorama/src/tools/path.rs
FN:52,_RNvNtNtNtCsa6QFEuJDwzK_9flexorama5tools4path5testss_45resolve_project_path_rejects_parent_traversal
FN:73,_RNvNtNtNtCsa6QFEuJDwzK_9flexorama5tools4path5testss_52resolve_project_path_accepts_absolute_inside_project
FN:65,_RNvNtNtNtCsa6QFEuJDwzK_9flexorama5tools4path5testss_52resolve_project_path_accepts_relative_inside_project
FN:58,_RNvNtNtNtCsa6QFEuJDwzK_9flexorama5tools4path5testss_53resolve_project_path_rejects_absolute_outside_project
FN:18,_RNvNtNtCsa6QFEuJDwzK_9flexorama5tools4path20resolve_project_path
FN:12,_RNvNtNtCsa6QFEuJDwzK_9flexorama5tools4path21expand_and_absolutize
FN:24,_RNCNvNtNtCsa6QFEuJDwzK_9flexorama5tools4path20resolve_project_path0B7_
FNDA:1,_RNvNtNtNtCsa6QFEuJDwzK_9flexorama5tools4path5testss_45resolve_project_path_rejects_parent_traversal
FNDA:1,_RNvNtNtNtCsa6QFEuJDwzK_9flexorama5tools4path5testss_52resolve_project_path_accepts_absolute_inside_project
FNDA:1,_RNvNtNtNtCsa6QFEuJDwzK_9flexorama5tools4path5testss_52resolve_project_path_accepts_relative_inside_project
FNDA:1,_RNvNtNtNtCsa6QFEuJDwzK_9flexorama5tools4path5testss_53resolve_project_path_rejects_absolute_outside_project
FNDA:37,_RNvNtNtCsa6QFEuJDwzK_9flexorama5tools4path20resolve_project_path
FNDA:23,_RNvNtNtCsa6QFEuJDwzK_9flexorama5tools4path21expand_and_absolutize
FNDA:157,_RNCNvNtNtCsa6QFEuJDwzK_9flexorama5tools4path20resolve_project_path0B7_
FNF:7
FNH:7
DA:12,23
DA:13,23
DA:14,23
DA:15,23
DA:16,23
DA:18,37
DA:19,37
DA:20,37
DA:22,37
DA:23,37
DA:24,157
DA:26,6
DA:27,31
DA:29,31
DA:30,31
DA:31,31
DA:32,26
DA:34,5
DA:37,31
DA:38,5
DA:39,5
DA:40,5
DA:42,26
DA:44,26
DA:45,37
DA:52,1
DA:53,1
DA:54,1
DA:55,1
DA:58,1
DA:59,1
DA:60,1
DA:61,1
DA:62,1
DA:65,1
DA:66,1
DA:67,1
DA:68,1
DA:69,1
DA:70,1
DA:73,1
DA:74,1
DA:75,1
DA:76,1
DA:77,1
DA:78,1
BRF:0
BRH:0
LF:47
LH:47
end_of_record
SF:/home/user/flexorama/src/tools/read_file.rs
FN:45,_RNvNtNtCsa6QFEuJDwzK_9flexorama5tools9read_file14read_file_sync
FN:51,_RNvNtNtCsa6QFEuJDwzK_9flexorama5tools9read_file21create_read_file_tool
FN:9,_RNvNtNtCsa6QFEuJDwzK_9flexorama5tools9read_file9read_file
FN:48,_RNCNvNtNtCsa6QFEuJDwzK_9flexorama5tools9read_file14read_file_sync0B7_
FN:9,_RNCNvNtNtCsa6QFEuJDwzK_9flexorama5tools9read_file9read_file0B7_
FNDA:0,_RNvNtNtCsa6QFEuJDwzK_9flexorama5tools9read_file14read_file_sync
FNDA:115,_RNvNtNtCsa6QFEuJDwzK_9flexorama5tools9read_file21create_read_file_tool
FNDA:6,_RNvNtNtCsa6QFEuJDwzK_9flexorama5tools9read_file9read_file
FNDA:0,_RNCNvNtNtCsa6QFEuJDwzK_9flexorama5tools9read_file14read_file_sync0B7_
FNDA:6,_RNCNvNtNtCsa6QFEuJDwzK_9flexorama5tools9read_file9read_file0B7_
FNF:5
FNH:3
DA:9,6
DA:10,6
DA:12,6
DA:14,6
DA:16,6
DA:18,6
DA:19,5
DA:20,5
DA:21,5
DA:23,5
DA:24,5
DA:25,5
DA:26,5
DA:27,5
DA:28,5
DA:30,0
DA:31,0
DA:32,0
DA:33,0
DA:34,0
DA:37,1
DA:38,1
DA:39,1
DA:40,1
DA:41,1
DA:43,6
DA:45,0
DA:46,0
DA:47,0
DA:48,0
DA:49,0
DA:51,115
DA:52,115
DA:53,115
DA:54,115
DA:55,115
DA:56,115
DA:57,115
DA:58,115
DA:59,115
DA:60,115
DA:61,115
DA:62,115
DA:63,115
DA:64,115
DA:65,115
DA:66,115
DA:67,115
DA:68,115
BRF:0
BRH:0
LF:51
LH:40
end_of_record
SF:/home/user/flexorama/src/tools/registry.rs
FN:72,_RNvMNtNtCsa6QFEuJDwzK_9flexorama5tools8registryNtB2_12ToolRegistry11is_readonly
FN:62,_RNvMNtNtCsa6QFEuJDwzK_9flexorama5tools8registryNtB2_12ToolRegistry12get_metadata
FN:67,_RNvMNtNtCsa6QFEuJDwzK_9flexorama5tools8registryNtB2_12ToolRegistry13get_all_tools
FN:57,_RNvMNtNtCsa6QFEuJDwzK_9flexorama5tools8registryNtB2_12ToolRegistry13register_tool
FN:87,_RNvMNtNtCsa6QFEuJDwzK_9flexorama5tools8registryNtB2_12ToolRegistry18with_builtin_tools
FN:77,_RNvMNtNtCsa6QFEuJDwzK_9flexorama5tools8registryNtB2_12ToolRegistry20get_default_metadata
FN:52,_RNvMNtNtCsa6QFEuJDwzK_9flexorama5tools8registryNtB2_12ToolRegistry3new
FNDA:78,_RNvMNtNtCsa6QFEuJDwzK_9flexorama5tools8registryNtB2_12ToolRegistry11is_readonly
FNDA:0,_RNvMNtNtCsa6QFEuJDwzK_9flexorama5tools8registryNtB2_12ToolRegistry12get_metadata
FNDA:0,_RNvMNtNtCsa6QFEuJDwzK_9flexorama5tools8registryNtB2_12ToolRegistry13get_all_tools
FNDA:1120,_RNvMNtNtCsa6QFEuJDwzK_9flexorama5tools8registryNtB2_12ToolRegistry13register_tool
FNDA:112,_RNvMNtNtCsa6QFEuJDwzK_9flexorama5tools8registryNtB2_12ToolRegistry18with_builtin_tools
FNDA:0,_RNvMNtNtCsa6QFEuJDwzK_9flexorama5tools8registryNtB2_12ToolRegistry20get_default_metadata
FNDA:112,_RNvMNtNtCsa6QFEuJDwzK_9flexorama5tools8registryNtB2_12ToolRegistry3new
FNF:7
FNH:4
DA:52,112
DA:53,112
DA:54,112
DA:57,1120
DA:58,1120
DA:59,1120
DA:62,0
DA:63,0
DA:64,0
DA:67,0
DA:68,0
DA:69,0
DA:72,78
DA:73,78
DA:74,78
DA:77,0
DA:78,0
DA:79,0
DA:80,0
DA:81,0
DA:82,0
DA:83,0
DA:84,0
DA:87,112
DA:88,112
DA:91,112
DA:92,112
DA:93,112
DA:94,112
DA:95,112
DA:96,112
DA:98,112
DA:99,112
DA:100,112
DA:101,112
DA:102,112
DA:103,112
DA:105,112
DA:106,112
DA:107,112
DA:108,112
DA:109,112
DA:110,112
DA:112,112
DA:113,112
DA:114,112
DA:115,112
DA:116,112
DA:117,112
DA:119,112
DA:120,112
DA:121,112
DA:122,112
DA:123,112
DA:124,112
DA:126,112
DA:127,112
DA:128,112
DA:129,112
DA:130,112
DA:131,112
DA:133,112
DA:134,112
DA:135,112
DA:136,112
DA:137,112
DA:138,112
DA:140,112
DA:141,112
DA:142,112
DA:143,112
DA:144,112
DA:145,112
DA:147,112
DA:148,112
DA:149,112
DA:150,112
DA:151,112
DA:152,112
DA:154,112
DA:155,112
DA:156,112
DA:157,112
DA:158,112
DA:159,112
DA:161,112
DA:162,112
BRF:0
BRH:0
LF:87
LH:73
end_of_record
SF:/home/user/flexorama/src/tools/search_in_files.rs
FN:13,_RNCNCNvNtNtCsa6QFEuJDwzK_9flexorama5tools15search_in_files15search_in_files00B9_
FN:20,_RNCNCNvNtNtCsa6QFEuJDwzK_9flexorama5tools15search_in_files15search_in_files0s0_0B9_
FN:21,_RNCNCNvNtNtCsa6QFEuJDwzK_9flexorama5tools15search_in_files15search_in_files0s1_0B9_
FN:31,_RNCNCNvNtNtCsa6QFEuJDwzK_9flexorama5tools15search_in_files15search_in_files0s2_0B9_
FN:14,_RNCNCNvNtNtCsa6QFEuJDwzK_9flexorama5tools15search_in_files15search_in_files0s_0B9_
FN:53,_RNCNvNCNCNvNtNtCsa6QFEuJDwzK_9flexorama5tools15search_in_files15search_in_files0s2_09walk_path0Bd_
FN:54,_RNCNvNCNCNvNtNtCsa6QFEuJDwzK_9flexorama5tools15search_in_files15search_in_files0s2_09walk_paths_0Bd_
FN:9,_RNCNvNtNtCsa6QFEuJDwzK_9flexorama5tools15search_in_files15search_in_files0B7_
FN:150,_RNCNvNtNtCsa6QFEuJDwzK_9flexorama5tools15search_in_files20search_in_files_sync0B7_
FN:32,_RNvNCNCNvNtNtCsa6QFEuJDwzK_9flexorama5tools15search_in_files15search_in_files0s2_09walk_path
FN:9,_RNvNtNtCsa6QFEuJDwzK_9flexorama5tools15search_in_files15search_in_files
FN:147,_RNvNtNtCsa6QFEuJDwzK_9flexorama5tools15search_in_files20search_in_files_sync
FN:153,_RNvNtNtCsa6QFEuJDwzK_9flexorama5tools15search_in_files27create_search_in_files_tool
FNDA:6,_RNCNCNvNtNtCsa6QFEuJDwzK_9flexorama5tools15search_in_files15search_in_files00B9_
FNDA:7,_RNCNCNvNtNtCsa6QFEuJDwzK_9flexorama5tools15search_in_files15search_in_files0s0_0B9_
FNDA:0,_RNCNCNvNtNtCsa6QFEuJDwzK_9flexorama5tools15search_in_files15search_in_files0s1_0B9_
FNDA:7,_RNCNCNvNtNtCsa6QFEuJDwzK_9flexorama5tools15search_in_files15search_in_files0s2_0B9_
FNDA:6,_RNCNCNvNtNtCsa6QFEuJDwzK_9flexorama5tools15search_in_files15search_in_files0s_0B9_
FNDA:566,_RNCNvNCNCNvNtNtCsa6QFEuJDwzK_9flexorama5tools15search_in_files15search_in_files0s2_09walk_path0Bd_
FNDA:566,_RNCNvNCNCNvNtNtCsa6QFEuJDwzK_9flexorama5tools15search_in_files15search_in_files0s2_09walk_paths_0Bd_
FNDA:7,_RNCNvNtNtCsa6QFEuJDwzK_9flexorama5tools15search_in_files15search_in_files0B7_
FNDA:0,_RNCNvNtNtCsa6QFEuJDwzK_9flexorama5tools15search_in_files20search_in_files_sync0B7_
FNDA:4478,_RNvNCNCNvNtNtCsa6QFEuJDwzK_9flexorama5tools15search_in_files15search_in_files0s2_09walk_path
FNDA:7,_RNvNtNtCsa6QFEuJDwzK_9flexorama5tools15search_in_files15search_in_files
FNDA:0,_RNvNtNtCsa6QFEuJDwzK_9flexorama5tools15search_in_files20search_in_files_sync
FNDA:115,_RNvNtNtCsa6QFEuJDwzK_9flexorama5tools15search_in_files27create_search_in_files_tool
FNF:13
FNH:10
DA:9,7
DA:10,7
DA:11,7
DA:12,7
DA:13,7
DA:14,7
DA:15,7
DA:17,7
DA:18,7
DA:19,7
DA:20,7
DA:21,7
DA:23,7
DA:25,7
DA:26,7
DA:27,7
DA:28,7
DA:29,7
DA:31,7
DA:32,4478
DA:33,4478
DA:34,4478
DA:35,4478
DA:36,4478
DA:37,4478
DA:38,4478
DA:39,4478
DA:40,0
DA:41,4478
DA:43,4478
DA:44,4474
DA:45,4
DA:47,4474
DA:48,0
DA:49,4474
DA:50,4474
DA:51,566
DA:52,566
DA:53,566
DA:54,566
DA:55,566
DA:57,2
DA:58,564
DA:59,564
DA:60,5035
DA:61,4471
DA:62,4471
DA:63,4471
DA:64,0
DA:65,4471
DA:67,0
DA:68,3908
DA:69,3908
DA:70,1885
DA:71,82177
DA:72,82177
DA:73,8
DA:74,8
DA:75,8
DA:76,8
DA:77,8
DA:79,8
DA:80,0
DA:81,0
DA:82,8
DA:83,82169
DA:86,2023
DA:87,2023
DA:88,2023
DA:90,0
DA:91,4472
DA:92,4478
DA:94,7
DA:95,7
DA:96,7
DA:97,7
DA:98,7
DA:99,7
DA:100,7
DA:101,7
DA:102,0
DA:103,7
DA:104,7
DA:105,7
DA:107,7
DA:108,7
DA:109,7
DA:110,3
DA:111,3
DA:112,3
DA:113,3
DA:114,3
DA:116,4
DA:117,4
DA:118,4
DA:122,4
DA:123,4
DA:124,0
DA:125,4
DA:127,4
DA:128,4
DA:129,4
DA:130,4
DA:131,4
DA:134,0
DA:135,0
DA:136,0
DA:137,0
DA:138,0
DA:139,0
DA:140,0
DA:141,0
DA:142,0
DA:143,0
DA:145,7
DA:147,0
DA:148,0
DA:149,0
DA:150,0
DA:151,0
DA:153,115
DA:154,115
DA:155,115
DA:156,115
DA:157,115
DA:158,115
DA:159,115
DA:160,115
DA:161,115
DA:162,115
DA:163,115
DA:164,115
DA:165,115
DA:166,115
DA:167,115
DA:168,115
DA:169,115
DA:170,115
DA:171,115
DA:172,115
DA:173,115
DA:174,115
BRF:0
BRH:0
LF:151
LH:125
end_of_record
SF:/home/user/flexorama/src/tools/security_utils.rs
FN:26,_RNCNvNtNtCsa6QFEuJDwzK_9flexorama5tools14security_utils19check_file_security0B7_
FN:20,_RNvNtNtCsa6QFEuJDwzK_9flexorama5tools14security_utils19check_file_security
FN:95,_RNvNtNtCsa6QFEuJDwzK_9flexorama5tools14security_utils26get_operation_display_name
FNDA:20,_RNCNvNtNtCsa6QFEuJDwzK_9flexorama5tools14security_utils19check_file_security0B7_
FNDA:20,_RNvNtNtCsa6QFEuJDwzK_9flexorama5tools14security_utils19check_file_security
FNDA:0,_RNvNtNtCsa6QFEuJDwzK_9flexorama5tools14security_utils26get_operation_display_name
FNF:3
FNH:2
DA:20,20
DA:21,20
DA:22,20
DA:23,20
DA:24,20
DA:25,20
DA:26,20
DA:28,20
DA:29,6
DA:30,0
DA:32,0
DA:34,6
DA:35,14
DA:37,14
DA:39,14
DA:40,0
DA:42,0
DA:44,14
DA:46,0
DA:47,0
DA:48,0
DA:49,0
DA:50,0
DA:51,0
DA:52,0
DA:53,0
DA:54,0
DA:57,0
DA:58,0
DA:59,0
DA:63,0
DA:64,0
DA:65,0
DA:66,0
DA:68,0
DA:70,0
DA:71,0
DA:72,0
DA:73,0
DA:74,0
DA:75,0
DA:76,0
DA:77,0
DA:78,0
DA:79,0
DA:80,0
DA:81,0
DA:82,0
DA:83,0
DA:84,0
DA:85,0
DA:86,0
DA:87,0
DA:88,0
DA:92,20
DA:95,0
DA:96,0
DA:97,0
DA:98,0
DA:99,0
DA:100,0
DA:101,0
DA:103,0
BRF:0
BRH:0
LF:64
LH:16
end_of_record
SF:/home/user/flexorama/src/tools/types.rs
FN:96,_RNvXs0_NtNtCsa6QFEuJDwzK_9flexorama5tools5typesNtB5_4ToolNtNtCs3XFJfFEDSOQ_4core3fmt5Debug3fmt
FN:36,_RNvMs_NtNtCsa6QFEuJDwzK_9flexorama5tools5typesNtB4_4Tool16recreate_handler
FN:23,_RNvXNtNtCsa6QFEuJDwzK_9flexorama5tools5typesNtB2_4ToolNtNtCs3XFJfFEDSOQ_4core5clone5Clone5clone
FN:49,_RNCNCNvMs_NtNtCsa6QFEuJDwzK_9flexorama5tools5typesNtB8_4Tool16recreate_handler00Bc_
FN:73,_RNCNCNvMs_NtNtCsa6QFEuJDwzK_9flexorama5tools5typesNtB8_4Tool16recreate_handlers0_00Bc_
FN:85,_RNCNCNvMs_NtNtCsa6QFEuJDwzK_9flexorama5tools5typesNtB8_4Tool16recreate_handlers1_00Bc_
FN:62,_RNCNCNvMs_NtNtCsa6QFEuJDwzK_9flexorama5tools5typesNtB8_4Tool16recreate_handlers_00Bc_
FN:48,_RNCNvMs_NtNtCsa6QFEuJDwzK_9flexorama5tools5typesNtB6_4Tool16recreate_handler0Ba_
FN:72,_RNCNvMs_NtNtCsa6QFEuJDwzK_9flexorama5tools5typesNtB6_4Tool16recreate_handlers0_0Ba_
FN:84,_RNCNvMs_NtNtCsa6QFEuJDwzK_9flexorama5tools5typesNtB6_4Tool16recreate_handlers1_0Ba_
FN:61,_RNCNvMs_NtNtCsa6QFEuJDwzK_9flexorama5tools5typesNtB6_4Tool16recreate_handlers_0Ba_
FNDA:0,_RNvXs0_NtNtCsa6QFEuJDwzK_9flexorama5tools5typesNtB5_4ToolNtNtCs3XFJfFEDSOQ_4core3fmt5Debug3fmt
FNDA:0,_RNvMs_NtNtCsa6QFEuJDwzK_9flexorama5tools5typesNtB4_4Tool16recreate_handler
FNDA:0,_RNvXNtNtCsa6QFEuJDwzK_9flexorama5tools5typesNtB2_4ToolNtNtCs3XFJfFEDSOQ_4core5clone5Clone5clone
FNDA:0,_RNCNCNvMs_NtNtCsa6QFEuJDwzK_9flexorama5tools5typesNtB8_4Tool16recreate_handler00Bc_
FNDA:0,_RNCNCNvMs_NtNtCsa6QFEuJDwzK_9flexorama5tools5typesNtB8_4Tool16recreate_handlers0_00Bc_
FNDA:0,_RNCNCNvMs_NtNtCsa6QFEuJDwzK_9flexorama5tools5typesNtB8_4Tool16recreate_handlers1_00Bc_
FNDA:0,_RNCNCNvMs_NtNtCsa6QFEuJDwzK_9flexorama5tools5typesNtB8_4Tool16recreate_handlers_00Bc_
FNDA:0,_RNCNvMs_NtNtCsa6QFEuJDwzK_9flexorama5tools5typesNtB6_4Tool16recreate_handler0Ba_
FNDA:0,_RNCNvMs_NtNtCsa6QFEuJDwzK_9flexorama5tools5typesNtB6_4Tool16recreate_handlers0_0Ba_
FNDA:0,_RNCNvMs_NtNtCsa6QFEuJDwzK_9flexorama5tools5typesNtB6_4Tool16recreate_handlers1_0Ba_
FNDA:0,_RNCNvMs_NtNtCsa6QFEuJDwzK_9flexorama5tools5typesNtB6_4Tool16recreate_handlers_0Ba_
FNF:11
FNH:0
DA:23,0
DA:24,0
DA:25,0
DA:26,0
DA:27,0
DA:28,0
DA:29,0
DA:30,0
DA:31,0
DA:32,0
DA:36,0
DA:37,0
DA:38,0
DA:39,0
DA:40,0
DA:41,0
DA:42,0
DA:43,0
DA:44,0
DA:45,0
DA:46,0
DA:48,0
DA:49,0
DA:50,0
DA:51,0
DA:52,0
DA:53,0
DA:54,0
DA:55,0
DA:56,0
DA:58,0
DA:61,0
DA:62,0
DA:65,0
DA:66,0
DA:67,0
DA:69,0
DA:72,0
DA:73,0
DA:76,0
DA:77,0
DA:78,0
DA:80,0
DA:84,0
DA:85,0
DA:86,0
DA:87,0
DA:88,0
DA:90,0
DA:92,0
DA:96,0
DA:97,0
DA:98,0
DA:99,0
DA:100,0
DA:101,0
DA:102,0
DA:103,0
DA:104,0
BRF:0
BRH:0
LF:67
LH:0
end_of_record
SF:/home/user/flexorama/src/tools/write_file.rs
FN:112,_RNCNCNvNtNtCsa6QFEuJDwzK_9flexorama5tools10write_file22create_write_file_tool00B9_
FN:118,_RNCNvNCNCNvNtNtCsa6QFEuJDwzK_9flexorama5tools10write_file22create_write_file_tool0018write_file_wrapper0Bd_
FN:14,_RNCNvNtNtCsa6QFEuJDwzK_9flexorama5tools10write_file10write_file0B7_
FN:74,_RNCNvNtNtCsa6QFEuJDwzK_9flexorama5tools10write_file15write_file_sync0B7_
FN:109,_RNCNvNtNtCsa6QFEuJDwzK_9flexorama5tools10write_file22create_write_file_tool0B7_
FN:114,_RNvNCNCNvNtNtCsa6QFEuJDwzK_9flexorama5tools10write_file22create_write_file_tool0018write_file_wrapper
FN:10,_RNvNtNtCsa6QFEuJDwzK_9flexorama5tools10write_file10write_file
FN:71,_RNvNtNtCsa6QFEuJDwzK_9flexorama5tools10write_file15write_file_sync
FN:84,_RNvNtNtCsa6QFEuJDwzK_9flexorama5tools10write_file22create_write_file_tool
FNDA:0,_RNCNCNvNtNtCsa6QFEuJDwzK_9flexorama5tools10write_file22create_write_file_tool00B9_
FNDA:0,_RNCNvNCNCNvNtNtCsa6QFEuJDwzK_9flexorama5tools10write_file22create_write_file_tool0018write_file_wrapper0Bd_
FNDA:8,_RNCNvNtNtCsa6QFEuJDwzK_9flexorama5tools10write_file10write_file0B7_
FNDA:0,_RNCNvNtNtCsa6QFEuJDwzK_9flexorama5tools10write_file15write_file_sync0B7_
FNDA:0,_RNCNvNtNtCsa6QFEuJDwzK_9flexorama5tools10write_file22create_write_file_tool0B7_
FNDA:0,_RNvNCNCNvNtNtCsa6QFEuJDwzK_9flexorama5tools10write_file22create_write_file_tool0018write_file_wrapper
FNDA:8,_RNvNtNtCsa6QFEuJDwzK_9flexorama5tools10write_file10write_file
FNDA:0,_RNvNtNtCsa6QFEuJDwzK_9flexorama5tools10write_file15write_file_sync
FNDA:80,_RNvNtNtCsa6QFEuJDwzK_9flexorama5tools10write_file22create_write_file_tool
FNF:9
FNH:3
DA:10,8
DA:11,8
DA:12,8
DA:13,8
DA:14,8
DA:15,8
DA:16,8
DA:18,8
DA:20,8
DA:22,8
DA:23,6
DA:24,2
DA:25,2
DA:26,2
DA:27,2
DA:28,2
DA:29,2
DA:34,6
DA:35,6
DA:36,6
DA:37,6
DA:38,6
DA:39,6
DA:40,6
DA:41,6
DA:43,0
DA:44,6
DA:47,6
DA:48,6
DA:49,0
DA:50,0
DA:51,0
DA:52,0
DA:53,0
DA:54,6
DA:55,0
DA:57,6
DA:58,5
DA:59,5
DA:60,5
DA:61,5
DA:62,5
DA:63,1
DA:64,1
DA:65,1
DA:66,1
DA:67,1
DA:69,8
DA:71,0
DA:72,0
DA:73,0
DA:74,0
DA:78,0
DA:79,0
DA:80,0
DA:81,0
DA:82,0
DA:84,80
DA:85,80
DA:86,80
DA:87,80
DA:89,80
DA:90,80
DA:91,0
DA:93,80
DA:95,80
DA:96,80
DA:97,80
DA:98,80
DA:99,80
DA:100,80
DA:102,80
DA:103,80
DA:104,80
DA:107,80
DA:109,80
DA:110,0
DA:111,0
DA:112,0
DA:114,0
DA:115,0
DA:116,0
DA:117,0
DA:118,0
DA:119,0
DA:120,0
DA:121,0
DA:123,0
DA:124,0
DA:125,0
DA:126,80
DA:128,80
BRF:0
BRH:0
LF:97
LH:62
end_of_record
SF:/home/user/flexorama/src/tui.rs
FN:188,_RNvMs0_NtCsa6QFEuJDwzK_9flexorama3tuiNtB5_3Tui11output_sink
FN:151,_RNvMs0_NtCsa6QFEuJDwzK_9flexorama3tuiNtB5_3Tui3new
FN:1893,_RNvNtCsa6QFEuJDwzK_9flexorama3tui15init_tui_output
FN:1048,_RNvXs4_NtCsa6QFEuJDwzK_9flexorama3tuiNtB5_13TuiOutputSinkNtNtB7_6output10OutputSink5flush
FN:1025,_RNvXs4_NtCsa6QFEuJDwzK_9flexorama3tuiNtB5_13TuiOutputSinkNtNtB7_6output10OutputSink5write
FN:734,_RNvXs1_NtCsa6QFEuJDwzK_9flexorama3tuiNtB5_3TuiNtNtNtCs3XFJfFEDSOQ_4core3ops4drop4Drop4drop
FN:1964,_RNvNtNtCsa6QFEuJDwzK_9flexorama3tui5testss_22test_output_buffer_new
FN:1909,_RNvNtNtCsa6QFEuJDwzK_9flexorama3tui5testss_22test_text_position_new
FN:2709,_RNvNtNtCsa6QFEuJDwzK_9flexorama3tui5testss_27test_text_position_equality
FN:2139,_RNvNtNtCsa6QFEuJDwzK_9flexorama3tui5testss_27test_wrap_ansi_line_no_wrap
FN:2287,_RNvNtNtCsa6QFEuJDwzK_9flexorama3tui5testss_28test_next_char_boundary_utf8
FN:2483,_RNvNtNtCsa6QFEuJDwzK_9flexorama3tui5testss_29test_build_input_layout_empty
FN:2415,_RNvNtNtCsa6QFEuJDwzK_9flexorama3tui5testss_29test_build_queue_lines_simple
FN:2278,_RNvNtNtCsa6QFEuJDwzK_9flexorama3tui5testss_29test_next_char_boundary_ascii
FN:2306,_RNvNtNtCsa6QFEuJDwzK_9flexorama3tui5testss_29test_next_char_boundary_empty
FN:2296,_RNvNtNtCsa6QFEuJDwzK_9flexorama3tui5testss_29test_next_char_boundary_mixed
FN:2061,_RNvNtNtCsa6QFEuJDwzK_9flexorama3tui5testss_29test_strip_ansi_codes_no_ansi
FN:2788,_RNvNtNtCsa6QFEuJDwzK_9flexorama3tui5testss_30test_next_char_boundary_at_end
FN:2221,_RNvNtNtCsa6QFEuJDwzK_9flexorama3tui5testss_30test_normalize_cursor_pos_utf8
FN:2155,_RNvNtNtCsa6QFEuJDwzK_9flexorama3tui5testss_30test_wrap_ansi_line_needs_wrap
FN:2187,_RNvNtNtCsa6QFEuJDwzK_9flexorama3tui5testss_30test_wrap_ansi_line_zero_width
FN:2366,_RNvNtNtCsa6QFEuJDwzK_9flexorama3tui5testss_31test_build_output_lines_no_wrap
FN:2207,_RNvNtNtCsa6QFEuJDwzK_9flexorama3tui5testss_31test_normalize_cursor_pos_valid
FN:2089,_RNvNtNtCsa6QFEuJDwzK_9flexorama3tui5testss_31test_strip_ansi_codes_only_ansi
FN:2942,_RNvNtNtCsa6QFEuJDwzK_9flexorama3tui5testss_31test_strip_ansi_complex_nesting
FN:2147,_RNvNtNtCsa6QFEuJDwzK_9flexorama3tui5testss_31test_wrap_ansi_line_exact_width
FN:2445,_RNvNtNtCsa6QFEuJDwzK_9flexorama3tui5testss_32test_build_queue_lines_with_wrap
FN:2976,_RNvNtNtCsa6QFEuJDwzK_9flexorama3tui5testss_32test_cursor_position_single_char
FN:2689,_RNvNtNtCsa6QFEuJDwzK_9flexorama3tui5testss_32test_output_buffer_only_newlines
FN:2251,_RNvNtNtCsa6QFEuJDwzK_9flexorama3tui5testss_32test_previous_char_boundary_utf8
FN:2068,_RNvNtNtCsa6QFEuJDwzK_9flexorama3tui5testss_32test_strip_ansi_codes_with_color
FN:2634,_RNvNtNtCsa6QFEuJDwzK_9flexorama3tui5testss_32test_utf8_handling_comprehensive
FN:2195,_RNvNtNtCsa6QFEuJDwzK_9flexorama3tui5testss_32test_wrap_ansi_line_empty_string
FN:2521,_RNvNtNtCsa6QFEuJDwzK_9flexorama3tui5testss_33test_build_input_layout_multiline
FN:2375,_RNvNtNtCsa6QFEuJDwzK_9flexorama3tui5testss_33test_build_output_lines_with_wrap
FN:2453,_RNvNtNtCsa6QFEuJDwzK_9flexorama3tui5testss_33test_build_queue_lines_truncation
FN:2431,_RNvNtNtCsa6QFEuJDwzK_9flexorama3tui5testss_33test_build_queue_lines_zero_width
FN:2616,_RNvNtNtCsa6QFEuJDwzK_9flexorama3tui5testss_33test_cursor_navigation_boundaries
FN:2967,_RNvNtNtCsa6QFEuJDwzK_9flexorama3tui5testss_33test_output_buffer_very_long_line
FN:2242,_RNvNtNtCsa6QFEuJDwzK_9flexorama3tui5testss_33test_previous_char_boundary_ascii
FN:2268,_RNvNtNtCsa6QFEuJDwzK_9flexorama3tui5testss_33test_previous_char_boundary_empty
FN:2260,_RNvNtNtCsa6QFEuJDwzK_9flexorama3tui5testss_33test_previous_char_boundary_mixed
FN:2403,_RNvNtNtCsa6QFEuJDwzK_9flexorama3tui5testss_34test_build_output_lines_zero_width
FN:2424,_RNvNtNtCsa6QFEuJDwzK_9flexorama3tui5testss_34test_build_queue_lines_empty_queue
FN:2808,_RNvNtNtCsa6QFEuJDwzK_9flexorama3tui5testss_34test_build_queue_lines_single_item
FN:2699,_RNvNtNtCsa6QFEuJDwzK_9flexorama3tui5testss_34test_output_buffer_max_lines_exact
FN:1980,_RNvNtNtCsa6QFEuJDwzK_9flexorama3tui5testss_34test_output_buffer_push_text_empty
FN:2082,_RNvNtNtCsa6QFEuJDwzK_9flexorama3tui5testss_34test_strip_ansi_codes_empty_string
FN:2741,_RNvNtNtCsa6QFEuJDwzK_9flexorama3tui5testss_34test_strip_ansi_codes_unterminated
FN:2908,_RNvNtNtCsa6QFEuJDwzK_9flexorama3tui5testss_34test_wrap_ansi_line_exact_boundary
FN:2164,_RNvNtNtCsa6QFEuJDwzK_9flexorama3tui5testss_34test_wrap_ansi_line_multiple_wraps
FN:2767,_RNvNtNtCsa6QFEuJDwzK_9flexorama3tui5testss_34test_wrap_ansi_line_with_only_ansi
FN:2384,_RNvNtNtCsa6QFEuJDwzK_9flexorama3tui5testss_35test_build_output_lines_empty_input
FN:2858,_RNvNtNtCsa6QFEuJDwzK_9flexorama3tui5testss_35test_output_buffer_incremental_push
FN:1972,_RNvNtNtCsa6QFEuJDwzK_9flexorama3tui5testss_35test_output_buffer_push_text_simple
FN:2716,_RNvNtNtCsa6QFEuJDwzK_9flexorama3tui5testss_35test_text_position_min_max_boundary
FN:1949,_RNvNtNtCsa6QFEuJDwzK_9flexorama3tui5testss_35test_text_position_min_max_reversed
FN:2175,_RNvNtNtCsa6QFEuJDwzK_9flexorama3tui5testss_35test_wrap_ansi_line_with_ansi_codes
FN:2502,_RNvNtNtCsa6QFEuJDwzK_9flexorama3tui5testss_36test_build_input_layout_simple_input
FN:2840,_RNvNtNtCsa6QFEuJDwzK_9flexorama3tui5testss_36test_build_input_layout_with_unicode
FN:2816,_RNvNtNtCsa6QFEuJDwzK_9flexorama3tui5testss_36test_build_queue_lines_with_newlines
FN:2215,_RNvNtNtCsa6QFEuJDwzK_9flexorama3tui5testss_36test_normalize_cursor_pos_beyond_end
FN:2008,_RNvNtNtCsa6QFEuJDwzK_9flexorama3tui5testss_36test_output_buffer_push_text_with_cr
FN:2782,_RNvNtNtCsa6QFEuJDwzK_9flexorama3tui5testss_36test_previous_char_boundary_at_start
FN:2096,_RNvNtNtCsa6QFEuJDwzK_9flexorama3tui5testss_36test_strip_ansi_codes_bold_and_color
FN:1916,_RNvNtNtCsa6QFEuJDwzK_9flexorama3tui5testss_36test_text_position_min_max_same_line
FN:2759,_RNvNtNtCsa6QFEuJDwzK_9flexorama3tui5testss_36test_wrap_ansi_line_single_character
FN:2824,_RNvNtNtCsa6QFEuJDwzK_9flexorama3tui5testss_37test_build_input_layout_cursor_at_end
FN:2556,_RNvNtNtCsa6QFEuJDwzK_9flexorama3tui5testss_37test_build_input_layout_cursor_middle
FN:2573,_RNvNtNtCsa6QFEuJDwzK_9flexorama3tui5testss_37test_build_input_layout_with_wrapping
FN:2438,_RNvNtNtCsa6QFEuJDwzK_9flexorama3tui5testss_37test_build_queue_lines_zero_max_lines
FN:2775,_RNvNtNtCsa6QFEuJDwzK_9flexorama3tui5testss_37test_normalize_cursor_pos_at_boundary
FN:2667,_RNvNtNtCsa6QFEuJDwzK_9flexorama3tui5testss_37test_output_buffer_mixed_line_endings
FN:2075,_RNvNtNtCsa6QFEuJDwzK_9flexorama3tui5testss_37test_strip_ansi_codes_multiple_colors
FN:2734,_RNvNtNtCsa6QFEuJDwzK_9flexorama3tui5testss_37test_strip_ansi_codes_multiple_resets
FN:2651,_RNvNtNtCsa6QFEuJDwzK_9flexorama3tui5testss_37test_wrap_and_build_lines_integration
FN:2916,_RNvNtNtCsa6QFEuJDwzK_9flexorama3tui5testss_37test_wrap_ansi_line_one_over_boundary
FN:2933,_RNvNtNtCsa6QFEuJDwzK_9flexorama3tui5testss_38test_build_queue_lines_very_wide_width
FN:2231,_RNvNtNtCsa6QFEuJDwzK_9flexorama3tui5testss_38test_normalize_cursor_pos_empty_string
FN:1998,_RNvNtNtCsa6QFEuJDwzK_9flexorama3tui5testss_38test_output_buffer_push_text_with_crlf
FN:2107,_RNvNtNtCsa6QFEuJDwzK_9flexorama3tui5testss_38test_screen_col_to_char_offset_no_ansi
FN:2727,_RNvNtNtCsa6QFEuJDwzK_9flexorama3tui5testss_38test_strip_ansi_codes_complex_sequence
FN:2801,_RNvNtNtCsa6QFEuJDwzK_9flexorama3tui5testss_39test_build_output_lines_with_long_lines
FN:2678,_RNvNtNtCsa6QFEuJDwzK_9flexorama3tui5testss_39test_output_buffer_consecutive_newlines
FN:2539,_RNvNtNtCsa6QFEuJDwzK_9flexorama3tui5testss_40test_build_input_layout_cursor_beginning
FN:2334,_RNvNtNtCsa6QFEuJDwzK_9flexorama3tui5testss_40test_cursor_position_in_lines_at_newline
FN:2349,_RNvNtNtCsa6QFEuJDwzK_9flexorama3tui5testss_40test_cursor_position_in_lines_beyond_end
FN:2894,_RNvNtNtCsa6QFEuJDwzK_9flexorama3tui5testss_40test_normalize_cursor_pos_with_multibyte
FN:2115,_RNvNtNtCsa6QFEuJDwzK_9flexorama3tui5testss_40test_screen_col_to_char_offset_with_ansi
FN:2925,_RNvNtNtCsa6QFEuJDwzK_9flexorama3tui5testss_41test_build_output_lines_single_empty_line
FN:2341,_RNvNtNtCsa6QFEuJDwzK_9flexorama3tui5testss_41test_cursor_position_in_lines_empty_lines
FN:2316,_RNvNtNtCsa6QFEuJDwzK_9flexorama3tui5testss_41test_cursor_position_in_lines_single_line
FN:1988,_RNvNtNtCsa6QFEuJDwzK_9flexorama3tui5testss_41test_output_buffer_push_text_with_newline
FN:2748,_RNvNtNtCsa6QFEuJDwzK_9flexorama3tui5testss_41test_screen_col_to_char_offset_edge_cases
FN:2392,_RNvNtNtCsa6QFEuJDwzK_9flexorama3tui5testss_42test_build_output_lines_multiple_with_wrap
FN:2355,_RNvNtNtCsa6QFEuJDwzK_9flexorama3tui5testss_42test_cursor_position_in_lines_empty_string
FN:2958,_RNvNtNtCsa6QFEuJDwzK_9flexorama3tui5testss_42test_next_char_boundary_multibyte_boundary
FN:2605,_RNvNtNtCsa6QFEuJDwzK_9flexorama3tui5testss_42test_strip_ansi_and_screen_col_integration
FN:1927,_RNvNtNtCsa6QFEuJDwzK_9flexorama3tui5testss_42test_text_position_min_max_different_lines
FN:1938,_RNvNtNtCsa6QFEuJDwzK_9flexorama3tui5testss_42test_text_position_min_max_equal_positions
FN:2885,_RNvNtNtCsa6QFEuJDwzK_9flexorama3tui5testss_43test_cursor_position_in_lines_only_newlines
FN:2018,_RNvNtNtCsa6QFEuJDwzK_9flexorama3tui5testss_43test_output_buffer_push_text_multiple_calls
FN:2983,_RNvNtNtCsa6QFEuJDwzK_9flexorama3tui5testss_44test_build_input_layout_with_very_long_input
FN:2324,_RNvNtNtCsa6QFEuJDwzK_9flexorama3tui5testss_44test_cursor_position_in_lines_multiple_lines
FN:2048,_RNvNtNtCsa6QFEuJDwzK_9flexorama3tui5testss_44test_output_buffer_push_text_leading_newline
FN:2029,_RNvNtNtCsa6QFEuJDwzK_9flexorama3tui5testss_44test_output_buffer_push_text_max_lines_limit
FN:2126,_RNvNtNtCsa6QFEuJDwzK_9flexorama3tui5testss_44test_screen_col_to_char_offset_multiple_ansi
FN:2874,_RNvNtNtCsa6QFEuJDwzK_9flexorama3tui5testss_44test_text_position_min_max_same_line_reverse
FN:2471,_RNvNtNtCsa6QFEuJDwzK_9flexorama3tui5testss_45test_build_queue_lines_double_digit_numbering
FN:2039,_RNvNtNtCsa6QFEuJDwzK_9flexorama3tui5testss_45test_output_buffer_push_text_trailing_newline
FN:2794,_RNvNtNtCsa6QFEuJDwzK_9flexorama3tui5testss_46test_cursor_position_in_lines_trailing_newline
FN:2949,_RNvNtNtCsa6QFEuJDwzK_9flexorama3tui5testss_46test_previous_char_boundary_multibyte_boundary
FN:2594,_RNvNtNtCsa6QFEuJDwzK_9flexorama3tui5testss_53test_output_buffer_and_build_output_lines_integration
FN:2472,_RNCNvNtNtCsa6QFEuJDwzK_9flexorama3tui5testss_45test_build_queue_lines_double_digit_numbering0B7_
FN:755,_RNCNvMs2_NtCsa6QFEuJDwzK_9flexorama3tuiNtB7_8TuiState8snapshot0B9_
FN:797,_RNCNvMs3_NtCsa6QFEuJDwzK_9flexorama3tuiNtB7_9TuiScreen12render_frame0B9_
FN:912,_RNCNvMs3_NtCsa6QFEuJDwzK_9flexorama3tuiNtB7_9TuiScreen27render_permission_in_output0B9_
FN:1410,_RNCNvNtCsa6QFEuJDwzK_9flexorama3tui16build_queue_text0B5_
FN:1332,_RNCNvNtCsa6QFEuJDwzK_9flexorama3tui17build_output_text0B5_
FN:1642,_RNCNvNtCsa6QFEuJDwzK_9flexorama3tui18build_input_layout0B5_
FN:1889,_RNCNvNtCsa6QFEuJDwzK_9flexorama3tui18next_char_boundary0B5_
FN:1876,_RNCNvNtCsa6QFEuJDwzK_9flexorama3tui22previous_char_boundary0B5_
FN:1597,_RNCNvNtCsa6QFEuJDwzK_9flexorama3tui28build_input_text_with_layout0B5_
FN:1549,_RNCNvNtCsa6QFEuJDwzK_9flexorama3tui29build_output_text_with_prompt0B5_
FN:1767,_RNCNvNtCsa6QFEuJDwzK_9flexorama3tui30drain_queued_input_after_enter0B5_
FN:736,_RNCNvXs1_NtCsa6QFEuJDwzK_9flexorama3tuiNtB7_3TuiNtNtNtCs3XFJfFEDSOQ_4core3ops4drop4Drop4drop0B9_
FN:64,_RNvMNtCsa6QFEuJDwzK_9flexorama3tuiNtB2_12TextPosition3new
FN:71,_RNvMNtCsa6QFEuJDwzK_9flexorama3tuiNtB2_12TextPosition7min_max
FN:221,_RNvMs0_NtCsa6QFEuJDwzK_9flexorama3tuiNtB5_3Tui10read_input
FN:345,_RNvMs0_NtCsa6QFEuJDwzK_9flexorama3tuiNtB5_3Tui12handle_paste
FN:211,_RNvMs0_NtCsa6QFEuJDwzK_9flexorama3tuiNtB5_3Tui15render_snapshot
FN:415,_RNvMs0_NtCsa6QFEuJDwzK_9flexorama3tuiNtB5_3Tui16handle_key_event
FN:676,_RNvMs0_NtCsa6QFEuJDwzK_9flexorama3tuiNtB5_3Tui17get_selected_text
FN:283,_RNvMs0_NtCsa6QFEuJDwzK_9flexorama3tuiNtB5_3Tui17prompt_permission
FN:216,_RNvMs0_NtCsa6QFEuJDwzK_9flexorama3tuiNtB5_3Tui17render_input_only
FN:357,_RNvMs0_NtCsa6QFEuJDwzK_9flexorama3tuiNtB5_3Tui18handle_mouse_event
FN:600,_RNvMs0_NtCsa6QFEuJDwzK_9flexorama3tuiNtB5_3Tui23screen_to_text_position
FN:196,_RNvMs0_NtCsa6QFEuJDwzK_9flexorama3tuiNtB5_3Tui6render
FN:263,_RNvMs0_NtCsa6QFEuJDwzK_9flexorama3tuiNtB5_3Tui9set_queue
FN:273,_RNvMs0_NtCsa6QFEuJDwzK_9flexorama3tuiNtB5_3Tui9set_todos
FN:746,_RNvMs2_NtCsa6QFEuJDwzK_9flexorama3tuiNtB5_8TuiState8snapshot
FN:788,_RNvMs3_NtCsa6QFEuJDwzK_9flexorama3tuiNtB5_9TuiScreen11render_full
FN:796,_RNvMs3_NtCsa6QFEuJDwzK_9flexorama3tuiNtB5_9TuiScreen12render_frame
FN:792,_RNvMs3_NtCsa6QFEuJDwzK_9flexorama3tuiNtB5_9TuiScreen17render_input_only
FN:905,_RNvMs3_NtCsa6QFEuJDwzK_9flexorama3tuiNtB5_9TuiScreen27render_permission_in_output
FN:1020,_RNvMs3_NtCsa6QFEuJDwzK_9flexorama3tuiNtB5_9TuiScreen5reset
FN:115,_RNvMs_NtCsa6QFEuJDwzK_9flexorama3tuiNtB4_12OutputBuffer3new
FN:122,_RNvMs_NtCsa6QFEuJDwzK_9flexorama3tuiNtB4_12OutputBuffer9push_text
FN:1808,_RNvNtCsa6QFEuJDwzK_9flexorama3tui14wrap_ansi_line
FN:1503,_RNvNtCsa6QFEuJDwzK_9flexorama3tui15build_todo_text
FN:1404,_RNvNtCsa6QFEuJDwzK_9flexorama3tui16build_queue_text
FN:1439,_RNvNtCsa6QFEuJDwzK_9flexorama3tui16build_todo_lines
FN:1141,_RNvNtCsa6QFEuJDwzK_9flexorama3tui16strip_ansi_codes
FN:1294,_RNvNtCsa6QFEuJDwzK_9flexorama3tui17build_output_text
FN:1358,_RNvNtCsa6QFEuJDwzK_9flexorama3tui17build_queue_lines
FN:1416,_RNvNtCsa6QFEuJDwzK_9flexorama3tui17build_todo_layout
FN:1610,_RNvNtCsa6QFEuJDwzK_9flexorama3tui18build_input_layout
FN:1199,_RNvNtCsa6QFEuJDwzK_9flexorama3tui18build_line_mapping
FN:1688,_RNvNtCsa6QFEuJDwzK_9flexorama3tui18build_output_lines
FN:1339,_RNvNtCsa6QFEuJDwzK_9flexorama3tui18build_queue_layout
FN:1880,_RNvNtCsa6QFEuJDwzK_9flexorama3tui18next_char_boundary
FN:1850,_RNvNtCsa6QFEuJDwzK_9flexorama3tui20normalize_cursor_pos
FN:1704,_RNvNtCsa6QFEuJDwzK_9flexorama3tui22build_permission_lines
FN:1866,_RNvNtCsa6QFEuJDwzK_9flexorama3tui22previous_char_boundary
FN:1671,_RNvNtCsa6QFEuJDwzK_9flexorama3tui24cursor_position_in_lines
FN:1062,_RNvNtCsa6QFEuJDwzK_9flexorama3tui25handle_reverse_search_key
FN:1163,_RNvNtCsa6QFEuJDwzK_9flexorama3tui25screen_col_to_char_offset
FN:1221,_RNvNtCsa6QFEuJDwzK_9flexorama3tui26render_line_with_selection
FN:1562,_RNvNtCsa6QFEuJDwzK_9flexorama3tui28build_input_text_with_layout
FN:1531,_RNvNtCsa6QFEuJDwzK_9flexorama3tui29build_output_text_with_prompt
FN:1758,_RNvNtCsa6QFEuJDwzK_9flexorama3tui30drain_queued_input_after_enter
FNDA:0,_RNvMs0_NtCsa6QFEuJDwzK_9flexorama3tuiNtB5_3Tui11output_sink
FNDA:0,_RNvMs0_NtCsa6QFEuJDwzK_9flexorama3tuiNtB5_3Tui3new
FNDA:0,_RNvNtCsa6QFEuJDwzK_9flexorama3tui15init_tui_output
FNDA:0,_RNvXs4_NtCsa6QFEuJDwzK_9flexorama3tuiNtB5_13TuiOutputSinkNtNtB7_6output10OutputSink5flush
FNDA:0,_RNvXs4_NtCsa6QFEuJDwzK_9flexorama3tuiNtB5_13TuiOutputSinkNtNtB7_6output10OutputSink5write
FNDA:0,_RNvXs1_NtCsa6QFEuJDwzK_9flexorama3tuiNtB5_3TuiNtNtNtCs3XFJfFEDSOQ_4core3ops4drop4Drop4drop
FNDA:1,_RNvNtNtCsa6QFEuJDwzK_9flexorama3tui5testss_22test_output_buffer_new
FNDA:1,_RNvNtNtCsa6QFEuJDwzK_9flexorama3tui5testss_22test_text_position_new
FNDA:1,_RNvNtNtCsa6QFEuJDwzK_9flexorama3tui5testss_27test_text_position_equality
FNDA:1,_RNvNtNtCsa6QFEuJDwzK_9flexorama3tui5testss_27test_wrap_ansi_line_no_wrap
FNDA:1,_RNvNtNtCsa6QFEuJDwzK_9flexorama3tui5testss_28test_next_char_boundary_utf8
FNDA:1,_RNvNtNtCsa6QFEuJDwzK_9flexorama3tui5testss_29test_build_input_layout_empty
FNDA:1,_RNvNtNtCsa6QFEuJDwzK_9flexorama3tui5testss_29test_build_queue_lines_simple
FNDA:1,_RNvNtNtCsa6QFEuJDwzK_9flexorama3tui5testss_29test_next_char_boundary_ascii
FNDA:1,_RNvNtNtCsa6QFEuJDwzK_9flexorama3tui5testss_29test_next_char_boundary_empty
FNDA:1,_RNvNtNtCsa6QFEuJDwzK_9flexorama3tui5testss_29test_next_char_boundary_mixed
FNDA:1,_RNvNtNtCsa6QFEuJDwzK_9flexorama3tui5testss_29test_strip_ansi_codes_no_ansi
FNDA:1,_RNvNtNtCsa6QFEuJDwzK_9flexorama3tui5testss_30test_next_char_boundary_at_end
FNDA:1,_RNvNtNtCsa6QFEuJDwzK_9flexorama3tui5testss_30test_normalize_cursor_pos_utf8
FNDA:1,_RNvNtNtCsa6QFEuJDwzK_9flexorama3tui5testss_30test_wrap_ansi_line_needs_wrap
FNDA:1,_RNvNtNtCsa6QFEuJDwzK_9flexorama3tui5testss_30test_wrap_ansi_line_zero_width
FNDA:1,_RNvNtNtCsa6QFEuJDwzK_9flexorama3tui5testss_31test_build_output_lines_no_wrap
FNDA:1,_RNvNtNtCsa6QFEuJDwzK_9flexorama3tui5testss_31test_normalize_cursor_pos_valid
FNDA:1,_RNvNtNtCsa6QFEuJDwzK_9flexorama3tui5testss_31test_strip_ansi_codes_only_ansi
FNDA:1,_RNvNtNtCsa6QFEuJDwzK_9flexorama3tui5testss_31test_strip_ansi_complex_nesting
FNDA:1,_RNvNtNtCsa6QFEuJDwzK_9flexorama3tui5testss_31test_wrap_ansi_line_exact_width
FNDA:1,_RNvNtNtCsa6QFEuJDwzK_9flexorama3tui5testss_32test_build_queue_lines_with_wrap
FNDA:1,_RNvNtNtCsa6QFEuJDwzK_9flexorama3tui5testss_32test_cursor_position_single_char
FNDA:1,_RNvNtNtCsa6QFEuJDwzK_9flexorama3tui5testss_32test_output_buffer_only_newlines
FNDA:1,_RNvNtNtCsa6QFEuJDwzK_9flexorama3tui5testss_32test_previous_char_boundary_utf8
FNDA:1,_RNvNtNtCsa6QFEuJDwzK_9flexorama3tui5testss_32test_strip_ansi_codes_with_color
FNDA:1,_RNvNtNtCsa6QFEuJDwzK_9flexorama3tui5testss_32test_utf8_handling_comprehensive
FNDA:1,_RNvNtNtCsa6QFEuJDwzK_9flexorama3tui5testss_32test_wrap_ansi_line_empty_string
FNDA:1,_RNvNtNtCsa6QFEuJDwzK_9flexorama3tui5testss_33test_build_input_layout_multiline
FNDA:1,_RNvNtNtCsa6QFEuJDwzK_9flexorama3tui5testss_33test_build_output_lines_with_wrap
FNDA:1,_RNvNtNtCsa6QFEuJDwzK_9flexorama3tui5testss_33test_build_queue_lines_truncation
FNDA:1,_RNvNtNtCsa6QFEuJDwzK_9flexorama3tui5testss_33test_build_queue_lines_zero_width
FNDA:1,_RNvNtNtCsa6QFEuJDwzK_9flexorama3tui5testss_33test_cursor_navigation_boundaries
FNDA:1,_RNvNtNtCsa6QFEuJDwzK_9flexorama3tui5testss_33test_output_buffer_very_long_line
FNDA:1,_RNvNtNtCsa6QFEuJDwzK_9flexorama3tui5testss_33test_previous_char_boundary_ascii
FNDA:1,_RNvNtNtCsa6QFEuJDwzK_9flexorama3tui5testss_33test_previous_char_boundary_empty
FNDA:1,_RNvNtNtCsa6QFEuJDwzK_9flexorama3tui5testss_33test_previous_char_boundary_mixed
FNDA:1,_RNvNtNtCsa6QFEuJDwzK_9flexorama3tui5testss_34test_build_output_lines_zero_width
FNDA:1,_RNvNtNtCsa6QFEuJDwzK_9flexorama3tui5testss_34test_build_queue_lines_empty_queue
FNDA:1,_RNvNtNtCsa6QFEuJDwzK_9flexorama3tui5testss_34test_build_queue_lines_single_item
FNDA:1,_RNvNtNtCsa6QFEuJDwzK_9flexorama3tui5testss_34test_output_buffer_max_lines_exact
FNDA:1,_RNvNtNtCsa6QFEuJDwzK_9flexorama3tui5testss_34test_output_buffer_push_text_empty
FNDA:1,_RNvNtNtCsa6QFEuJDwzK_9flexorama3tui5testss_34test_strip_ansi_codes_empty_string
FNDA:1,_RNvNtNtCsa6QFEuJDwzK_9flexorama3tui5testss_34test_strip_ansi_codes_unterminated
FNDA:1,_RNvNtNtCsa6QFEuJDwzK_9flexorama3tui5testss_34test_wrap_ansi_line_exact_boundary
FNDA:1,_RNvNtNtCsa6QFEuJDwzK_9flexorama3tui5testss_34test_wrap_ansi_line_multiple_wraps
FNDA:1,_RNvNtNtCsa6QFEuJDwzK_9flexorama3tui5testss_34test_wrap_ansi_line_with_only_ansi
FNDA:1,_RNvNtNtCsa6QFEuJDwzK_9flexorama3tui5testss_35test_build_output_lines_empty_input
FNDA:1,_RNvNtNtCsa6QFEuJDwzK_9flexorama3tui5testss_35test_output_buffer_incremental_push
FNDA:1,_RNvNtNtCsa6QFEuJDwzK_9flexorama3tui5testss_35test_output_buffer_push_text_simple
FNDA:1,_RNvNtNtCsa6QFEuJDwzK_9flexorama3tui5testss_35test_text_position_min_max_boundary
FNDA:1,_RNvNtNtCsa6QFEuJDwzK_9flexorama3tui5testss_35test_text_position_min_max_reversed
FNDA:1,_RNvNtNtCsa6QFEuJDwzK_9flexorama3tui5testss_35test_wrap_ansi_line_with_ansi_codes
FNDA:1,_RNvNtNtCsa6QFEuJDwzK_9flexorama3tui5testss_36test_build_input_layout_simple_input
FNDA:1,_RNvNtNtCsa6QFEuJDwzK_9flexorama3tui5testss_36test_build_input_layout_with_unicode
FNDA:1,_RNvNtNtCsa6QFEuJDwzK_9flexorama3tui5testss_36test_build_queue_lines_with_newlines
FNDA:1,_RNvNtNtCsa6QFEuJDwzK_9flexorama3tui5testss_36test_normalize_cursor_pos_beyond_end
FNDA:1,_RNvNtNtCsa6QFEuJDwzK_9flexorama3tui5testss_36test_output_buffer_push_text_with_cr
FNDA:1,_RNvNtNtCsa6QFEuJDwzK_9flexorama3tui5testss_36test_previous_char_boundary_at_start
FNDA:1,_RNvNtNtCsa6QFEuJDwzK_9flexorama3tui5testss_36test_strip_ansi_codes_bold_and_color
FNDA:1,_RNvNtNtCsa6QFEuJDwzK_9flexorama3tui5testss_36test_text_position_min_max_same_line
FNDA:1,_RNvNtNtCsa6QFEuJDwzK_9flexorama3tui5testss_36test_wrap_ansi_line_single_character
FNDA:1,_RNvNtNtCsa6QFEuJDwzK_9flexorama3tui5testss_37test_build_input_layout_cursor_at_end
FNDA:1,_RNvNtNtCsa6QFEuJDwzK_9flexorama3tui5testss_37test_build_input_layout_cursor_middle
FNDA:1,_RNvNtNtCsa6QFEuJDwzK_9flexorama3tui5testss_37test_build_input_layout_with_wrapping
FNDA:1,_RNvNtNtCsa6QFEuJDwzK_9flexorama3tui5testss_37test_build_queue_lines_zero_max_lines
FNDA:1,_RNvNtNtCsa6QFEuJDwzK_9flexorama3tui5testss_37test_normalize_cursor_pos_at_boundary
FNDA:1,_RNvNtNtCsa6QFEuJDwzK_9flexorama3tui5testss_37test_output_buffer_mixed_line_endings
FNDA:1,_RNvNtNtCsa6QFEuJDwzK_9flexorama3tui5testss_37test_strip_ansi_codes_multiple_colors
FNDA:1,_RNvNtNtCsa6QFEuJDwzK_9flexorama3tui5testss_37test_strip_ansi_codes_multiple_resets
FNDA:1,_RNvNtNtCsa6QFEuJDwzK_9flexorama3tui5testss_37test_wrap_and_build_lines_integration
FNDA:1,_RNvNtNtCsa6QFEuJDwzK_9flexorama3tui5testss_37test_wrap_ansi_line_one_over_boundary
FNDA:1,_RNvNtNtCsa6QFEuJDwzK_9flexorama3tui5testss_38test_build_queue_lines_very_wide_width
FNDA:1,_RNvNtNtCsa6QFEuJDwzK_9flexorama3tui5testss_38test_normalize_cursor_pos_empty_string
FNDA:1,_RNvNtNtCsa6QFEuJDwzK_9flexorama3tui5testss_38test_output_buffer_push_text_with_crlf
FNDA:1,_RNvNtNtCsa6QFEuJDwzK_9flexorama3tui5testss_38test_screen_col_to_char_offset_no_ansi
FNDA:1,_RNvNtNtCsa6QFEuJDwzK_9flexorama3tui5testss_38test_strip_ansi_codes_complex_sequence
FNDA:1,_RNvNtNtCsa6QFEuJDwzK_9flexorama3tui5testss_39test_build_output_lines_with_long_lines
FNDA:1,_RNvNtNtCsa6QFEuJDwzK_9flexorama3tui5testss_39test_output_buffer_consecutive_newlines
FNDA:1,_RNvNtNtCsa6QFEuJDwzK_9flexorama3tui5testss_40test_build_input_layout_cursor_beginning
FNDA:1,_RNvNtNtCsa6QFEuJDwzK_9flexorama3tui5testss_40test_cursor_position_in_lines_at_newline
FNDA:1,_RNvNtNtCsa6QFEuJDwzK_9flexorama3tui5testss_40test_cursor_position_in_lines_beyond_end
FNDA:1,_RNvNtNtCsa6QFEuJDwzK_9flexorama3tui5testss_40test_normalize_cursor_pos_with_multibyte
FNDA:1,_RNvNtNtCsa6QFEuJDwzK_9flexorama3tui5testss_40test_screen_col_to_char_offset_with_ansi
FNDA:1,_RNvNtNtCsa6QFEuJDwzK_9flexorama3tui5testss_41test_build_output_lines_single_empty_line
FNDA:1,_RNvNtNtCsa6QFEuJDwzK_9flexorama3tui5testss_41test_cursor_position_in_lines_empty_lines
FNDA:1,_RNvNtNtCsa6QFEuJDwzK_9flexorama3tui5testss_41test_cursor_position_in_lines_single_line
FNDA:1,_RNvNtNtCsa6QFEuJDwzK_9flexorama3tui5testss_41test_output_buffer_push_text_with_newline
FNDA:1,_RNvNtNtCsa6QFEuJDwzK_9flexorama3tui5testss_41test_screen_col_to_char_offset_edge_cases
FNDA:1,_RNvNtNtCsa6QFEuJDwzK_9flexorama3tui5testss_42test_build_output_lines_multiple_with_wrap
FNDA:1,_RNvNtNtCsa6QFEuJDwzK_9flexorama3tui5testss_42test_cursor_position_in_lines_empty_string
FNDA:1,_RNvNtNtCsa6QFEuJDwzK_9flexorama3tui5testss_42test_next_char_boundary_multibyte_boundary
FNDA:1,_RNvNtNtCsa6QFEuJDwzK_9flexorama3tui5testss_42test_strip_ansi_and_screen_col_integration
FNDA:1,_RNvNtNtCsa6QFEuJDwzK_9flexorama3tui5testss_42test_text_position_min_max_different_lines
FNDA:1,_RNvNtNtCsa6QFEuJDwzK_9flexorama3tui5testss_42test_text_position_min_max_equal_positions
FNDA:1,_RNvNtNtCsa6QFEuJDwzK_9flexorama3tui5testss_43test_cursor_position_in_lines_only_newlines
FNDA:1,_RNvNtNtCsa6QFEuJDwzK_9flexorama3tui5testss_43test_output_buffer_push_text_multiple_calls
FNDA:1,_RNvNtNtCsa6QFEuJDwzK_9flexorama3tui5testss_44test_build_input_layout_with_very_long_input
FNDA:1,_RNvNtNtCsa6QFEuJDwzK_9flexorama3tui5testss_44test_cursor_position_in_lines_multiple_lines
FNDA:1,_RNvNtNtCsa6QFEuJDwzK_9flexorama3tui5testss_44test_output_buffer_push_text_leading_newline
FNDA:1,_RNvNtNtCsa6QFEuJDwzK_9flexorama3tui5testss_44test_output_buffer_push_text_max_lines_limit
FNDA:1,_RNvNtNtCsa6QFEuJDwzK_9flexorama3tui5testss_44test_screen_col_to_char_offset_multiple_ansi
FNDA:1,_RNvNtNtCsa6QFEuJDwzK_9flexorama3tui5testss_44test_text_position_min_max_same_line_reverse
FNDA:1,_RNvNtNtCsa6QFEuJDwzK_9flexorama3tui5testss_45test_build_queue_lines_double_digit_numbering
FNDA:1,_RNvNtNtCsa6QFEuJDwzK_9flexorama3tui5testss_45test_output_buffer_push_text_trailing_newline
FNDA:1,_RNvNtNtCsa6QFEuJDwzK_9flexorama3tui5testss_46test_cursor_position_in_lines_trailing_newline
FNDA:1,_RNvNtNtCsa6QFEuJDwzK_9flexorama3tui5testss_46test_previous_char_boundary_multibyte_boundary
FNDA:1,_RNvNtNtCsa6QFEuJDwzK_9flexorama3tui5testss_53test_output_buffer_and_build_output_lines_integration
FNDA:15,_RNCNvNtNtCsa6QFEuJDwzK_9flexorama3tui5testss_45test_build_queue_lines_double_digit_numbering0B7_
FNDA:0,_RNCNvMs2_NtCsa6QFEuJDwzK_9flexorama3tuiNtB7_8TuiState8snapshot0B9_
FNDA:0,_RNCNvMs3_NtCsa6QFEuJDwzK_9flexorama3tuiNtB7_9TuiScreen12render_frame0B9_
FNDA:0,_RNCNvMs3_NtCsa6QFEuJDwzK_9flexorama3tuiNtB7_9TuiScreen27render_permission_in_output0B9_
FNDA:0,_RNCNvNtCsa6QFEuJDwzK_9flexorama3tui16build_queue_text0B5_
FNDA:0,_RNCNvNtCsa6QFEuJDwzK_9flexorama3tui17build_output_text0B5_
FNDA:10,_RNCNvNtCsa6QFEuJDwzK_9flexorama3tui18build_input_layout0B5_
FNDA:13,_RNCNvNtCsa6QFEuJDwzK_9flexorama3tui18next_char_boundary0B5_
FNDA:12,_RNCNvNtCsa6QFEuJDwzK_9flexorama3tui22previous_char_boundary0B5_
FNDA:0,_RNCNvNtCsa6QFEuJDwzK_9flexorama3tui28build_input_text_with_layout0B5_
FNDA:0,_RNCNvNtCsa6QFEuJDwzK_9flexorama3tui29build_output_text_with_prompt0B5_
FNDA:0,_RNCNvNtCsa6QFEuJDwzK_9flexorama3tui30drain_queued_input_after_enter0B5_
FNDA:0,_RNCNvXs1_NtCsa6QFEuJDwzK_9flexorama3tuiNtB7_3TuiNtNtNtCs3XFJfFEDSOQ_4core3ops4drop4Drop4drop0B9_
FNDA:15,_RNvMNtCsa6QFEuJDwzK_9flexorama3tuiNtB2_12TextPosition3new
FNDA:6,_RNvMNtCsa6QFEuJDwzK_9flexorama3tuiNtB2_12TextPosition7min_max
FNDA:0,_RNvMs0_NtCsa6QFEuJDwzK_9flexorama3tuiNtB5_3Tui10read_input
FNDA:0,_RNvMs0_NtCsa6QFEuJDwzK_9flexorama3tuiNtB5_3Tui12handle_paste
FNDA:0,_RNvMs0_NtCsa6QFEuJDwzK_9flexorama3tuiNtB5_3Tui15render_snapshot
FNDA:0,_RNvMs0_NtCsa6QFEuJDwzK_9flexorama3tuiNtB5_3Tui16handle_key_event
FNDA:0,_RNvMs0_NtCsa6QFEuJDwzK_9flexorama3tuiNtB5_3Tui17get_selected_text
FNDA:0,_RNvMs0_NtCsa6QFEuJDwzK_9flexorama3tuiNtB5_3Tui17prompt_permission
FNDA:0,_RNvMs0_NtCsa6QFEuJDwzK_9flexorama3tuiNtB5_3Tui17render_input_only
FNDA:0,_RNvMs0_NtCsa6QFEuJDwzK_9flexorama3tuiNtB5_3Tui18handle_mouse_event
FNDA:0,_RNvMs0_NtCsa6QFEuJDwzK_9flexorama3tuiNtB5_3Tui23screen_to_text_position
FNDA:0,_RNvMs0_NtCsa6QFEuJDwzK_9flexorama3tuiNtB5_3Tui6render
FNDA:0,_RNvMs0_NtCsa6QFEuJDwzK_9flexorama3tuiNtB5_3Tui9set_queue
FNDA:0,_RNvMs0_NtCsa6QFEuJDwzK_9flexorama3tuiNtB5_3Tui9set_todos
FNDA:0,_RNvMs2_NtCsa6QFEuJDwzK_9flexorama3tuiNtB5_8TuiState8snapshot
FNDA:0,_RNvMs3_NtCsa6QFEuJDwzK_9flexorama3tuiNtB5_9TuiScreen11render_full
FNDA:0,_RNvMs3_NtCsa6QFEuJDwzK_9flexorama3tuiNtB5_9TuiScreen12render_frame
FNDA:0,_RNvMs3_NtCsa6QFEuJDwzK_9flexorama3tuiNtB5_9TuiScreen17render_input_only
FNDA:0,_RNvMs3_NtCsa6QFEuJDwzK_9flexorama3tuiNtB5_9TuiScreen27render_permission_in_output
FNDA:0,_RNvMs3_NtCsa6QFEuJDwzK_9flexorama3tuiNtB5_9TuiScreen5reset
FNDA:17,_RNvMs_NtCsa6QFEuJDwzK_9flexorama3tuiNtB4_12OutputBuffer3new
FNDA:20,_RNvMs_NtCsa6QFEuJDwzK_9flexorama3tuiNtB4_12OutputBuffer9push_text
FNDA:59,_RNvNtCsa6QFEuJDwzK_9flexorama3tui14wrap_ansi_line
FNDA:0,_RNvNtCsa6QFEuJDwzK_9flexorama3tui15build_todo_text
FNDA:0,_RNvNtCsa6QFEuJDwzK_9flexorama3tui16build_queue_text
FNDA:0,_RNvNtCsa6QFEuJDwzK_9flexorama3tui16build_todo_lines
FNDA:11,_RNvNtCsa6QFEuJDwzK_9flexorama3tui16strip_ansi_codes
FNDA:0,_RNvNtCsa6QFEuJDwzK_9flexorama3tui17build_output_text
FNDA:10,_RNvNtCsa6QFEuJDwzK_9flexorama3tui17build_queue_lines
FNDA:0,_RNvNtCsa6QFEuJDwzK_9flexorama3tui17build_todo_layout
FNDA:9,_RNvNtCsa6QFEuJDwzK_9flexorama3tui18build_input_layout
FNDA:0,_RNvNtCsa6QFEuJDwzK_9flexorama3tui18build_line_mapping
FNDA:9,_RNvNtCsa6QFEuJDwzK_9flexorama3tui18build_output_lines
FNDA:0,_RNvNtCsa6QFEuJDwzK_9flexorama3tui18build_queue_layout
FNDA:20,_RNvNtCsa6QFEuJDwzK_9flexorama3tui18next_char_boundary
FNDA:54,_RNvNtCsa6QFEuJDwzK_9flexorama3tui20normalize_cursor_pos
FNDA:0,_RNvNtCsa6QFEuJDwzK_9flexorama3tui22build_permission_lines
FNDA:17,_RNvNtCsa6QFEuJDwzK_9flexorama3tui22previous_char_boundary
FNDA:33,_RNvNtCsa6QFEuJDwzK_9flexorama3tui24cursor_position_in_lines
FNDA:0,_RNvNtCsa6QFEuJDwzK_9flexorama3tui25handle_reverse_search_key
FNDA:16,_RNvNtCsa6QFEuJDwzK_9flexorama3tui25screen_col_to_char_offset
FNDA:0,_RNvNtCsa6QFEuJDwzK_9flexorama3tui26render_line_with_selection
FNDA:0,_RNvNtCsa6QFEuJDwzK_9flexorama3tui28build_input_text_with_layout
FNDA:0,_RNvNtCsa6QFEuJDwzK_9flexorama3tui29build_output_text_with_prompt
FNDA:0,_RNvNtCsa6QFEuJDwzK_9flexorama3tui30drain_queued_input_after_enter
FNF:171
FNH:125
DA:64,15
DA:65,15
DA:66,15
DA:67,15
DA:68,15
DA:69,15
DA:71,6
DA:72,6
DA:73,5
DA:75,3
DA:77,3
DA:79,6
DA:115,17
DA:116,17
DA:117,17
DA:118,17
DA:119,17
DA:120,17
DA:122,20
DA:123,20
DA:124,1
DA:125,19
DA:127,19
DA:128,19
DA:130,19
DA:131,19
DA:132,0
DA:133,19
DA:134,19
DA:135,19
DA:136,19
DA:137,0
DA:139,46
DA:140,27
DA:141,27
DA:143,19
DA:144,1
DA:145,1
DA:146,18
DA:147,20
DA:151,0
DA:152,0
DA:153,0
DA:154,0
DA:155,0
DA:156,0
DA:158,0
DA:159,0
DA:160,0
DA:161,0
DA:163,0
DA:164,0
DA:165,0
DA:166,0
DA:167,0
DA:168,0
DA:169,0
DA:170,0
DA:171,0
DA:172,0
DA:173,0
DA:174,0
DA:175,0
DA:176,0
DA:177,0
DA:179,0
DA:181,0
DA:182,0
DA:183,0
DA:184,0
DA:185,0
DA:186,0
DA:188,0
DA:189,0
DA:190,0
DA:191,0
DA:192,0
DA:193,0
DA:194,0
DA:196,0
DA:197,0
DA:198,0
DA:199,0
DA:200,0
DA:201,0
DA:202,0
DA:203,0
DA:204,0
DA:205,0
DA:207,0
DA:209,0
DA:211,0
DA:212,0
DA:213,0
DA:214,0
DA:216,0
DA:217,0
DA:218,0
DA:219,0
DA:221,0
DA:224,0
DA:225,0
DA:226,0
DA:229,0
DA:231,0
DA:232,0
DA:233,0
DA:236,0
DA:237,0
DA:238,0
DA:239,0
DA:240,0
DA:242,0
DA:243,0
DA:245,0
DA:246,0
DA:247,0
DA:248,0
DA:249,0
DA:250,0
DA:251,0
DA:252,0
DA:253,0
DA:254,0
DA:255,0
DA:256,0
DA:257,0
DA:259,0
DA:261,0
DA:263,0
DA:264,0
DA:265,0
DA:266,0
DA:267,0
DA:268,0
DA:269,0
DA:270,0
DA:271,0
DA:273,0
DA:274,0
DA:275,0
DA:276,0
DA:277,0
DA:278,0
DA:279,0
DA:280,0
DA:281,0
DA:283,0
DA:284,0
DA:285,0
DA:288,0
DA:289,0
DA:290,0
DA:291,0
DA:294,0
DA:295,0
DA:296,0
DA:298,0
DA:299,0
DA:300,0
DA:301,0
DA:302,0
DA:303,0
DA:304,0
DA:306,0
DA:307,0
DA:308,0
DA:309,0
DA:310,0
DA:311,0
DA:312,0
DA:313,0
DA:314,0
DA:317,0
DA:318,0
DA:319,0
DA:322,0
DA:323,0
DA:324,0
DA:326,0
DA:327,0
DA:328,0
DA:329,0
DA:330,0
DA:331,0
DA:332,0
DA:333,0
DA:334,0
DA:335,0
DA:336,0
DA:337,0
DA:339,0
DA:341,0
DA:343,0
DA:345,0
DA:346,0
DA:347,0
DA:348,0
DA:349,0
DA:350,0
DA:351,0
DA:352,0
DA:353,0
DA:354,0
DA:355,0
DA:357,0
DA:360,0
DA:361,0
DA:363,0
DA:364,0
DA:365,0
DA:366,0
DA:367,0
DA:368,0
DA:369,0
DA:370,0
DA:371,0
DA:374,0
DA:375,0
DA:376,0
DA:377,0
DA:378,0
DA:379,0
DA:383,0
DA:384,0
DA:385,0
DA:386,0
DA:387,0
DA:388,0
DA:389,0
DA:391,0
DA:392,0
DA:393,0
DA:394,0
DA:397,0
DA:398,0
DA:399,0
DA:400,0
DA:401,0
DA:402,0
DA:404,0
DA:407,0
DA:408,0
DA:409,0
DA:410,0
DA:411,0
DA:412,0
DA:413,0
DA:415,0
DA:416,0
DA:417,0
DA:418,0
DA:419,0
DA:422,0
DA:423,0
DA:430,0
DA:432,0
DA:434,0
DA:435,0
DA:436,0
DA:437,0
DA:438,0
DA:439,0
DA:440,0
DA:442,0
DA:444,0
DA:445,0
DA:446,0
DA:447,0
DA:448,0
DA:449,0
DA:450,0
DA:453,0
DA:455,0
DA:458,0
DA:459,0
DA:460,0
DA:461,0
DA:462,0
DA:463,0
DA:465,0
DA:466,0
DA:467,0
DA:468,0
DA:469,0
DA:470,0
DA:472,0
DA:479,0
DA:485,0
DA:486,0
DA:487,0
DA:488,0
DA:489,0
DA:492,0
DA:495,0
DA:496,0
DA:497,0
DA:498,0
DA:499,0
DA:500,0
DA:501,0
DA:502,0
DA:503,0
DA:504,0
DA:505,0
DA:506,0
DA:507,0
DA:508,0
DA:509,0
DA:510,0
DA:511,0
DA:512,0
DA:513,0
DA:514,0
DA:515,0
DA:516,0
DA:517,0
DA:518,0
DA:524,0
DA:525,0
DA:526,0
DA:527,0
DA:528,0
DA:529,0
DA:535,0
DA:536,0
DA:537,0
DA:538,0
DA:539,0
DA:540,0
DA:541,0
DA:546,0
DA:547,0
DA:548,0
DA:552,0
DA:553,0
DA:554,0
DA:558,0
DA:559,0
DA:560,0
DA:561,0
DA:562,0
DA:568,0
DA:569,0
DA:570,0
DA:571,0
DA:576,0
DA:577,0
DA:578,0
DA:579,0
DA:580,0
DA:583,0
DA:585,0
DA:586,0
DA:587,0
DA:588,0
DA:589,0
DA:590,0
DA:591,0
DA:594,0
DA:595,0
DA:596,0
DA:597,0
DA:600,0
DA:601,0
DA:602,0
DA:603,0
DA:604,0
DA:605,0
DA:607,0
DA:608,0
DA:609,0
DA:612,0
DA:613,0
DA:614,0
DA:616,0
DA:617,0
DA:618,0
DA:619,0
DA:620,0
DA:621,0
DA:622,0
DA:623,0
DA:624,0
DA:625,0
DA:626,0
DA:627,0
DA:628,0
DA:629,0
DA:633,0
DA:634,0
DA:635,0
DA:638,0
DA:639,0
DA:640,0
DA:641,0
DA:642,0
DA:644,0
DA:645,0
DA:646,0
DA:647,0
DA:650,0
DA:651,0
DA:652,0
DA:654,0
DA:655,0
DA:656,0
DA:659,0
DA:662,0
DA:663,0
DA:664,0
DA:666,0
DA:667,0
DA:669,0
DA:672,0
DA:673,0
DA:676,0
DA:677,0
DA:678,0
DA:681,0
DA:683,0
DA:685,0
DA:687,0
DA:688,0
DA:689,0
DA:690,0
DA:691,0
DA:692,0
DA:693,0
DA:694,0
DA:695,0
DA:696,0
DA:699,0
DA:700,0
DA:701,0
DA:702,0
DA:704,0
DA:705,0
DA:706,0
DA:707,0
DA:708,0
DA:709,0
DA:710,0
DA:711,0
DA:712,0
DA:713,0
DA:714,0
DA:715,0
DA:718,0
DA:719,0
DA:720,0
DA:721,0
DA:725,0
DA:726,0
DA:728,0
DA:730,0
DA:734,0
DA:735,0
DA:736,0
DA:737,0
DA:738,0
DA:739,0
DA:740,0
DA:741,0
DA:742,0
DA:746,0
DA:747,0
DA:748,0
DA:749,0
DA:750,0
DA:752,0
DA:753,0
DA:754,0
DA:755,0
DA:757,0
DA:758,0
DA:760,0
DA:761,0
DA:762,0
DA:763,0
DA:764,0
DA:767,0
DA:768,0
DA:769,0
DA:771,0
DA:774,0
DA:775,0
DA:776,0
DA:777,0
DA:778,0
DA:779,0
DA:780,0
DA:781,0
DA:782,0
DA:783,0
DA:784,0
DA:788,0
DA:789,0
DA:790,0
DA:792,0
DA:793,0
DA:794,0
DA:796,0
DA:797,0
DA:798,0
DA:799,0
DA:800,0
DA:801,0
DA:802,0
DA:803,0
DA:804,0
DA:805,0
DA:806,0
DA:807,0
DA:810,0
DA:811,0
DA:812,0
DA:813,0
DA:814,0
DA:816,0
DA:817,0
DA:818,0
DA:819,0
DA:822,0
DA:823,0
DA:824,0
DA:825,0
DA:826,0
DA:827,0
DA:828,0
DA:829,0
DA:830,0
DA:831,0
DA:832,0
DA:833,0
DA:834,0
DA:835,0
DA:836,0
DA:837,0
DA:838,0
DA:839,0
DA:840,0
DA:841,0
DA:842,0
DA:843,0
DA:844,0
DA:845,0
DA:846,0
DA:847,0
DA:848,0
DA:849,0
DA:851,0
DA:852,0
DA:853,0
DA:854,0
DA:855,0
DA:856,0
DA:857,0
DA:860,0
DA:862,0
DA:863,0
DA:864,0
DA:865,0
DA:866,0
DA:867,0
DA:869,0
DA:872,0
DA:873,0
DA:874,0
DA:876,0
DA:877,0
DA:878,0
DA:879,0
DA:880,0
DA:881,0
DA:882,0
DA:884,0
DA:885,0
DA:886,0
DA:887,0
DA:888,0
DA:889,0
DA:890,0
DA:892,0
DA:893,0
DA:894,0
DA:895,0
DA:896,0
DA:898,0
DA:899,0
DA:900,0
DA:902,0
DA:903,0
DA:905,0
DA:906,0
DA:907,0
DA:908,0
DA:909,0
DA:910,0
DA:911,0
DA:912,0
DA:913,0
DA:914,0
DA:915,0
DA:916,0
DA:917,0
DA:918,0
DA:919,0
DA:920,0
DA:921,0
DA:922,0
DA:925,0
DA:926,0
DA:927,0
DA:928,0
DA:929,0
DA:931,0
DA:932,0
DA:933,0
DA:934,0
DA:937,0
DA:938,0
DA:939,0
DA:940,0
DA:941,0
DA:942,0
DA:943,0
DA:944,0
DA:945,0
DA:946,0
DA:947,0
DA:948,0
DA:949,0
DA:950,0
DA:951,0
DA:952,0
DA:953,0
DA:954,0
DA:955,0
DA:956,0
DA:957,0
DA:958,0
DA:959,0
DA:960,0
DA:961,0
DA:962,0
DA:963,0
DA:964,0
DA:966,0
DA:967,0
DA:968,0
DA:969,0
DA:970,0
DA:971,0
DA:972,0
DA:975,0
DA:976,0
DA:977,0
DA:978,0
DA:979,0
DA:980,0
DA:981,0
DA:983,0
DA:986,0
DA:987,0
DA:988,0
DA:989,0
DA:991,0
DA:992,0
DA:993,0
DA:994,0
DA:995,0
DA:996,0
DA:997,0
DA:999,0
DA:1000,0
DA:1001,0
DA:1002,0
DA:1003,0
DA:1004,0
DA:1005,0
DA:1007,0
DA:1008,0
DA:1009,0
DA:1010,0
DA:1011,0
DA:1013,0
DA:1014,0
DA:1015,0
DA:1017,0
DA:1018,0
DA:1020,0
DA:1021,0
DA:1022,0
DA:1025,0
DA:1026,0
DA:1027,0
DA:1028,0
DA:1029,0
DA:1030,0
DA:1031,0
DA:1032,0
DA:1033,0
DA:1034,0
DA:1035,0
DA:1036,0
DA:1037,0
DA:1038,0
DA:1039,0
DA:1040,0
DA:1043,0
DA:1044,0
DA:1045,0
DA:1046,0
DA:1048,0
DA:1049,0
DA:1050,0
DA:1051,0
DA:1052,0
DA:1053,0
DA:1054,0
DA:1055,0
DA:1056,0
DA:1057,0
DA:1058,0
DA:1059,0
DA:1062,0
DA:1063,0
DA:1068,0
DA:1069,0
DA:1070,0
DA:1071,0
DA:1072,0
DA:1073,0
DA:1078,0
DA:1079,0
DA:1080,0
DA:1081,0
DA:1087,0
DA:1088,0
DA:1089,0
DA:1090,0
DA:1091,0
DA:1092,0
DA:1093,0
DA:1104,0
DA:1105,0
DA:1110,0
DA:1111,0
DA:1117,0
DA:1118,0
DA:1121,0
DA:1124,0
DA:1125,0
DA:1126,0
DA:1127,0
DA:1128,0
DA:1130,0
DA:1132,0
DA:1141,11
DA:1142,11
DA:1143,11
DA:1145,148
DA:1146,137
DA:1147,28
DA:1148,28
DA:1149,73
DA:1150,73
DA:1151,28
DA:1152,45
DA:1154,0
DA:1155,28
DA:1156,109
DA:1157,109
DA:1159,11
DA:1160,11
DA:1163,16
DA:1164,16
DA:1165,16
DA:1166,16
DA:1168,84
DA:1169,80
DA:1170,21
DA:1171,21
DA:1172,55
DA:1173,55
DA:1174,21
DA:1175,34
DA:1177,0
DA:1178,21
DA:1179,59
DA:1181,59
DA:1182,12
DA:1183,47
DA:1185,47
DA:1186,47
DA:1189,16
DA:1190,16
DA:1199,0
DA:1200,0
DA:1202,0
DA:1203,0
DA:1204,0
DA:1206,0
DA:1207,0
DA:1208,0
DA:1209,0
DA:1210,0
DA:1211,0
DA:1212,0
DA:1213,0
DA:1214,0
DA:1215,0
DA:1218,0
DA:1219,0
DA:1221,0
DA:1222,0
DA:1223,0
DA:1224,0
DA:1225,0
DA:1226,0
DA:1231,0
DA:1232,0
DA:1233,0
DA:1235,0
DA:1236,0
DA:1237,0
DA:1238,0
DA:1239,0
DA:1240,0
DA:1241,0
DA:1243,0
DA:1244,0
DA:1245,0
DA:1246,0
DA:1247,0
DA:1249,0
DA:1250,0
DA:1251,0
DA:1252,0
DA:1253,0
DA:1254,0
DA:1257,0
DA:1259,0
DA:1260,0
DA:1261,0
DA:1262,0
DA:1263,0
DA:1266,0
DA:1267,0
DA:1269,0
DA:1270,0
DA:1271,0
DA:1272,0
DA:1273,0
DA:1274,0
DA:1275,0
DA:1277,0
DA:1278,0
DA:1279,0
DA:1280,0
DA:1281,0
DA:1282,0
DA:1283,0
DA:1284,0
DA:1285,0
DA:1286,0
DA:1287,0
DA:1288,0
DA:1289,0
DA:1291,0
DA:1292,0
DA:1294,0
DA:1295,0
DA:1296,0
DA:1297,0
DA:1299,0
DA:1300,0
DA:1301,0
DA:1302,0
DA:1303,0
DA:1304,0
DA:1306,0
DA:1309,0
DA:1310,0
DA:1312,0
DA:1315,0
DA:1316,0
DA:1318,0
DA:1319,0
DA:1320,0
DA:1322,0
DA:1323,0
DA:1324,0
DA:1325,0
DA:1326,0
DA:1327,0
DA:1330,0
DA:1331,0
DA:1332,0
DA:1333,0
DA:1336,0
DA:1337,0
DA:1339,0
DA:1340,0
DA:1341,0
DA:1342,0
DA:1344,0
DA:1345,0
DA:1346,0
DA:1347,0
DA:1349,0
DA:1350,0
DA:1351,0
DA:1352,0
DA:1354,0
DA:1355,0
DA:1356,0
DA:1358,10
DA:1359,10
DA:1360,2
DA:1361,8
DA:1363,8
DA:1364,8
DA:1365,8
DA:1367,25
DA:1368,25
DA:1369,25
DA:1370,25
DA:1371,25
DA:1372,29
DA:1373,29
DA:1374,0
DA:1375,0
DA:1376,29
DA:1377,29
DA:1378,25
DA:1380,4
DA:1382,29
DA:1384,25
DA:1385,0
DA:1386,25
DA:1387,25
DA:1388,25
DA:1389,1
DA:1390,24
DA:1393,8
DA:1394,0
DA:1395,0
DA:1396,0
DA:1397,0
DA:1398,0
DA:1399,8
DA:1401,8
DA:1402,10
DA:1404,0
DA:1405,0
DA:1406,0
DA:1407,0
DA:1408,0
DA:1409,0
DA:1410,0
DA:1411,0
DA:1413,0
DA:1414,0
DA:1416,0
DA:1417,0
DA:1418,0
DA:1419,0
DA:1420,0
DA:1422,0
DA:1423,0
DA:1425,0
DA:1426,0
DA:1427,0
DA:1428,0
DA:1430,0
DA:1431,0
DA:1432,0
DA:1433,0
DA:1435,0
DA:1436,0
DA:1437,0
DA:1439,0
DA:1440,0
DA:1441,0
DA:1442,0
DA:1443,0
DA:1444,0
DA:1445,0
DA:1446,0
DA:1448,0
DA:1449,0
DA:1450,0
DA:1451,0
DA:1452,0
DA:1453,0
DA:1454,0
DA:1455,0
DA:1456,0
DA:1458,0
DA:1459,0
DA:1460,0
DA:1461,0
DA:1463,0
DA:1464,0
DA:1465,0
DA:1466,0
DA:1467,0
DA:1468,0
DA:1470,0
DA:1471,0
DA:1472,0
DA:1473,0
DA:1474,0
DA:1475,0
DA:1477,0
DA:1479,0
DA:1482,0
DA:1483,0
DA:1484,0
DA:1487,0
DA:1488,0
DA:1489,0
DA:1490,0
DA:1491,0
DA:1492,0
DA:1493,0
DA:1494,0
DA:1495,0
DA:1496,0
DA:1498,0
DA:1500,0
DA:1501,0
DA:1503,0
DA:1504,0
DA:1505,0
DA:1506,0
DA:1507,0
DA:1508,0
DA:1509,0
DA:1510,0
DA:1511,0
DA:1513,0
DA:1514,0
DA:1515,0
DA:1516,0
DA:1517,0
DA:1518,0
DA:1519,0
DA:1520,0
DA:1521,0
DA:1522,0
DA:1523,0
DA:1524,0
DA:1525,0
DA:1526,0
DA:1528,0
DA:1529,0
DA:1531,0
DA:1532,0
DA:1533,0
DA:1534,0
DA:1535,0
DA:1536,0
DA:1537,0
DA:1538,0
DA:1539,0
DA:1540,0
DA:1542,0
DA:1543,0
DA:1544,0
DA:1545,0
DA:1546,0
DA:1547,0
DA:1548,0
DA:1549,0
DA:1550,0
DA:1553,0
DA:1554,0
DA:1556,0
DA:1557,0
DA:1558,0
DA:1559,0
DA:1560,0
DA:1562,0
DA:1563,0
DA:1564,0
DA:1565,0
DA:1566,0
DA:1567,0
DA:1568,0
DA:1570,0
DA:1571,0
DA:1573,0
DA:1574,0
DA:1576,0
DA:1578,0
DA:1579,0
DA:1580,0
DA:1581,0
DA:1582,0
DA:1583,0
DA:1584,0
DA:1585,0
DA:1587,0
DA:1588,0
DA:1589,0
DA:1590,0
DA:1591,0
DA:1592,0
DA:1594,0
DA:1595,0
DA:1596,0
DA:1597,0
DA:1598,0
DA:1601,0
DA:1602,0
DA:1603,0
DA:1604,0
DA:1605,0
DA:1607,0
DA:1608,0
DA:1610,9
DA:1611,9
DA:1612,9
DA:1613,9
DA:1615,9
DA:1616,9
DA:1618,9
DA:1619,9
DA:1621,9
DA:1623,10
DA:1624,10
DA:1625,9
DA:1627,1
DA:1629,10
DA:1631,10
DA:1632,10
DA:1633,18
DA:1634,18
DA:1635,10
DA:1637,8
DA:1639,18
DA:1642,10
DA:1643,10
DA:1644,1
DA:1646,9
DA:1649,10
DA:1650,9
DA:1651,9
DA:1652,9
DA:1653,9
DA:1655,10
DA:1658,9
DA:1659,0
DA:1660,0
DA:1661,0
DA:1662,9
DA:1664,9
DA:1665,9
DA:1666,9
DA:1667,9
DA:1668,9
DA:1669,9
DA:1671,33
DA:1672,33
DA:1673,33
DA:1674,33
DA:1676,432
DA:1677,432
DA:1678,16
DA:1679,16
DA:1680,416
DA:1681,416
DA:1682,416
DA:1685,33
DA:1686,33
DA:1688,9
DA:1689,9
DA:1690,9
DA:1692,21
DA:1693,12
DA:1694,12
DA:1695,12
DA:1697,9
DA:1698,1
DA:1699,8
DA:1701,9
DA:1702,9
DA:1704,0
DA:1705,0
DA:1706,0
DA:1707,0
DA:1708,0
DA:1709,0
DA:1710,0
DA:1711,0
DA:1712,0
DA:1713,0
DA:1714,0
DA:1716,0
DA:1717,0
DA:1718,0
DA:1719,0
DA:1720,0
DA:1721,0
DA:1723,0
DA:1725,0
DA:1726,0
DA:1727,0
DA:1728,0
DA:1729,0
DA:1730,0
DA:1731,0
DA:1732,0
DA:1734,0
DA:1736,0
DA:1737,0
DA:1738,0
DA:1739,0
DA:1741,0
DA:1743,0
DA:1744,0
DA:1748,0
DA:1749,0
DA:1750,0
DA:1751,0
DA:1753,0
DA:1754,0
DA:1758,0
DA:1759,0
DA:1760,0
DA:1761,0
DA:1763,0
DA:1764,0
DA:1765,0
DA:1766,0
DA:1767,0
DA:1768,0
DA:1769,0
DA:1770,0
DA:1773,0
DA:1777,0
DA:1778,0
DA:1779,0
DA:1780,0
DA:1781,0
DA:1782,0
DA:1783,0
DA:1784,0
DA:1785,0
DA:1792,0
DA:1793,0
DA:1794,0
DA:1795,0
DA:1797,0
DA:1801,0
DA:1802,0
DA:1804,0
DA:1806,0
DA:1808,59
DA:1809,59
DA:1810,1
DA:1811,58
DA:1813,58
DA:1814,58
DA:1815,58
DA:1816,58
DA:1818,2033
DA:1819,1975
DA:1820,4
DA:1821,4
DA:1822,4
DA:1823,4
DA:1824,10
DA:1825,10
DA:1826,10
DA:1827,4
DA:1828,6
DA:1830,0
DA:1831,4
DA:1832,1971
DA:1834,1971
DA:1835,1971
DA:1836,1971
DA:1837,138
DA:1838,138
DA:1839,138
DA:1840,1833
DA:1843,58
DA:1844,47
DA:1845,47
DA:1847,58
DA:1848,59
DA:1850,54
DA:1851,54
DA:1852,5
DA:1853,49
DA:1855,49
DA:1856,49
DA:1857,0
DA:1859,0
DA:1860,0
DA:1861,0
DA:1862,0
DA:1863,0
DA:1864,54
DA:1866,17
DA:1867,17
DA:1868,17
DA:1869,5
DA:1870,12
DA:1872,12
DA:1873,12
DA:1874,12
DA:1875,12
DA:1876,12
DA:1877,12
DA:1878,17
DA:1880,20
DA:1881,20
DA:1882,20
DA:1883,7
DA:1884,13
DA:1886,13
DA:1887,13
DA:1888,13
DA:1889,13
DA:1890,13
DA:1891,20
DA:1893,0
DA:1894,0
DA:1895,0
DA:1896,0
DA:1897,0
DA:1898,0
DA:1909,1
DA:1910,1
DA:1911,1
DA:1912,1
DA:1913,1
DA:1916,1
DA:1917,1
DA:1918,1
DA:1919,1
DA:1920,1
DA:1921,1
DA:1922,1
DA:1923,1
DA:1924,1
DA:1927,1
DA:1928,1
DA:1929,1
DA:1930,1
DA:1931,1
DA:1932,1
DA:1933,1
DA:1934,1
DA:1935,1
DA:1938,1
DA:1939,1
DA:1940,1
DA:1941,1
DA:1942,1
DA:1943,1
DA:1944,1
DA:1945,1
DA:1946,1
DA:1949,1
DA:1950,1
DA:1951,1
DA:1952,1
DA:1953,1
DA:1954,1
DA:1955,1
DA:1956,1
DA:1957,1
DA:1964,1
DA:1965,1
DA:1966,1
DA:1967,1
DA:1968,1
DA:1969,1
DA:1972,1
DA:1973,1
DA:1974,1
DA:1975,1
DA:1976,1
DA:1977,1
DA:1980,1
DA:1981,1
DA:1982,1
DA:1983,1
DA:1984,1
DA:1985,1
DA:1988,1
DA:1989,1
DA:1990,1
DA:1991,1
DA:1992,1
DA:1993,1
DA:1994,1
DA:1995,1
DA:1998,1
DA:1999,1
DA:2000,1
DA:2001,1
DA:2002,1
DA:2003,1
DA:2004,1
DA:2005,1
DA:2008,1
DA:2009,1
DA:2010,1
DA:2011,1
DA:2012,1
DA:2013,1
DA:2014,1
DA:2015,1
DA:2018,1
DA:2019,1
DA:2020,1
DA:2021,1
DA:2022,1
DA:2023,1
DA:2024,1
DA:2025,1
DA:2026,1
DA:2029,1
DA:2030,1
DA:2031,1
DA:2032,1
DA:2033,1
DA:2034,1
DA:2035,1
DA:2036,1
DA:2039,1
DA:2040,1
DA:2041,1
DA:2042,1
DA:2043,1
DA:2044,1
DA:2045,1
DA:2048,1
DA:2049,1
DA:2050,1
DA:2051,1
DA:2052,1
DA:2053,1
DA:2054,1
DA:2061,1
DA:2062,1
DA:2063,1
DA:2064,1
DA:2065,1
DA:2068,1
DA:2069,1
DA:2070,1
DA:2071,1
DA:2072,1
DA:2075,1
DA:2076,1
DA:2077,1
DA:2078,1
DA:2079,1
DA:2082,1
DA:2083,1
DA:2084,1
DA:2085,1
DA:2086,1
DA:2089,1
DA:2090,1
DA:2091,1
DA:2092,1
DA:2093,1
DA:2096,1
DA:2097,1
DA:2098,1
DA:2099,1
DA:2100,1
DA:2107,1
DA:2108,1
DA:2109,1
DA:2110,1
DA:2111,1
DA:2112,1
DA:2115,1
DA:2116,1
DA:2118,1
DA:2120,1
DA:2122,1
DA:2123,1
DA:2126,1
DA:2127,1
DA:2128,1
DA:2129,1
DA:2130,1
DA:2131,1
DA:2132,1
DA:2139,1
DA:2140,1
DA:2141,1
DA:2142,1
DA:2143,1
DA:2144,1
DA:2147,1
DA:2148,1
DA:2149,1
DA:2150,1
DA:2151,1
DA:2152,1
DA:2155,1
DA:2156,1
DA:2157,1
DA:2158,1
DA:2159,1
DA:2160,1
DA:2161,1
DA:2164,1
DA:2165,1
DA:2166,1
DA:2167,1
DA:2168,1
DA:2169,1
DA:2170,1
DA:2171,1
DA:2172,1
DA:2175,1
DA:2176,1
DA:2177,1
DA:2179,1
DA:2181,1
DA:2183,1
DA:2184,1
DA:2187,1
DA:2188,1
DA:2189,1
DA:2190,1
DA:2191,1
DA:2192,1
DA:2195,1
DA:2196,1
DA:2197,1
DA:2198,1
DA:2199,1
DA:2200,1
DA:2207,1
DA:2208,1
DA:2209,1
DA:2210,1
DA:2211,1
DA:2212,1
DA:2215,1
DA:2216,1
DA:2217,1
DA:2218,1
DA:2221,1
DA:2222,1
DA:2224,1
DA:2225,1
DA:2227,1
DA:2228,1
DA:2231,1
DA:2232,1
DA:2233,1
DA:2234,1
DA:2235,1
DA:2242,1
DA:2243,1
DA:2244,1
DA:2245,1
DA:2246,1
DA:2247,1
DA:2248,1
DA:2251,1
DA:2252,1
DA:2254,1
DA:2255,1
DA:2256,1
DA:2257,1
DA:2260,1
DA:2261,1
DA:2262,1
DA:2263,1
DA:2264,1
DA:2265,1
DA:2268,1
DA:2269,1
DA:2270,1
DA:2271,1
DA:2278,1
DA:2279,1
DA:2280,1
DA:2281,1
DA:2282,1
DA:2283,1
DA:2284,1
DA:2287,1
DA:2288,1
DA:2290,1
DA:2291,1
DA:2292,1
DA:2293,1
DA:2296,1
DA:2297,1
DA:2298,1
DA:2299,1
DA:2300,1
DA:2301,1
DA:2302,1
DA:2303,1
DA:2306,1
DA:2307,1
DA:2308,1
DA:2309,1
DA:2316,1
DA:2317,1
DA:2318,1
DA:2319,1
DA:2320,1
DA:2321,1
DA:2324,1
DA:2325,1
DA:2326,1
DA:2327,1
DA:2328,1
DA:2329,1
DA:2330,1
DA:2331,1
DA:2334,1
DA:2335,1
DA:2336,1
DA:2337,1
DA:2338,1
DA:2341,1
DA:2342,1
DA:2343,1
DA:2344,1
DA:2345,1
DA:2346,1
DA:2349,1
DA:2350,1
DA:2351,1
DA:2352,1
DA:2355,1
DA:2356,1
DA:2357,1
DA:2358,1
DA:2359,1
DA:2366,1
DA:2367,1
DA:2368,1
DA:2369,1
DA:2370,1
DA:2371,1
DA:2372,1
DA:2375,1
DA:2376,1
DA:2377,1
DA:2378,1
DA:2379,1
DA:2380,1
DA:2381,1
DA:2384,1
DA:2385,1
DA:2386,1
DA:2387,1
DA:2388,1
DA:2389,1
DA:2392,1
DA:2393,1
DA:2394,1
DA:2395,1
DA:2396,1
DA:2397,1
DA:2398,1
DA:2399,1
DA:2400,1
DA:2403,1
DA:2404,1
DA:2405,1
DA:2407,1
DA:2408,1
DA:2415,1
DA:2416,1
DA:2417,1
DA:2418,1
DA:2419,1
DA:2420,1
DA:2421,1
DA:2424,1
DA:2425,1
DA:2426,1
DA:2427,1
DA:2428,1
DA:2431,1
DA:2432,1
DA:2433,1
DA:2434,1
DA:2435,1
DA:2438,1
DA:2439,1
DA:2440,1
DA:2441,1
DA:2442,1
DA:2445,1
DA:2446,1
DA:2447,1
DA:2448,1
DA:2449,1
DA:2450,1
DA:2453,1
DA:2454,1
DA:2455,1
DA:2456,1
DA:2457,1
DA:2458,1
DA:2459,1
DA:2461,1
DA:2462,1
DA:2465,1
DA:2466,1
DA:2467,1
DA:2468,1
DA:2471,1
DA:2472,15
DA:2473,1
DA:2474,1
DA:2475,1
DA:2476,1
DA:2483,1
DA:2484,1
DA:2485,1
DA:2486,1
DA:2487,1
DA:2488,1
DA:2489,1
DA:2490,1
DA:2491,1
DA:2492,1
DA:2493,1
DA:2494,1
DA:2495,1
DA:2496,1
DA:2497,1
DA:2498,1
DA:2499,1
DA:2502,1
DA:2503,1
DA:2504,1
DA:2505,1
DA:2506,1
DA:2507,1
DA:2508,1
DA:2509,1
DA:2510,1
DA:2511,1
DA:2512,1
DA:2513,1
DA:2514,1
DA:2515,1
DA:2516,1
DA:2517,1
DA:2518,1
DA:2521,1
DA:2522,1
DA:2523,1
DA:2524,1
DA:2525,1
DA:2526,1
DA:2527,1
DA:2528,1
DA:2529,1
DA:2530,1
DA:2531,1
DA:2532,1
DA:2533,1
DA:2534,1
DA:2535,1
DA:2536,1
DA:2539,1
DA:2540,1
DA:2541,1
DA:2542,1
DA:2543,1
DA:2544,1
DA:2545,1
DA:2546,1
DA:2547,1
DA:2548,1
DA:2549,1
DA:2550,1
DA:2551,1
DA:2552,1
DA:2553,1
DA:2556,1
DA:2557,1
DA:2558,1
DA:2559,1
DA:2560,1
DA:2561,1
DA:2562,1
DA:2563,1
DA:2564,1
DA:2565,1
DA:2566,1
DA:2567,1
DA:2568,1
DA:2569,1
DA:2570,1
DA:2573,1
DA:2574,1
DA:2575,1
DA:2576,1
DA:2577,1
DA:2578,1
DA:2579,1
DA:2580,1
DA:2581,1
DA:2582,1
DA:2583,1
DA:2584,1
DA:2586,1
DA:2587,1
DA:2594,1
DA:2595,1
DA:2596,1
DA:2597,1
DA:2598,1
DA:2599,1
DA:2600,1
DA:2601,1
DA:2602,1
DA:2605,1
DA:2606,1
DA:2607,1
DA:2608,1
DA:2611,1
DA:2612,1
DA:2613,1
DA:2616,1
DA:2617,1
DA:2618,1
DA:2621,1
DA:2622,1
DA:2625,1
DA:2626,1
DA:2629,1
DA:2630,1
DA:2631,1
DA:2634,1
DA:2635,1
DA:2638,1
DA:2639,1
DA:2642,1
DA:2643,1
DA:2644,1
DA:2646,1
DA:2647,1
DA:2648,1
DA:2651,1
DA:2652,1
DA:2653,1
DA:2654,1
DA:2656,1
DA:2657,1
DA:2658,1
DA:2659,1
DA:2660,1
DA:2667,1
DA:2668,1
DA:2669,1
DA:2670,1
DA:2671,1
DA:2672,1
DA:2673,1
DA:2674,1
DA:2675,1
DA:2678,1
DA:2679,1
DA:2680,1
DA:2681,1
DA:2682,1
DA:2683,1
DA:2684,1
DA:2685,1
DA:2686,1
DA:2689,1
DA:2690,1
DA:2691,1
DA:2692,1
DA:2693,5
DA:2694,4
DA:2696,1
DA:2699,1
DA:2700,1
DA:2701,1
DA:2702,1
DA:2703,1
DA:2704,1
DA:2705,1
DA:2706,1
DA:2709,1
DA:2710,1
DA:2711,1
DA:2712,1
DA:2713,1
DA:2716,1
DA:2717,1
DA:2718,1
DA:2719,1
DA:2720,1
DA:2721,1
DA:2722,1
DA:2723,1
DA:2724,1
DA:2727,1
DA:2728,1
DA:2729,1
DA:2730,1
DA:2731,1
DA:2734,1
DA:2735,1
DA:2736,1
DA:2737,1
DA:2738,1
DA:2741,1
DA:2742,1
DA:2743,1
DA:2744,1
DA:2745,1
DA:2748,1
DA:2749,1
DA:2750,1
DA:2751,1
DA:2752,1
DA:2753,1
DA:2755,1
DA:2756,1
DA:2759,1
DA:2760,1
DA:2761,1
DA:2762,1
DA:2763,1
DA:2764,1
DA:2767,1
DA:2768,1
DA:2769,1
DA:2771,1
DA:2772,1
DA:2775,1
DA:2776,1
DA:2777,1
DA:2778,1
DA:2779,1
DA:2782,1
DA:2783,1
DA:2784,1
DA:2785,1
DA:2788,1
DA:2789,1
DA:2790,1
DA:2791,1
DA:2794,1
DA:2795,1
DA:2796,1
DA:2797,1
DA:2798,1
DA:2801,1
DA:2802,1
DA:2803,1
DA:2804,1
DA:2805,1
DA:2808,1
DA:2809,1
DA:2810,1
DA:2811,1
DA:2812,1
DA:2813,1
DA:2816,1
DA:2817,1
DA:2818,1
DA:2819,1
DA:2820,1
DA:2821,1
DA:2824,1
DA:2825,1
DA:2826,1
DA:2827,1
DA:2828,1
DA:2829,1
DA:2830,1
DA:2831,1
DA:2832,1
DA:2833,1
DA:2834,1
DA:2835,1
DA:2836,1
DA:2837,1
DA:2840,1
DA:2841,1
DA:2842,1
DA:2843,1
DA:2844,1
DA:2845,1
DA:2846,1
DA:2847,1
DA:2848,1
DA:2849,1
DA:2850,1
DA:2851,1
DA:2852,1
DA:2853,1
DA:2854,1
DA:2855,1
DA:2858,1
DA:2859,1
DA:2860,1
DA:2861,1
DA:2862,1
DA:2864,1
DA:2865,1
DA:2866,1
DA:2868,1
DA:2869,1
DA:2870,1
DA:2871,1
DA:2874,1
DA:2875,1
DA:2876,1
DA:2877,1
DA:2878,1
DA:2879,1
DA:2880,1
DA:2881,1
DA:2882,1
DA:2885,1
DA:2886,1
DA:2887,1
DA:2888,1
DA:2889,1
DA:2890,1
DA:2891,1
DA:2894,1
DA:2895,1
DA:2897,1
DA:2898,1
DA:2899,1
DA:2900,1
DA:2901,1
DA:2902,1
DA:2903,1
DA:2904,1
DA:2905,1
DA:2908,1
DA:2909,1
DA:2910,1
DA:2911,1
DA:2912,1
DA:2913,1
DA:2916,1
DA:2917,1
DA:2918,1
DA:2919,1
DA:2920,1
DA:2921,1
DA:2922,1
DA:2925,1
DA:2926,1
DA:2927,1
DA:2928,1
DA:2929,1
DA:2930,1
DA:2933,1
DA:2934,1
DA:2935,1
DA:2936,1
DA:2937,1
DA:2938,1
DA:2939,1
DA:2942,1
DA:2943,1
DA:2944,1
DA:2945,1
DA:2946,1
DA:2949,1
DA:2950,1
DA:2952,1
DA:2953,1
DA:2954,1
DA:2955,1
DA:2958,1
DA:2959,1
DA:2961,1
DA:2962,1
DA:2963,1
DA:2964,1
DA:2967,1
DA:2968,1
DA:2969,1
DA:2970,1
DA:2971,1
DA:2972,1
DA:2973,1
DA:2976,1
DA:2977,1
DA:2978,1
DA:2979,1
DA:2980,1
DA:2983,1
DA:2984,1
DA:2985,1
DA:2986,1
DA:2987,1
DA:2988,1
DA:2989,1
DA:2990,1
DA:2991,1
DA:2992,1
DA:2993,1
DA:2994,1
DA:2995,1
DA:2996,1
BRF:0
BRH:0
LF:2139
LH:1022
end_of_record
SF:/home/user/flexorama/src/utils.rs
FN:63,_RNvNtNtCsa6QFEuJDwzK_9flexorama5utils5testss_28test_get_home_agents_md_path
FN:82,_RNvNtNtCsa6QFEuJDwzK_9flexorama5utils5testss_28test_spinner_can_be_finished
FN:89,_RNvNtNtCsa6QFEuJDwzK_9flexorama5utils5testss_38test_print_usage_stats_with_zero_usage
FN:70,_RNvNtNtCsa6QFEuJDwzK_9flexorama5utils5testss_40test_get_home_agents_md_path_is_absolute
FN:76,_RNvNtNtCsa6QFEuJDwzK_9flexorama5utils5testss_41test_create_spinner_returns_valid_spinner
FN:33,_RNvNtCsa6QFEuJDwzK_9flexorama5utils14create_spinner
FN:6,_RNvNtCsa6QFEuJDwzK_9flexorama5utils17print_usage_stats
FN:50,_RNvNtCsa6QFEuJDwzK_9flexorama5utils23get_home_agents_md_path
FN:52,_RNCNvNtCsa6QFEuJDwzK_9flexorama5utils23get_home_agents_md_path0B5_
FN:89,_RNCNvNtNtCsa6QFEuJDwzK_9flexorama5utils5testss_38test_print_usage_stats_with_zero_usage0B7_
FNDA:1,_RNvNtNtCsa6QFEuJDwzK_9flexorama5utils5testss_28test_get_home_agents_md_path
FNDA:1,_RNvNtNtCsa6QFEuJDwzK_9flexorama5utils5testss_28test_spinner_can_be_finished
FNDA:1,_RNvNtNtCsa6QFEuJDwzK_9flexorama5utils5testss_38test_print_usage_stats_with_zero_usage
FNDA:1,_RNvNtNtCsa6QFEuJDwzK_9flexorama5utils5testss_40test_get_home_agents_md_path_is_absolute
FNDA:1,_RNvNtNtCsa6QFEuJDwzK_9flexorama5utils5testss_41test_create_spinner_returns_valid_spinner
FNDA:2,_RNvNtCsa6QFEuJDwzK_9flexorama5utils14create_spinner
FNDA:1,_RNvNtCsa6QFEuJDwzK_9flexorama5utils17print_usage_stats
FNDA:23,_RNvNtCsa6QFEuJDwzK_9flexorama5utils23get_home_agents_md_path
FNDA:0,_RNCNvNtCsa6QFEuJDwzK_9flexorama5utils23get_home_agents_md_path0B5_
FNDA:1,_RNCNvNtNtCsa6QFEuJDwzK_9flexorama5utils5testss_38test_print_usage_stats_with_zero_usage0B7_
FNF:10
FNH:9
DA:6,1
DA:7,1
DA:8,1
DA:9,1
DA:10,1
DA:11,1
DA:12,1
DA:13,1
DA:14,1
DA:15,1
DA:16,1
DA:17,1
DA:19,1
DA:20,0
DA:21,0
DA:22,0
DA:23,0
DA:24,0
DA:25,0
DA:26,0
DA:27,0
DA:28,0
DA:29,1
DA:30,1
DA:33,2
DA:34,2
DA:35,0
DA:36,2
DA:37,2
DA:38,2
DA:39,2
DA:40,2
DA:41,2
DA:42,2
DA:44,2
DA:45,2
DA:46,2
DA:47,2
DA:50,23
DA:51,23
DA:52,23
DA:53,23
DA:54,23
DA:55,23
DA:63,1
DA:64,1
DA:65,1
DA:66,1
DA:67,1
DA:70,1
DA:71,1
DA:72,1
DA:73,1
DA:76,1
DA:77,1
DA:78,1
DA:79,1
DA:82,1
DA:83,1
DA:84,1
DA:85,1
DA:86,1
DA:89,1
DA:90,1
DA:91,1
DA:92,1
DA:93,1
DA:94,1
DA:95,1
DA:96,1
DA:97,1
DA:100,1
DA:102,1
DA:103,1
DA:104,1
DA:105,1
DA:106,1
BRF:0
BRH:0
LF:80
LH:69
end_of_record
SF:/home/user/flexorama/src/web.rs
FN:1094,_RNCNCNCNvNCNvNtCsa6QFEuJDwzK_9flexorama3web64___axum_macros_check_stream_message_to_conversation_into_response075___axum_macros_check_stream_message_to_conversation_into_response_make_value000Bd_
FN:1172,_RNCNCNCNvNCNvNtCsa6QFEuJDwzK_9flexorama3web64___axum_macros_check_stream_message_to_conversation_into_response075___axum_macros_check_stream_message_to_conversation_into_response_make_value00s0_0Bd_
FN:1120,_RNCNCNCNvNCNvNtCsa6QFEuJDwzK_9flexorama3web64___axum_macros_check_stream_message_to_conversation_into_response075___axum_macros_check_stream_message_to_conversation_into_response_make_value00s_0Bd_
FN:1094,_RNCNCNCNvNvNtCsa6QFEuJDwzK_9flexorama3web57___axum_macros_check_stream_message_to_conversation_future30stream_message_to_conversation000Bb_
FN:1172,_RNCNCNCNvNvNtCsa6QFEuJDwzK_9flexorama3web57___axum_macros_check_stream_message_to_conversation_future30stream_message_to_conversation00s0_0Bb_
FN:1120,_RNCNCNCNvNvNtCsa6QFEuJDwzK_9flexorama3web57___axum_macros_check_stream_message_to_conversation_future30stream_message_to_conversation00s_0Bb_
FN:1089,_RNCNCNvNCNvNtCsa6QFEuJDwzK_9flexorama3web64___axum_macros_check_stream_message_to_conversation_into_response075___axum_macros_check_stream_message_to_conversation_into_response_make_value00Bb_
FN:1089,_RNCNCNvNvNtCsa6QFEuJDwzK_9flexorama3web57___axum_macros_check_stream_message_to_conversation_future30stream_message_to_conversation00B9_
FN:993,_RNCNvNvNtCsa6QFEuJDwzK_9flexorama3web55___axum_macros_check_send_message_to_conversation_future28send_message_to_conversation0B7_
FN:1081,_RNCNvNvNtCsa6QFEuJDwzK_9flexorama3web57___axum_macros_check_stream_message_to_conversation_future30stream_message_to_conversation0B7_
FN:628,_RNvNtCsa6QFEuJDwzK_9flexorama3web13launch_web_ui
FN:989,_RNvNvNtCsa6QFEuJDwzK_9flexorama3web55___axum_macros_check_send_message_to_conversation_future28send_message_to_conversation
FN:1077,_RNvNvNtCsa6QFEuJDwzK_9flexorama3web57___axum_macros_check_stream_message_to_conversation_future30stream_message_to_conversation
FN:2640,_RNvMNtNtCsa6QFEuJDwzK_9flexorama3web5testsNtB2_8EnvGuard16set_commands_dir
FN:2882,_RNvNtNtCsa6QFEuJDwzK_9flexorama3web5tests13json_response
FN:2778,_RNvNtNtCsa6QFEuJDwzK_9flexorama3web5tests14init_test_home
FN:2790,_RNvNtNtCsa6QFEuJDwzK_9flexorama3web5tests16build_test_state
FN:2837,_RNvNtNtCsa6QFEuJDwzK_9flexorama3web5tests17build_test_router
FN:3666,_RNvNtNtCsa6QFEuJDwzK_9flexorama3web5testss_14test_get_agent
FN:3465,_RNvNtNtCsa6QFEuJDwzK_9flexorama3web5testss_16test_delete_plan
FN:3631,_RNvNtNtCsa6QFEuJDwzK_9flexorama3web5testss_16test_list_agents
FN:3840,_RNvNtNtCsa6QFEuJDwzK_9flexorama3web5testss_16test_model_stats
FN:3438,_RNvNtNtCsa6QFEuJDwzK_9flexorama3web5testss_16test_update_plan
FN:3823,_RNvNtNtCsa6QFEuJDwzK_9flexorama3web5testss_16test_usage_stats
FN:3647,_RNvNtNtCsa6QFEuJDwzK_9flexorama3web5testss_17test_create_agent
FN:3745,_RNvNtNtCsa6QFEuJDwzK_9flexorama3web5testss_17test_delete_agent
FN:3712,_RNvNtNtCsa6QFEuJDwzK_9flexorama3web5testss_17test_update_agent
FN:3556,_RNvNtNtCsa6QFEuJDwzK_9flexorama3web5testss_19test_get_mcp_server
FN:3799,_RNvNtNtCsa6QFEuJDwzK_9flexorama3web5testss_19test_stats_overview
FN:2894,_RNvNtNtCsa6QFEuJDwzK_9flexorama3web5testss_20test_health_endpoint
FN:2908,_RNvNtNtCsa6QFEuJDwzK_9flexorama3web5testss_20test_models_endpoint
FN:3783,_RNvNtNtCsa6QFEuJDwzK_9flexorama3web5testss_21test_get_active_agent
FN:3399,_RNvNtNtCsa6QFEuJDwzK_9flexorama3web5testss_21test_get_plan_success
FN:3491,_RNvNtNtCsa6QFEuJDwzK_9flexorama3web5testss_21test_list_mcp_servers
FN:3600,_RNvNtNtCsa6QFEuJDwzK_9flexorama3web5testss_22test_delete_mcp_server
FN:3507,_RNvNtNtCsa6QFEuJDwzK_9flexorama3web5testss_22test_upsert_mcp_server
FN:3857,_RNvNtNtCsa6QFEuJDwzK_9flexorama3web5testss_23test_conversation_stats
FN:3423,_RNvNtNtCsa6QFEuJDwzK_9flexorama3web5testss_23test_get_plan_not_found
FN:2925,_RNvNtNtCsa6QFEuJDwzK_9flexorama3web5testss_23test_plan_mode_endpoint
FN:3342,_RNvNtNtCsa6QFEuJDwzK_9flexorama3web5testss_23test_set_model_endpoint
FN:3697,_RNvNtNtCsa6QFEuJDwzK_9flexorama3web5testss_24test_get_agent_not_found
FN:2699,_RNvNtNtCsa6QFEuJDwzK_9flexorama3web5testss_25test_parse_tool_arguments
FN:3357,_RNvNtNtCsa6QFEuJDwzK_9flexorama3web5testss_28test_set_model_rejects_empty
FN:3371,_RNvNtNtCsa6QFEuJDwzK_9flexorama3web5testss_29test_get_conversation_success
FN:3585,_RNvNtNtCsa6QFEuJDwzK_9flexorama3web5testss_29test_get_mcp_server_not_found
FN:3313,_RNvNtNtCsa6QFEuJDwzK_9flexorama3web5testss_30test_permissions_pending_empty
FN:3285,_RNvNtNtCsa6QFEuJDwzK_9flexorama3web5testss_31test_create_plan_and_list_plans
FN:3272,_RNvNtNtCsa6QFEuJDwzK_9flexorama3web5testss_31test_get_conversation_not_found
FN:2949,_RNvNtNtCsa6QFEuJDwzK_9flexorama3web5testss_31test_skills_crud_and_activation
FN:2658,_RNvNtNtCsa6QFEuJDwzK_9flexorama3web5testss_32test_extract_provider_from_model
FN:3156,_RNvNtNtCsa6QFEuJDwzK_9flexorama3web5testss_32test_list_conversations_endpoint
FN:3184,_RNvNtNtCsa6QFEuJDwzK_9flexorama3web5testss_34test_search_conversations_endpoint
FN:3874,_RNvNtNtCsa6QFEuJDwzK_9flexorama3web5testss_35test_conversation_stats_by_provider
FN:3894,_RNvNtNtCsa6QFEuJDwzK_9flexorama3web5testss_35test_conversation_stats_by_subagent
FN:3328,_RNvNtNtCsa6QFEuJDwzK_9flexorama3web5testss_36test_permissions_respond_requires_id
FN:3524,_RNvNtNtCsa6QFEuJDwzK_9flexorama3web5testss_36test_upsert_mcp_server_requires_name
FN:2686,_RNvNtNtCsa6QFEuJDwzK_9flexorama3web5testss_37test_calculate_date_range_with_period
FN:2731,_RNvNtNtCsa6QFEuJDwzK_9flexorama3web5testss_40test_extract_context_files_from_messages
FN:2668,_RNvNtNtCsa6QFEuJDwzK_9flexorama3web5testss_43test_calculate_date_range_with_custom_dates
FN:3540,_RNvNtNtCsa6QFEuJDwzK_9flexorama3web5testss_46test_upsert_mcp_server_requires_command_or_url
FN:2753,_RNvNtNtCsa6QFEuJDwzK_9flexorama3web5testss_49test_timeline_messages_to_dto_includes_tool_calls
FN:3222,_RNvNtNtCsa6QFEuJDwzK_9flexorama3web5testss_51test_ensure_default_conversation_creates_when_empty
FN:3245,_RNvNtNtCsa6QFEuJDwzK_9flexorama3web5testss_51test_ensure_default_conversation_noop_when_existing
FN:2708,_RNvNtNtCsa6QFEuJDwzK_9flexorama3web5testss_53test_build_visible_message_dto_filters_context_blocks
FN:2648,_RNvXs_NtNtCsa6QFEuJDwzK_9flexorama3web5testsNtB4_8EnvGuardNtNtNtCs3XFJfFEDSOQ_4core3ops4drop4Drop4drop
FN:2353,_RINvNtCsa6QFEuJDwzK_9flexorama3web21db_result_to_responseINtNtCsgag4BwXrjBQ_5alloc3vec3VecNtNtB4_8database10ModelStatsENCNCNvB2_15get_model_stats0s_0EB4_
FN:2353,_RINvNtCsa6QFEuJDwzK_9flexorama3web21db_result_to_responseINtNtCsgag4BwXrjBQ_5alloc3vec3VecNtNtB4_8database10UsageStatsENCNCNvB2_15get_usage_stats0s_0EB4_
FN:2353,_RINvNtCsa6QFEuJDwzK_9flexorama3web21db_result_to_responseINtNtCsgag4BwXrjBQ_5alloc3vec3VecTNtNtBY_6string6StringB1r_lEENCNCNvB2_34get_conversation_stats_by_provider0s_0EB4_
FN:2353,_RINvNtCsa6QFEuJDwzK_9flexorama3web21db_result_to_responseINtNtCsgag4BwXrjBQ_5alloc3vec3VecTNtNtBY_6string6StringB1r_lEENCNCNvB2_34get_conversation_stats_by_subagent0s_0EB4_
FN:2353,_RINvNtCsa6QFEuJDwzK_9flexorama3web21db_result_to_responseINtNtCsgag4BwXrjBQ_5alloc3vec3VecTNtNtBY_6string6StringlEENCNCNvB2_22get_conversation_stats0s_0EB4_
FN:2353,_RINvNtCsa6QFEuJDwzK_9flexorama3web21db_result_to_responseNtNtB4_8database13StatsOverviewNCNCNvB2_18get_stats_overview00EB4_
FN:1683,_RNCNCNCNvNtCsa6QFEuJDwzK_9flexorama3web11list_skills000B9_
FN:2112,_RNCNCNCNvNtCsa6QFEuJDwzK_9flexorama3web15get_model_stats0s_00B9_
FN:2080,_RNCNCNCNvNtCsa6QFEuJDwzK_9flexorama3web15get_usage_stats0s_00B9_
FN:2143,_RNCNCNCNvNtCsa6QFEuJDwzK_9flexorama3web22get_conversation_stats0s_00B9_
FN:2529,_RNCNCNCNvNtCsa6QFEuJDwzK_9flexorama3web24snapshot_messages_to_dtos0_000B9_
FN:2534,_RNCNCNCNvNtCsa6QFEuJDwzK_9flexorama3web24snapshot_messages_to_dtos0_00s_0B9_
FN:835,_RNCNCNCNvNtCsa6QFEuJDwzK_9flexorama3web29build_conversation_list_items0s0_00B9_
FN:1094,_RNCNCNCNvNtCsa6QFEuJDwzK_9flexorama3web30stream_message_to_conversation000B9_
FN:1172,_RNCNCNCNvNtCsa6QFEuJDwzK_9flexorama3web30stream_message_to_conversation00s0_0B9_
FN:1120,_RNCNCNCNvNtCsa6QFEuJDwzK_9flexorama3web30stream_message_to_conversation00s_0B9_
FN:2177,_RNCNCNCNvNtCsa6QFEuJDwzK_9flexorama3web34get_conversation_stats_by_provider0s_00B9_
FN:2209,_RNCNCNCNvNtCsa6QFEuJDwzK_9flexorama3web34get_conversation_stats_by_subagent0s_00B9_
FN:432,_RNCNCNvMNtCsa6QFEuJDwzK_9flexorama3webNtB6_13PermissionHub12list_pending00B8_
FN:1047,_RNCNCNvNtCsa6QFEuJDwzK_9flexorama3web10get_models00B7_
FN:1224,_RNCNCNvNtCsa6QFEuJDwzK_9flexorama3web10list_plans00B7_
FN:1480,_RNCNCNvNtCsa6QFEuJDwzK_9flexorama3web11list_agents00B7_
FN:1674,_RNCNCNvNtCsa6QFEuJDwzK_9flexorama3web11list_skills00B7_
FN:613,_RNCNCNvNtCsa6QFEuJDwzK_9flexorama3web15csrf_middleware00B7_
FN:2098,_RNCNCNvNtCsa6QFEuJDwzK_9flexorama3web15get_model_stats00B7_
FN:2106,_RNCNCNvNtCsa6QFEuJDwzK_9flexorama3web15get_model_stats0s_0B7_
FN:2066,_RNCNCNvNtCsa6QFEuJDwzK_9flexorama3web15get_usage_stats00B7_
FN:2074,_RNCNCNvNtCsa6QFEuJDwzK_9flexorama3web15get_usage_stats0s_0B7_
FN:891,_RNCNCNvNtCsa6QFEuJDwzK_9flexorama3web16get_conversation00B7_
FN:928,_RNCNCNvNtCsa6QFEuJDwzK_9flexorama3web16get_conversation0s_0B7_
FN:1334,_RNCNCNvNtCsa6QFEuJDwzK_9flexorama3web16list_mcp_servers00B7_
FN:2057,_RNCNCNvNtCsa6QFEuJDwzK_9flexorama3web18get_stats_overview00B7_
FN:1857,_RNCNCNvNtCsa6QFEuJDwzK_9flexorama3web20list_custom_commands00B7_
FN:2293,_RNCNCNvNtCsa6QFEuJDwzK_9flexorama3web21get_file_autocomplete00B7_
FN:2343,_RNCNCNvNtCsa6QFEuJDwzK_9flexorama3web21get_file_autocomplete0s0_0B7_
FN:2322,_RNCNCNvNtCsa6QFEuJDwzK_9flexorama3web21get_file_autocomplete0s_0B7_
FN:2130,_RNCNCNvNtCsa6QFEuJDwzK_9flexorama3web22get_conversation_stats00B7_
FN:2138,_RNCNCNvNtCsa6QFEuJDwzK_9flexorama3web22get_conversation_stats0s_0B7_
FN:519,_RNCNCNvNtCsa6QFEuJDwzK_9flexorama3web24build_permission_handler00B7_
FN:2525,_RNCNCNvNtCsa6QFEuJDwzK_9flexorama3web24snapshot_messages_to_dtos0_00B7_
FN:2589,_RNCNCNvNtCsa6QFEuJDwzK_9flexorama3web24timeline_messages_to_dto00B7_
FN:833,_RNCNCNvNtCsa6QFEuJDwzK_9flexorama3web29build_conversation_list_items00B7_
FN:835,_RNCNCNvNtCsa6QFEuJDwzK_9flexorama3web29build_conversation_list_items0s0_0B7_
FN:834,_RNCNCNvNtCsa6QFEuJDwzK_9flexorama3web29build_conversation_list_items0s_0B7_
FN:1089,_RNCNCNvNtCsa6QFEuJDwzK_9flexorama3web30stream_message_to_conversation00B7_
FN:2156,_RNCNCNvNtCsa6QFEuJDwzK_9flexorama3web34get_conversation_stats_by_provider00B7_
FN:2164,_RNCNCNvNtCsa6QFEuJDwzK_9flexorama3web34get_conversation_stats_by_provider0s_0B7_
FN:2197,_RNCNCNvNtCsa6QFEuJDwzK_9flexorama3web34get_conversation_stats_by_subagent00B7_
FN:2205,_RNCNCNvNtCsa6QFEuJDwzK_9flexorama3web34get_conversation_stats_by_subagent0s_0B7_
FN:1709,_RNCNCNvNtCsa6QFEuJDwzK_9flexorama3web9get_skill00B7_
FN:428,_RNCNvMNtCsa6QFEuJDwzK_9flexorama3webNtB4_13PermissionHub12list_pending0B6_
FN:417,_RNCNvMNtCsa6QFEuJDwzK_9flexorama3webNtB4_13PermissionHub14create_request0B6_
FN:443,_RNCNvMNtCsa6QFEuJDwzK_9flexorama3webNtB4_13PermissionHub7resolve0B6_
FN:1042,_RNCNvNtCsa6QFEuJDwzK_9flexorama3web10get_models0B5_
FN:1218,_RNCNvNtCsa6QFEuJDwzK_9flexorama3web10list_plans0B5_
FN:2046,_RNCNvNtCsa6QFEuJDwzK_9flexorama3web10list_todos0B5_
FN:1308,_RNCNvNtCsa6QFEuJDwzK_9flexorama3web11create_plan0B5_
FN:1294,_RNCNvNtCsa6QFEuJDwzK_9flexorama3web11delete_plan0B5_
FN:1465,_RNCNvNtCsa6QFEuJDwzK_9flexorama3web11list_agents0B5_
FN:1665,_RNCNvNtCsa6QFEuJDwzK_9flexorama3web11list_skills0B5_
FN:732,_RNCNvNtCsa6QFEuJDwzK_9flexorama3web11serve_index0B5_
FN:1266,_RNCNvNtCsa6QFEuJDwzK_9flexorama3web11update_plan0B5_
FN:1520,_RNCNvNtCsa6QFEuJDwzK_9flexorama3web12create_agent0B5_
FN:1722,_RNCNvNtCsa6QFEuJDwzK_9flexorama3web12create_skill0B5_
FN:1593,_RNCNvNtCsa6QFEuJDwzK_9flexorama3web12delete_agent0B5_
FN:1790,_RNCNvNtCsa6QFEuJDwzK_9flexorama3web12delete_skill0B5_
FN:745,_RNCNvNtCsa6QFEuJDwzK_9flexorama3web12serve_app_js0B5_
FN:1561,_RNCNvNtCsa6QFEuJDwzK_9flexorama3web12update_agent0B5_
FN:1754,_RNCNvNtCsa6QFEuJDwzK_9flexorama3web12update_skill0B5_
FN:2012,_RNCNvNtCsa6QFEuJDwzK_9flexorama3web13get_plan_mode0B5_
FN:628,_RNCNvNtCsa6QFEuJDwzK_9flexorama3web13launch_web_ui0B5_
FN:2023,_RNCNvNtCsa6QFEuJDwzK_9flexorama3web13set_plan_mode0B5_
FN:1806,_RNCNvNtCsa6QFEuJDwzK_9flexorama3web14activate_skill0B5_
FN:1352,_RNCNvNtCsa6QFEuJDwzK_9flexorama3web14get_mcp_server0B5_
FN:608,_RNCNvNtCsa6QFEuJDwzK_9flexorama3web15csrf_middleware0B5_
FN:2096,_RNCNvNtCsa6QFEuJDwzK_9flexorama3web15get_model_stats0B5_
FN:2064,_RNCNvNtCsa6QFEuJDwzK_9flexorama3web15get_usage_stats0B5_
FN:1822,_RNCNvNtCsa6QFEuJDwzK_9flexorama3web16deactivate_skill0B5_
FN:1605,_RNCNvNtCsa6QFEuJDwzK_9flexorama3web16get_active_agent0B5_
FN:868,_RNCNvNtCsa6QFEuJDwzK_9flexorama3web16get_conversation0B5_
FN:2409,_RNCNvNtCsa6QFEuJDwzK_9flexorama3web16is_context_block0B5_
FN:1328,_RNCNvNtCsa6QFEuJDwzK_9flexorama3web16list_mcp_servers0B5_
FN:1613,_RNCNvNtCsa6QFEuJDwzK_9flexorama3web16set_active_agent0B5_
FN:2446,_RNCNvNtCsa6QFEuJDwzK_9flexorama3web17build_message_dto0B5_
FN:1426,_RNCNvNtCsa6QFEuJDwzK_9flexorama3web17delete_mcp_server0B5_
FN:1835,_RNCNvNtCsa6QFEuJDwzK_9flexorama3web17get_active_skills0B5_
FN:1367,_RNCNvNtCsa6QFEuJDwzK_9flexorama3web17upsert_mcp_server0B5_
FN:2424,_RNCNvNtCsa6QFEuJDwzK_9flexorama3web18block_text_summary0B5_
FN:1440,_RNCNvNtCsa6QFEuJDwzK_9flexorama3web18connect_mcp_server0B5_
FN:1878,_RNCNvNtCsa6QFEuJDwzK_9flexorama3web18get_custom_command0B5_
